ARM GAS  /tmp/ccavOpsu.s 			page 1


   1              		.syntax unified
   2              		.cpu cortex-m4
   3              		.fpu softvfp
   4              		.eabi_attribute 20, 1
   5              		.eabi_attribute 21, 1
   6              		.eabi_attribute 23, 3
   7              		.eabi_attribute 24, 1
   8              		.eabi_attribute 25, 1
   9              		.eabi_attribute 26, 1
  10              		.eabi_attribute 30, 2
  11              		.eabi_attribute 34, 1
  12              		.eabi_attribute 18, 4
  13              		.thumb
  14              		.file	"adc.c"
  15              		.text
  16              	.Ltext0:
  17              		.cfi_sections	.debug_frame
  18              		.section	.text.adcInit,"ax",%progbits
  19              		.align	2
  20              		.p2align 4,,15
  21              		.global	adcInit
  22              		.thumb
  23              		.thumb_func
  24              		.type	adcInit, %function
  25              	adcInit:
  26              	.LFB118:
  27              		.file 1 "/home/marco/SoftwareProjects/st-usb/f9xx/firmware/ext/ChibiOS-RT/os/hal/src/adc.c"
  28              		.loc 1 68 0
  29              		.cfi_startproc
  30              		@ args = 0, pretend = 0, frame = 0
  31              		@ frame_needed = 0, uses_anonymous_args = 0
  32              		@ link register save eliminated.
  33              		.loc 1 70 0
  34 0000 FFF7FEBF 		b	adc_lld_init
  35              	.LVL0:
  36              		.cfi_endproc
  37              	.LFE118:
  38              		.size	adcInit, .-adcInit
  39 0004 AFF30080 		.section	.text.adcObjectInit,"ax",%progbits
  39      AFF30080 
  39      AFF30080 
  40              		.align	2
  41              		.p2align 4,,15
  42              		.global	adcObjectInit
  43              		.thumb
  44              		.thumb_func
  45              		.type	adcObjectInit, %function
  46              	adcObjectInit:
  47              	.LFB119:
  48              		.loc 1 80 0
  49              		.cfi_startproc
  50              		@ args = 0, pretend = 0, frame = 0
  51              		@ frame_needed = 0, uses_anonymous_args = 0
  52              		@ link register save eliminated.
  53              	.LVL1:
  54              		.loc 1 83 0
  55 0000 0023     		movs	r3, #0
ARM GAS  /tmp/ccavOpsu.s 			page 2


  56              		.loc 1 82 0
  57 0002 0122     		movs	r2, #1
  58 0004 0270     		strb	r2, [r0]
  59              		.loc 1 83 0
  60 0006 4360     		str	r3, [r0, #4]
  61              		.loc 1 84 0
  62 0008 8360     		str	r3, [r0, #8]
  63              		.loc 1 85 0
  64 000a C360     		str	r3, [r0, #12]
  65              		.loc 1 86 0
  66 000c 0361     		str	r3, [r0, #16]
  67              		.loc 1 88 0
  68 000e 4361     		str	r3, [r0, #20]
  69              		.loc 1 92 0
  70 0010 1830     		adds	r0, r0, #24
  71              	.LVL2:
  72 0012 FFF7FEBF 		b	chMtxInit
  73              	.LVL3:
  74              		.cfi_endproc
  75              	.LFE119:
  76              		.size	adcObjectInit, .-adcObjectInit
  77 0016 00BFAFF3 		.section	.text.adcStart,"ax",%progbits
  77      0080AFF3 
  77      0080
  78              		.align	2
  79              		.p2align 4,,15
  80              		.global	adcStart
  81              		.thumb
  82              		.thumb_func
  83              		.type	adcStart, %function
  84              	adcStart:
  85              	.LFB120:
  86              		.loc 1 111 0
  87              		.cfi_startproc
  88              		@ args = 0, pretend = 0, frame = 0
  89              		@ frame_needed = 0, uses_anonymous_args = 0
  90              	.LVL4:
  91 0000 10B5     		push	{r4, lr}
  92              		.cfi_def_cfa_offset 8
  93              		.cfi_offset 4, -8
  94              		.cfi_offset 14, -4
  95              	.LBB10:
  96              		.loc 1 115 0
  97 0002 2023     		movs	r3, #32
  98              	.LBE10:
  99              		.loc 1 111 0
 100 0004 0446     		mov	r4, r0
 101              	.LBB11:
 102              		.loc 1 115 0
 103              	@ 115 "/home/marco/SoftwareProjects/st-usb/f9xx/firmware/ext/ChibiOS-RT/os/hal/src/adc.c" 1
 104 0006 83F31188 		msr     BASEPRI, r3
 105              	@ 0 "" 2
 106              		.thumb
 107              	.LBE11:
 108              		.loc 1 118 0
 109 000a 4160     		str	r1, [r0, #4]
 110              		.loc 1 119 0
ARM GAS  /tmp/ccavOpsu.s 			page 3


 111 000c FFF7FEFF 		bl	adc_lld_start
 112              	.LVL5:
 113              		.loc 1 120 0
 114 0010 0223     		movs	r3, #2
 115 0012 2370     		strb	r3, [r4]
 116              	.LBB12:
 117              		.loc 1 121 0
 118 0014 0023     		movs	r3, #0
 119              	@ 121 "/home/marco/SoftwareProjects/st-usb/f9xx/firmware/ext/ChibiOS-RT/os/hal/src/adc.c" 1
 120 0016 83F31188 		msr     BASEPRI, r3
 121              	@ 0 "" 2
 122              		.thumb
 123 001a 10BD     		pop	{r4, pc}
 124              	.LBE12:
 125              		.cfi_endproc
 126              	.LFE120:
 127              		.size	adcStart, .-adcStart
 128 001c AFF30080 		.section	.text.adcStop,"ax",%progbits
 129              		.align	2
 130              		.p2align 4,,15
 131              		.global	adcStop
 132              		.thumb
 133              		.thumb_func
 134              		.type	adcStop, %function
 135              	adcStop:
 136              	.LFB121:
 137              		.loc 1 131 0
 138              		.cfi_startproc
 139              		@ args = 0, pretend = 0, frame = 0
 140              		@ frame_needed = 0, uses_anonymous_args = 0
 141              	.LVL6:
 142 0000 10B5     		push	{r4, lr}
 143              		.cfi_def_cfa_offset 8
 144              		.cfi_offset 4, -8
 145              		.cfi_offset 14, -4
 146              	.LBB13:
 147              		.loc 1 135 0
 148 0002 2023     		movs	r3, #32
 149              	.LBE13:
 150              		.loc 1 131 0
 151 0004 0446     		mov	r4, r0
 152              	.LBB14:
 153              		.loc 1 135 0
 154              	@ 135 "/home/marco/SoftwareProjects/st-usb/f9xx/firmware/ext/ChibiOS-RT/os/hal/src/adc.c" 1
 155 0006 83F31188 		msr     BASEPRI, r3
 156              	@ 0 "" 2
 157              		.thumb
 158              	.LBE14:
 159              		.loc 1 138 0
 160 000a FFF7FEFF 		bl	adc_lld_stop
 161              	.LVL7:
 162              		.loc 1 139 0
 163 000e 0123     		movs	r3, #1
 164 0010 2370     		strb	r3, [r4]
 165              	.LBB15:
 166              		.loc 1 140 0
 167 0012 0023     		movs	r3, #0
ARM GAS  /tmp/ccavOpsu.s 			page 4


 168              	@ 140 "/home/marco/SoftwareProjects/st-usb/f9xx/firmware/ext/ChibiOS-RT/os/hal/src/adc.c" 1
 169 0014 83F31188 		msr     BASEPRI, r3
 170              	@ 0 "" 2
 171              		.thumb
 172 0018 10BD     		pop	{r4, pc}
 173              	.LBE15:
 174              		.cfi_endproc
 175              	.LFE121:
 176              		.size	adcStop, .-adcStop
 177 001a 00BFAFF3 		.section	.text.adcStartConversion,"ax",%progbits
 177      0080
 178              		.align	2
 179              		.p2align 4,,15
 180              		.global	adcStartConversion
 181              		.thumb
 182              		.thumb_func
 183              		.type	adcStartConversion, %function
 184              	adcStartConversion:
 185              	.LFB122:
 186              		.loc 1 162 0
 187              		.cfi_startproc
 188              		@ args = 0, pretend = 0, frame = 0
 189              		@ frame_needed = 0, uses_anonymous_args = 0
 190              	.LVL8:
 191 0000 38B5     		push	{r3, r4, r5, lr}
 192              		.cfi_def_cfa_offset 16
 193              		.cfi_offset 3, -16
 194              		.cfi_offset 4, -12
 195              		.cfi_offset 5, -8
 196              		.cfi_offset 14, -4
 197              		.loc 1 162 0
 198 0002 1D46     		mov	r5, r3
 199              	.LBB16:
 200              		.loc 1 164 0
 201 0004 2023     		movs	r3, #32
 202              	.LVL9:
 203              	@ 164 "/home/marco/SoftwareProjects/st-usb/f9xx/firmware/ext/ChibiOS-RT/os/hal/src/adc.c" 1
 204 0006 83F31188 		msr     BASEPRI, r3
 205              	@ 0 "" 2
 206              	.LVL10:
 207              		.thumb
 208              	.LBE16:
 209              	.LBB17:
 210              	.LBB18:
 211              		.loc 1 204 0
 212 000a 0323     		movs	r3, #3
 213 000c 0370     		strb	r3, [r0]
 214              		.loc 1 201 0
 215 000e 8260     		str	r2, [r0, #8]
 216              		.loc 1 202 0
 217 0010 C560     		str	r5, [r0, #12]
 218              		.loc 1 203 0
 219 0012 0161     		str	r1, [r0, #16]
 220              		.loc 1 205 0
 221 0014 FFF7FEFF 		bl	adc_lld_start_conversion
 222              	.LVL11:
 223              	.LBE18:
ARM GAS  /tmp/ccavOpsu.s 			page 5


 224              	.LBE17:
 225              	.LBB19:
 226              		.loc 1 166 0
 227 0018 0023     		movs	r3, #0
 228              	@ 166 "/home/marco/SoftwareProjects/st-usb/f9xx/firmware/ext/ChibiOS-RT/os/hal/src/adc.c" 1
 229 001a 83F31188 		msr     BASEPRI, r3
 230              	@ 0 "" 2
 231              		.thumb
 232 001e 38BD     		pop	{r3, r4, r5, pc}
 233              	.LBE19:
 234              		.cfi_endproc
 235              	.LFE122:
 236              		.size	adcStartConversion, .-adcStartConversion
 237              		.section	.text.adcStartConversionI,"ax",%progbits
 238              		.align	2
 239              		.p2align 4,,15
 240              		.global	adcStartConversionI
 241              		.thumb
 242              		.thumb_func
 243              		.type	adcStartConversionI, %function
 244              	adcStartConversionI:
 245              	.LFB123:
 246              		.loc 1 190 0
 247              		.cfi_startproc
 248              		@ args = 0, pretend = 0, frame = 0
 249              		@ frame_needed = 0, uses_anonymous_args = 0
 250              		@ link register save eliminated.
 251              	.LVL12:
 252 0000 30B4     		push	{r4, r5}
 253              		.cfi_def_cfa_offset 8
 254              		.cfi_offset 4, -8
 255              		.cfi_offset 5, -4
 256              		.loc 1 204 0
 257 0002 0325     		movs	r5, #3
 258 0004 0570     		strb	r5, [r0]
 259              		.loc 1 201 0
 260 0006 8260     		str	r2, [r0, #8]
 261              		.loc 1 202 0
 262 0008 C360     		str	r3, [r0, #12]
 263              		.loc 1 203 0
 264 000a 0161     		str	r1, [r0, #16]
 265              		.loc 1 206 0
 266 000c 30BC     		pop	{r4, r5}
 267              		.loc 1 205 0
 268 000e FFF7FEBF 		b	adc_lld_start_conversion
 269              	.LVL13:
 270              		.cfi_endproc
 271              	.LFE123:
 272              		.size	adcStartConversionI, .-adcStartConversionI
 273 0012 00BFAFF3 		.section	.text.adcStopConversion,"ax",%progbits
 273      0080AFF3 
 273      0080AFF3 
 273      0080
 274              		.align	2
 275              		.p2align 4,,15
 276              		.global	adcStopConversion
 277              		.thumb
ARM GAS  /tmp/ccavOpsu.s 			page 6


 278              		.thumb_func
 279              		.type	adcStopConversion, %function
 280              	adcStopConversion:
 281              	.LFB124:
 282              		.loc 1 218 0
 283              		.cfi_startproc
 284              		@ args = 0, pretend = 0, frame = 0
 285              		@ frame_needed = 0, uses_anonymous_args = 0
 286              	.LVL14:
 287 0000 10B5     		push	{r4, lr}
 288              		.cfi_def_cfa_offset 8
 289              		.cfi_offset 4, -8
 290              		.cfi_offset 14, -4
 291              	.LBB20:
 292              		.loc 1 222 0
 293 0002 2023     		movs	r3, #32
 294              	.LBE20:
 295              		.loc 1 218 0
 296 0004 0446     		mov	r4, r0
 297              	.LBB21:
 298              		.loc 1 222 0
 299              	@ 222 "/home/marco/SoftwareProjects/st-usb/f9xx/firmware/ext/ChibiOS-RT/os/hal/src/adc.c" 1
 300 0006 83F31188 		msr     BASEPRI, r3
 301              	@ 0 "" 2
 302              		.thumb
 303              	.LBE21:
 304              		.loc 1 226 0
 305 000a 0378     		ldrb	r3, [r0]	@ zero_extendqisi2
 306 000c 022B     		cmp	r3, #2
 307 000e 0CD0     		beq	.L9
 308              		.loc 1 227 0
 309 0010 FFF7FEFF 		bl	adc_lld_stop_conversion
 310              	.LVL15:
 311              		.loc 1 230 0
 312 0014 6069     		ldr	r0, [r4, #20]
 313              		.loc 1 228 0
 314 0016 0023     		movs	r3, #0
 315              		.loc 1 229 0
 316 0018 0222     		movs	r2, #2
 317              		.loc 1 228 0
 318 001a 2361     		str	r3, [r4, #16]
 319              		.loc 1 229 0
 320 001c 2270     		strb	r2, [r4]
 321              		.loc 1 230 0
 322 001e 20B1     		cbz	r0, .L9
 323              	.LVL16:
 324              	.LBB22:
 325              		.loc 1 230 0 is_stmt 0 discriminator 1
 326 0020 6361     		str	r3, [r4, #20]
 327 0022 6FF00101 		mvn	r1, #1
 328 0026 FFF7FEFF 		bl	chSchWakeupS
 329              	.LVL17:
 330              	.L9:
 331              	.LBE22:
 332              	.LBB23:
 333              		.loc 1 232 0 is_stmt 1
 334 002a 0023     		movs	r3, #0
ARM GAS  /tmp/ccavOpsu.s 			page 7


 335              	@ 232 "/home/marco/SoftwareProjects/st-usb/f9xx/firmware/ext/ChibiOS-RT/os/hal/src/adc.c" 1
 336 002c 83F31188 		msr     BASEPRI, r3
 337              	@ 0 "" 2
 338              		.thumb
 339 0030 10BD     		pop	{r4, pc}
 340              	.LBE23:
 341              		.cfi_endproc
 342              	.LFE124:
 343              		.size	adcStopConversion, .-adcStopConversion
 344 0032 00BFAFF3 		.section	.text.adcStopConversionI,"ax",%progbits
 344      0080AFF3 
 344      0080AFF3 
 344      0080
 345              		.align	2
 346              		.p2align 4,,15
 347              		.global	adcStopConversionI
 348              		.thumb
 349              		.thumb_func
 350              		.type	adcStopConversionI, %function
 351              	adcStopConversionI:
 352              	.LFB125:
 353              		.loc 1 245 0
 354              		.cfi_startproc
 355              		@ args = 0, pretend = 0, frame = 0
 356              		@ frame_needed = 0, uses_anonymous_args = 0
 357              	.LVL18:
 358              		.loc 1 254 0
 359 0000 0378     		ldrb	r3, [r0]	@ zero_extendqisi2
 360 0002 022B     		cmp	r3, #2
 361              		.loc 1 245 0
 362 0004 10B5     		push	{r4, lr}
 363              		.cfi_def_cfa_offset 8
 364              		.cfi_offset 4, -8
 365              		.cfi_offset 14, -4
 366              		.loc 1 245 0
 367 0006 0446     		mov	r4, r0
 368              		.loc 1 254 0
 369 0008 10D0     		beq	.L15
 370              		.loc 1 255 0
 371 000a FFF7FEFF 		bl	adc_lld_stop_conversion
 372              	.LVL19:
 373              		.loc 1 258 0
 374 000e 6369     		ldr	r3, [r4, #20]
 375              		.loc 1 256 0
 376 0010 0022     		movs	r2, #0
 377              		.loc 1 257 0
 378 0012 0221     		movs	r1, #2
 379              		.loc 1 256 0
 380 0014 2261     		str	r2, [r4, #16]
 381              		.loc 1 257 0
 382 0016 2170     		strb	r1, [r4]
 383              		.loc 1 258 0
 384 0018 43B1     		cbz	r3, .L15
 385              	.LVL20:
 386              	.LBB24:
 387              		.loc 1 258 0 is_stmt 0 discriminator 1
 388 001a 6FF00101 		mvn	r1, #1
ARM GAS  /tmp/ccavOpsu.s 			page 8


 389 001e 6261     		str	r2, [r4, #20]
 390 0020 5962     		str	r1, [r3, #36]
 391 0022 1846     		mov	r0, r3
 392              	.LBE24:
 393              		.loc 1 260 0 is_stmt 1 discriminator 1
 394 0024 BDE81040 		pop	{r4, lr}
 395              	.LVL21:
 396              	.LBB25:
 397              		.loc 1 258 0 discriminator 1
 398 0028 FFF7FEBF 		b	chSchReadyI
 399              	.LVL22:
 400              	.L15:
 401 002c 10BD     		pop	{r4, pc}
 402              	.LBE25:
 403              		.cfi_endproc
 404              	.LFE125:
 405              		.size	adcStopConversionI, .-adcStopConversionI
 406 002e 00BF     		.section	.text.adcConvert,"ax",%progbits
 407              		.align	2
 408              		.p2align 4,,15
 409              		.global	adcConvert
 410              		.thumb
 411              		.thumb_func
 412              		.type	adcConvert, %function
 413              	adcConvert:
 414              	.LFB126:
 415              		.loc 1 289 0
 416              		.cfi_startproc
 417              		@ args = 0, pretend = 0, frame = 0
 418              		@ frame_needed = 0, uses_anonymous_args = 0
 419              	.LVL23:
 420 0000 70B5     		push	{r4, r5, r6, lr}
 421              		.cfi_def_cfa_offset 16
 422              		.cfi_offset 4, -16
 423              		.cfi_offset 5, -12
 424              		.cfi_offset 6, -8
 425              		.cfi_offset 14, -4
 426              		.loc 1 289 0
 427 0002 1E46     		mov	r6, r3
 428 0004 0446     		mov	r4, r0
 429              	.LBB26:
 430              		.loc 1 292 0
 431 0006 2023     		movs	r3, #32
 432              	.LVL24:
 433              	@ 292 "/home/marco/SoftwareProjects/st-usb/f9xx/firmware/ext/ChibiOS-RT/os/hal/src/adc.c" 1
 434 0008 83F31188 		msr     BASEPRI, r3
 435              	@ 0 "" 2
 436              	.LVL25:
 437              		.thumb
 438              	.LBE26:
 439              	.LBB27:
 440              	.LBB28:
 441              		.loc 1 204 0
 442 000c 0323     		movs	r3, #3
 443              	.LBE28:
 444              	.LBE27:
 445              		.loc 1 295 0
ARM GAS  /tmp/ccavOpsu.s 			page 9


 446 000e 094D     		ldr	r5, .L23
 447              	.LBB30:
 448              	.LBB29:
 449              		.loc 1 201 0
 450 0010 8260     		str	r2, [r0, #8]
 451              		.loc 1 203 0
 452 0012 0161     		str	r1, [r0, #16]
 453              		.loc 1 202 0
 454 0014 C660     		str	r6, [r0, #12]
 455              		.loc 1 204 0
 456 0016 0370     		strb	r3, [r0]
 457              		.loc 1 205 0
 458 0018 FFF7FEFF 		bl	adc_lld_start_conversion
 459              	.LVL26:
 460              	.LBE29:
 461              	.LBE30:
 462              		.loc 1 295 0
 463 001c AB69     		ldr	r3, [r5, #24]
 464 001e 6361     		str	r3, [r4, #20]
 465              		.loc 1 296 0
 466 0020 0220     		movs	r0, #2
 467 0022 FFF7FEFF 		bl	chSchGoSleepS
 468              	.LVL27:
 469              		.loc 1 297 0
 470 0026 AA69     		ldr	r2, [r5, #24]
 471              	.LBB31:
 472              		.loc 1 298 0
 473 0028 0023     		movs	r3, #0
 474              	.LBE31:
 475              		.loc 1 297 0
 476 002a 506A     		ldr	r0, [r2, #36]
 477              	.LVL28:
 478              	.LBB32:
 479              		.loc 1 298 0
 480              	@ 298 "/home/marco/SoftwareProjects/st-usb/f9xx/firmware/ext/ChibiOS-RT/os/hal/src/adc.c" 1
 481 002c 83F31188 		msr     BASEPRI, r3
 482              	@ 0 "" 2
 483              		.thumb
 484              	.LBE32:
 485              		.loc 1 300 0
 486 0030 70BD     		pop	{r4, r5, r6, pc}
 487              	.LVL29:
 488              	.L24:
 489 0032 00BF     		.align	2
 490              	.L23:
 491 0034 00000000 		.word	rlist
 492              		.cfi_endproc
 493              	.LFE126:
 494              		.size	adcConvert, .-adcConvert
 495 0038 AFF30080 		.section	.text.adcAcquireBus,"ax",%progbits
 495      AFF30080 
 496              		.align	2
 497              		.p2align 4,,15
 498              		.global	adcAcquireBus
 499              		.thumb
 500              		.thumb_func
 501              		.type	adcAcquireBus, %function
ARM GAS  /tmp/ccavOpsu.s 			page 10


 502              	adcAcquireBus:
 503              	.LFB127:
 504              		.loc 1 315 0
 505              		.cfi_startproc
 506              		@ args = 0, pretend = 0, frame = 0
 507              		@ frame_needed = 0, uses_anonymous_args = 0
 508              		@ link register save eliminated.
 509              	.LVL30:
 510              		.loc 1 320 0
 511 0000 1830     		adds	r0, r0, #24
 512              	.LVL31:
 513 0002 FFF7FEBF 		b	chMtxLock
 514              	.LVL32:
 515              		.cfi_endproc
 516              	.LFE127:
 517              		.size	adcAcquireBus, .-adcAcquireBus
 518 0006 00BFAFF3 		.section	.text.adcReleaseBus,"ax",%progbits
 518      0080AFF3 
 518      0080
 519              		.align	2
 520              		.p2align 4,,15
 521              		.global	adcReleaseBus
 522              		.thumb
 523              		.thumb_func
 524              		.type	adcReleaseBus, %function
 525              	adcReleaseBus:
 526              	.LFB128:
 527              		.loc 1 335 0
 528              		.cfi_startproc
 529              		@ args = 0, pretend = 0, frame = 0
 530              		@ frame_needed = 0, uses_anonymous_args = 0
 531              		@ link register save eliminated.
 532              	.LVL33:
 533              		.loc 1 341 0
 534 0000 FFF7FEBF 		b	chMtxUnlock
 535              	.LVL34:
 536              		.cfi_endproc
 537              	.LFE128:
 538              		.size	adcReleaseBus, .-adcReleaseBus
 539 0004 AFF30080 		.text
 539      AFF30080 
 539      AFF30080 
 540              	.Letext0:
 541              		.file 2 "/home/marco/SoftwareProjects/st-usb/tools/gcc-arm-none-eabi-4_8-2014q2/lib/gcc/arm-none-e
 542              		.file 3 "/home/marco/SoftwareProjects/st-usb/tools/gcc-arm-none-eabi-4_8-2014q2/arm-none-eabi/incl
 543              		.file 4 "/home/marco/SoftwareProjects/st-usb/tools/gcc-arm-none-eabi-4_8-2014q2/arm-none-eabi/incl
 544              		.file 5 "/home/marco/SoftwareProjects/st-usb/f9xx/firmware/ext/ChibiOS-RT/os/ports/GCC/ARMCMx/chty
 545              		.file 6 "/home/marco/SoftwareProjects/st-usb/f9xx/firmware/ext/ChibiOS-RT/os/kernel/include/chlist
 546              		.file 7 "/home/marco/SoftwareProjects/st-usb/f9xx/firmware/ext/ChibiOS-RT/os/kernel/include/chthre
 547              		.file 8 "/home/marco/SoftwareProjects/st-usb/f9xx/firmware/ext/ChibiOS-RT/os/ports/GCC/ARMCMx/chco
 548              		.file 9 "/home/marco/SoftwareProjects/st-usb/f9xx/firmware/ext/ChibiOS-RT/os/kernel/include/chschd
 549              		.file 10 "/home/marco/SoftwareProjects/st-usb/f9xx/firmware/ext/ChibiOS-RT/os/kernel/include/chmtx
 550              		.file 11 "/home/marco/SoftwareProjects/st-usb/f9xx/firmware/ext/ChibiOS-RT/os/hal/platforms/STM32F
 551              		.file 12 "/home/marco/SoftwareProjects/st-usb/f9xx/firmware/ext/ChibiOS-RT/os/hal/platforms/STM32F
 552              		.file 13 "/home/marco/SoftwareProjects/st-usb/f9xx/firmware/ext/ChibiOS-RT/os/hal/include/adc.h"
 553              		.file 14 "/home/marco/SoftwareProjects/st-usb/f9xx/firmware/ext/ChibiOS-RT/os/hal/platforms/STM32F
 554              		.file 15 "/home/marco/SoftwareProjects/st-usb/f9xx/firmware/ext/ChibiOS-RT/os/ports/common/ARMCMx/
ARM GAS  /tmp/ccavOpsu.s 			page 11

