ARM GAS  /tmp/ccMMbLfz.s 			page 1


   1              		.syntax unified
   2              		.cpu cortex-m4
   3              		.fpu softvfp
   4              		.eabi_attribute 20, 1
   5              		.eabi_attribute 21, 1
   6              		.eabi_attribute 23, 3
   7              		.eabi_attribute 24, 1
   8              		.eabi_attribute 25, 1
   9              		.eabi_attribute 26, 1
  10              		.eabi_attribute 30, 2
  11              		.eabi_attribute 34, 1
  12              		.eabi_attribute 18, 4
  13              		.thumb
  14              		.file	"adc_lld.c"
  15              		.text
  16              	.Ltext0:
  17              		.cfi_sections	.debug_frame
  18              		.section	.text.adc_lld_init,"ax",%progbits
  19              		.align	2
  20              		.p2align 4,,15
  21              		.global	adc_lld_init
  22              		.thumb
  23              		.thumb_func
  24              		.type	adc_lld_init, %function
  25              	adc_lld_init:
  26              	.LFB120:
  27              		.file 1 "/home/marco/SoftwareProjects/st-usb/f9xx/firmware/ext/ChibiOS-RT/os/hal/platforms/STM32F4
  28              		.loc 1 171 0
  29              		.cfi_startproc
  30              		@ args = 0, pretend = 0, frame = 0
  31              		@ frame_needed = 0, uses_anonymous_args = 0
  32 0000 10B5     		push	{r4, lr}
  33              		.cfi_def_cfa_offset 8
  34              		.cfi_offset 4, -8
  35              		.cfi_offset 14, -4
  36              		.loc 1 175 0
  37 0002 084C     		ldr	r4, .L2
  38 0004 2046     		mov	r0, r4
  39 0006 FFF7FEFF 		bl	adcObjectInit
  40              	.LVL0:
  41              		.loc 1 176 0
  42 000a 0749     		ldr	r1, .L2+4
  43              		.loc 1 177 0
  44 000c 074A     		ldr	r2, .L2+8
  45              		.loc 1 178 0
  46 000e 084B     		ldr	r3, .L2+12
  47              		.loc 1 176 0
  48 0010 A162     		str	r1, [r4, #40]
  49              		.loc 1 177 0
  50 0012 E262     		str	r2, [r4, #44]
  51              		.loc 1 178 0
  52 0014 2363     		str	r3, [r4, #48]
  53              		.loc 1 214 0
  54 0016 1220     		movs	r0, #18
  55 0018 6021     		movs	r1, #96
  56              		.loc 1 215 0
  57 001a BDE81040 		pop	{r4, lr}
ARM GAS  /tmp/ccMMbLfz.s 			page 2


  58              		.loc 1 214 0
  59 001e FFF7FEBF 		b	nvicEnableVector
  60              	.LVL1:
  61              	.L3:
  62 0022 00BF     		.align	2
  63              	.L2:
  64 0024 00000000 		.word	.LANCHOR0
  65 0028 00200140 		.word	1073815552
  66 002c 90000000 		.word	_stm32_dma_streams+144
  67 0030 162C0200 		.word	142358
  68              		.cfi_endproc
  69              	.LFE120:
  70              		.size	adc_lld_init, .-adc_lld_init
  71 0034 AFF30080 		.section	.text.adc_lld_start,"ax",%progbits
  71      AFF30080 
  71      AFF30080 
  72              		.align	2
  73              		.p2align 4,,15
  74              		.global	adc_lld_start
  75              		.thumb
  76              		.thumb_func
  77              		.type	adc_lld_start, %function
  78              	adc_lld_start:
  79              	.LFB121:
  80              		.loc 1 224 0
  81              		.cfi_startproc
  82              		@ args = 0, pretend = 0, frame = 0
  83              		@ frame_needed = 0, uses_anonymous_args = 0
  84              	.LVL2:
  85              		.loc 1 227 0
  86 0000 0378     		ldrb	r3, [r0]	@ zero_extendqisi2
  87 0002 012B     		cmp	r3, #1
  88              		.loc 1 224 0
  89 0004 10B5     		push	{r4, lr}
  90              		.cfi_def_cfa_offset 8
  91              		.cfi_offset 4, -8
  92              		.cfi_offset 14, -4
  93              		.loc 1 224 0
  94 0006 0446     		mov	r4, r0
  95              		.loc 1 227 0
  96 0008 00D0     		beq	.L8
  97 000a 10BD     		pop	{r4, pc}
  98              	.L8:
  99              		.loc 1 229 0
 100 000c 104B     		ldr	r3, .L10
 101 000e 9842     		cmp	r0, r3
 102 0010 0DD0     		beq	.L9
 103              	.LVL3:
 104              	.L6:
 105              		.loc 1 269 0
 106 0012 1049     		ldr	r1, .L10+4
 107              		.loc 1 274 0
 108 0014 A36A     		ldr	r3, [r4, #40]
 109              		.loc 1 269 0
 110 0016 4C68     		ldr	r4, [r1, #4]
 111              	.LVL4:
 112 0018 04F44004 		and	r4, r4, #12582912
ARM GAS  /tmp/ccMMbLfz.s 			page 3


 113              		.loc 1 274 0
 114 001c 0022     		movs	r2, #0
 115              		.loc 1 269 0
 116 001e 44F48034 		orr	r4, r4, #65536
 117              		.loc 1 276 0
 118 0022 0120     		movs	r0, #1
 119              		.loc 1 269 0
 120 0024 4C60     		str	r4, [r1, #4]
 121              		.loc 1 274 0
 122 0026 5A60     		str	r2, [r3, #4]
 123              		.loc 1 275 0
 124 0028 9A60     		str	r2, [r3, #8]
 125              		.loc 1 276 0
 126 002a 9860     		str	r0, [r3, #8]
 127 002c 10BD     		pop	{r4, pc}
 128              	.LVL5:
 129              	.L9:
 130              	.LBB2:
 131              		.loc 1 231 0
 132 002e 0A4A     		ldr	r2, .L10+8
 133 0030 C06A     		ldr	r0, [r0, #44]
 134              	.LVL6:
 135 0032 0621     		movs	r1, #6
 136 0034 2346     		mov	r3, r4
 137 0036 FFF7FEFF 		bl	dmaStreamAllocate
 138              	.LVL7:
 139              		.loc 1 236 0
 140 003a E36A     		ldr	r3, [r4, #44]
 141 003c 0749     		ldr	r1, .L10+12
 142 003e 1A68     		ldr	r2, [r3]
 143              		.loc 1 237 0
 144 0040 074B     		ldr	r3, .L10+16
 145              		.loc 1 236 0
 146 0042 9160     		str	r1, [r2, #8]
 147              		.loc 1 237 0
 148 0044 5A6C     		ldr	r2, [r3, #68]
 149 0046 42F48072 		orr	r2, r2, #256
 150 004a 5A64     		str	r2, [r3, #68]
 151 004c E1E7     		b	.L6
 152              	.L11:
 153 004e 00BF     		.align	2
 154              	.L10:
 155 0050 00000000 		.word	.LANCHOR0
 156 0054 00230140 		.word	1073816320
 157 0058 00000000 		.word	adc_lld_serve_rx_interrupt
 158 005c 4C200140 		.word	1073815628
 159 0060 00380240 		.word	1073887232
 160              	.LBE2:
 161              		.cfi_endproc
 162              	.LFE121:
 163              		.size	adc_lld_start, .-adc_lld_start
 164 0064 AFF30080 		.section	.text.adc_lld_stop,"ax",%progbits
 164      AFF30080 
 164      AFF30080 
 165              		.align	2
 166              		.p2align 4,,15
 167              		.global	adc_lld_stop
ARM GAS  /tmp/ccMMbLfz.s 			page 4


 168              		.thumb
 169              		.thumb_func
 170              		.type	adc_lld_stop, %function
 171              	adc_lld_stop:
 172              	.LFB122:
 173              		.loc 1 287 0
 174              		.cfi_startproc
 175              		@ args = 0, pretend = 0, frame = 0
 176              		@ frame_needed = 0, uses_anonymous_args = 0
 177              	.LVL8:
 178              		.loc 1 290 0
 179 0000 0378     		ldrb	r3, [r0]	@ zero_extendqisi2
 180 0002 022B     		cmp	r3, #2
 181              		.loc 1 287 0
 182 0004 10B5     		push	{r4, lr}
 183              		.cfi_def_cfa_offset 8
 184              		.cfi_offset 4, -8
 185              		.cfi_offset 14, -4
 186              		.loc 1 287 0
 187 0006 0446     		mov	r4, r0
 188              		.loc 1 290 0
 189 0008 00D0     		beq	.L16
 190              	.LVL9:
 191              	.L12:
 192 000a 10BD     		pop	{r4, pc}
 193              	.LVL10:
 194              	.L16:
 195              		.loc 1 291 0
 196 000c C06A     		ldr	r0, [r0, #44]
 197              	.LVL11:
 198 000e FFF7FEFF 		bl	dmaStreamRelease
 199              	.LVL12:
 200              		.loc 1 296 0
 201 0012 0649     		ldr	r1, .L17
 202              		.loc 1 292 0
 203 0014 A36A     		ldr	r3, [r4, #40]
 204 0016 0022     		movs	r2, #0
 205              		.loc 1 296 0
 206 0018 8C42     		cmp	r4, r1
 207              		.loc 1 292 0
 208 001a 5A60     		str	r2, [r3, #4]
 209              		.loc 1 293 0
 210 001c 9A60     		str	r2, [r3, #8]
 211              		.loc 1 296 0
 212 001e F4D1     		bne	.L12
 213              		.loc 1 297 0
 214 0020 034B     		ldr	r3, .L17+4
 215 0022 5A6C     		ldr	r2, [r3, #68]
 216 0024 22F48072 		bic	r2, r2, #256
 217 0028 5A64     		str	r2, [r3, #68]
 218 002a EEE7     		b	.L12
 219              	.L18:
 220              		.align	2
 221              	.L17:
 222 002c 00000000 		.word	.LANCHOR0
 223 0030 00380240 		.word	1073887232
 224              		.cfi_endproc
ARM GAS  /tmp/ccMMbLfz.s 			page 5


 225              	.LFE122:
 226              		.size	adc_lld_stop, .-adc_lld_stop
 227 0034 AFF30080 		.section	.text.adc_lld_start_conversion,"ax",%progbits
 227      AFF30080 
 227      AFF30080 
 228              		.align	2
 229              		.p2align 4,,15
 230              		.global	adc_lld_start_conversion
 231              		.thumb
 232              		.thumb_func
 233              		.type	adc_lld_start_conversion, %function
 234              	adc_lld_start_conversion:
 235              	.LFB123:
 236              		.loc 1 319 0
 237              		.cfi_startproc
 238              		@ args = 0, pretend = 0, frame = 0
 239              		@ frame_needed = 0, uses_anonymous_args = 0
 240              		@ link register save eliminated.
 241              	.LVL13:
 242              		.loc 1 321 0
 243 0000 0369     		ldr	r3, [r0, #16]
 244              	.LVL14:
 245              		.loc 1 324 0
 246 0002 026B     		ldr	r2, [r0, #48]
 247              	.LVL15:
 248              		.loc 1 325 0
 249 0004 1978     		ldrb	r1, [r3]	@ zero_extendqisi2
 250              		.loc 1 319 0
 251 0006 2DE9F003 		push	{r4, r5, r6, r7, r8, r9}
 252              		.cfi_def_cfa_offset 24
 253              		.cfi_offset 4, -24
 254              		.cfi_offset 5, -20
 255              		.cfi_offset 6, -16
 256              		.cfi_offset 7, -12
 257              		.cfi_offset 8, -8
 258              		.cfi_offset 9, -4
 259              		.loc 1 327 0
 260 000a C468     		ldr	r4, [r0, #12]
 261              		.loc 1 325 0
 262 000c 29B1     		cbz	r1, .L21
 263              	.LVL16:
 264              		.loc 1 327 0
 265 000e 012C     		cmp	r4, #1
 266              		.loc 1 326 0
 267 0010 94BF     		ite	ls
 268 0012 42F48072 		orrls	r2, r2, #256
 269              	.LVL17:
 270              		.loc 1 330 0
 271 0016 42F48472 		orrhi	r2, r2, #264
 272              	.LVL18:
 273              	.L21:
 274              		.loc 1 333 0
 275 001a C16A     		ldr	r1, [r0, #44]
 276              		.loc 1 334 0
 277 001c 5E88     		ldrh	r6, [r3, #2]
 278              		.loc 1 333 0
 279 001e 0968     		ldr	r1, [r1]
ARM GAS  /tmp/ccMMbLfz.s 			page 6


 280 0020 8568     		ldr	r5, [r0, #8]
 281 0022 CD60     		str	r5, [r1, #12]
 282              		.loc 1 334 0
 283 0024 06FB04F4 		mul	r4, r6, r4
 284 0028 4C60     		str	r4, [r1, #4]
 285              		.loc 1 349 0
 286 002a D3F80C80 		ldr	r8, [r3, #12]
 287              		.loc 1 336 0
 288 002e 0A60     		str	r2, [r1]
 289              		.loc 1 340 0
 290 0030 826A     		ldr	r2, [r0, #40]
 291              	.LVL19:
 292              		.loc 1 350 0
 293 0032 1869     		ldr	r0, [r3, #16]
 294              	.LVL20:
 295              		.loc 1 337 0
 296 0034 D1F80090 		ldr	r9, [r1]
 297              		.loc 1 342 0
 298 0038 9F69     		ldr	r7, [r3, #24]
 299              		.loc 1 343 0
 300 003a DE69     		ldr	r6, [r3, #28]
 301              		.loc 1 344 0
 302 003c 1D6A     		ldr	r5, [r3, #32]
 303              		.loc 1 345 0
 304 003e 5C6A     		ldr	r4, [r3, #36]
 305              		.loc 1 341 0
 306 0040 D3F814C0 		ldr	ip, [r3, #20]
 307              		.loc 1 350 0
 308 0044 10F0804F 		tst	r0, #1073741824
 309              		.loc 1 349 0
 310 0048 48F08063 		orr	r3, r8, #67108864
 311              	.LVL21:
 312              		.loc 1 352 0
 313 004c 40F44070 		orr	r0, r0, #768
 314              		.loc 1 337 0
 315 0050 49F00109 		orr	r9, r9, #1
 316              		.loc 1 340 0
 317 0054 4FF00008 		mov	r8, #0
 318              		.loc 1 349 0
 319 0058 43F48073 		orr	r3, r3, #256
 320              		.loc 1 352 0
 321 005c 14BF     		ite	ne
 322 005e 40F00300 		orrne	r0, r0, #3
 323              		.loc 1 355 0
 324 0062 40F00100 		orreq	r0, r0, #1
 325              		.loc 1 337 0
 326 0066 C1F80090 		str	r9, [r1]
 327              	.LVL22:
 328              		.loc 1 340 0
 329 006a C2F80080 		str	r8, [r2]
 330              		.loc 1 341 0
 331 006e C2F80CC0 		str	ip, [r2, #12]
 332              		.loc 1 342 0
 333 0072 1761     		str	r7, [r2, #16]
 334              		.loc 1 343 0
 335 0074 D662     		str	r6, [r2, #44]
 336              		.loc 1 344 0
ARM GAS  /tmp/ccMMbLfz.s 			page 7


 337 0076 1563     		str	r5, [r2, #48]
 338              		.loc 1 345 0
 339 0078 5463     		str	r4, [r2, #52]
 340              		.loc 1 349 0
 341 007a 5360     		str	r3, [r2, #4]
 342              		.loc 1 356 0
 343 007c BDE8F003 		pop	{r4, r5, r6, r7, r8, r9}
 344              		.loc 1 354 0
 345 0080 9060     		str	r0, [r2, #8]
 346              		.loc 1 356 0
 347 0082 7047     		bx	lr
 348              		.cfi_endproc
 349              	.LFE123:
 350              		.size	adc_lld_start_conversion, .-adc_lld_start_conversion
 351 0084 AFF30080 		.section	.text.adc_lld_stop_conversion,"ax",%progbits
 351      AFF30080 
 351      AFF30080 
 352              		.align	2
 353              		.p2align 4,,15
 354              		.global	adc_lld_stop_conversion
 355              		.thumb
 356              		.thumb_func
 357              		.type	adc_lld_stop_conversion, %function
 358              	adc_lld_stop_conversion:
 359              	.LFB124:
 360              		.loc 1 365 0
 361              		.cfi_startproc
 362              		@ args = 0, pretend = 0, frame = 0
 363              		@ frame_needed = 0, uses_anonymous_args = 0
 364              		@ link register save eliminated.
 365              	.LVL23:
 366              		.loc 1 367 0
 367 0000 C16A     		ldr	r1, [r0, #44]
 368 0002 0A68     		ldr	r2, [r1]
 369 0004 1368     		ldr	r3, [r2]
 370 0006 23F01F03 		bic	r3, r3, #31
 371              		.loc 1 365 0
 372 000a 10B4     		push	{r4}
 373              		.cfi_def_cfa_offset 4
 374              		.cfi_offset 4, -4
 375              		.loc 1 367 0
 376 000c 1360     		str	r3, [r2]
 377              	.L27:
 378              		.loc 1 367 0 is_stmt 0 discriminator 1
 379 000e 1368     		ldr	r3, [r2]
 380 0010 13F00103 		ands	r3, r3, #1
 381 0014 FBD1     		bne	.L27
 382              		.loc 1 367 0 discriminator 2
 383 0016 0C7A     		ldrb	r4, [r1, #8]	@ zero_extendqisi2
 384              		.loc 1 368 0 is_stmt 1 discriminator 2
 385 0018 826A     		ldr	r2, [r0, #40]
 386              		.loc 1 367 0 discriminator 2
 387 001a 4868     		ldr	r0, [r1, #4]
 388              	.LVL24:
 389 001c 3D21     		movs	r1, #61
 390 001e 01FA04F4 		lsl	r4, r1, r4
 391              		.loc 1 370 0 discriminator 2
ARM GAS  /tmp/ccMMbLfz.s 			page 8


 392 0022 0121     		movs	r1, #1
 393              		.loc 1 367 0 discriminator 2
 394 0024 0460     		str	r4, [r0]
 395              		.loc 1 368 0 discriminator 2
 396 0026 5360     		str	r3, [r2, #4]
 397              		.loc 1 371 0 discriminator 2
 398 0028 5DF8044B 		ldr	r4, [sp], #4
 399              		.loc 1 369 0 discriminator 2
 400 002c 9360     		str	r3, [r2, #8]
 401              		.loc 1 370 0 discriminator 2
 402 002e 9160     		str	r1, [r2, #8]
 403              		.loc 1 371 0 discriminator 2
 404 0030 7047     		bx	lr
 405              		.cfi_endproc
 406              	.LFE124:
 407              		.size	adc_lld_stop_conversion, .-adc_lld_stop_conversion
 408 0032 00BFAFF3 		.section	.text.Vector88,"ax",%progbits
 408      0080AFF3 
 408      0080AFF3 
 408      0080
 409              		.align	2
 410              		.p2align 4,,15
 411              		.global	Vector88
 412              		.thumb
 413              		.thumb_func
 414              		.type	Vector88, %function
 415              	Vector88:
 416              	.LFB119:
 417              		.loc 1 111 0
 418              		.cfi_startproc
 419              		@ args = 0, pretend = 0, frame = 0
 420              		@ frame_needed = 0, uses_anonymous_args = 0
 421              		.loc 1 117 0
 422 0000 194B     		ldr	r3, .L46
 423 0002 1A68     		ldr	r2, [r3]
 424              	.LVL25:
 425              		.loc 1 118 0
 426 0004 0021     		movs	r1, #0
 427              		.loc 1 111 0
 428 0006 10B5     		push	{r4, lr}
 429              		.cfi_def_cfa_offset 8
 430              		.cfi_offset 4, -8
 431              		.cfi_offset 14, -4
 432              		.loc 1 118 0
 433 0008 1960     		str	r1, [r3]
 434              		.loc 1 121 0
 435 000a 9306     		lsls	r3, r2, #26
 436 000c 27D5     		bpl	.L29
 437              		.loc 1 121 0 is_stmt 0 discriminator 1
 438 000e 174C     		ldr	r4, .L46+4
 439 0010 E36A     		ldr	r3, [r4, #44]
 440 0012 1B68     		ldr	r3, [r3]
 441 0014 5B68     		ldr	r3, [r3, #4]
 442 0016 13B3     		cbz	r3, .L29
 443              		.loc 1 124 0 is_stmt 1
 444 0018 2369     		ldr	r3, [r4, #16]
 445 001a 03B3     		cbz	r3, .L29
ARM GAS  /tmp/ccMMbLfz.s 			page 9


 446              		.loc 1 125 0
 447 001c 2046     		mov	r0, r4
 448 001e FFF7FEFF 		bl	adc_lld_stop_conversion
 449              	.LVL26:
 450 0022 2369     		ldr	r3, [r4, #16]
 451 0024 9B68     		ldr	r3, [r3, #8]
 452 0026 4BB1     		cbz	r3, .L31
 453              		.loc 1 125 0 is_stmt 0 discriminator 1
 454 0028 0522     		movs	r2, #5
 455 002a 2270     		strb	r2, [r4]
 456 002c 2046     		mov	r0, r4
 457 002e 0121     		movs	r1, #1
 458 0030 9847     		blx	r3
 459              	.LVL27:
 460 0032 2378     		ldrb	r3, [r4]	@ zero_extendqisi2
 461 0034 052B     		cmp	r3, #5
 462 0036 04BF     		itt	eq
 463 0038 0223     		moveq	r3, #2
 464 003a 2370     		strbeq	r3, [r4]
 465              	.L31:
 466              		.loc 1 125 0 discriminator 2
 467 003c 0022     		movs	r2, #0
 468 003e 2261     		str	r2, [r4, #16]
 469 0040 0A49     		ldr	r1, .L46+4
 470              	.LBB3:
 471 0042 2023     		movs	r3, #32
 472              	@ 125 "/home/marco/SoftwareProjects/st-usb/f9xx/firmware/ext/ChibiOS-RT/os/hal/platforms/STM32F4xx/
 473 0044 83F31188 		msr     BASEPRI, r3
 474              	@ 0 "" 2
 475              		.thumb
 476              	.LBE3:
 477 0048 6069     		ldr	r0, [r4, #20]
 478 004a 28B1     		cbz	r0, .L33
 479              	.LVL28:
 480              	.LBB4:
 481              		.loc 1 125 0 discriminator 1
 482 004c 4FF0FF33 		mov	r3, #-1
 483 0050 4362     		str	r3, [r0, #36]
 484 0052 4A61     		str	r2, [r1, #20]
 485 0054 FFF7FEFF 		bl	chSchReadyI
 486              	.LVL29:
 487              	.L33:
 488              	.LBE4:
 489              	.LBB5:
 490              		.loc 1 125 0 discriminator 2
 491 0058 0023     		movs	r3, #0
 492              	@ 125 "/home/marco/SoftwareProjects/st-usb/f9xx/firmware/ext/ChibiOS-RT/os/hal/platforms/STM32F4xx/
 493 005a 83F31188 		msr     BASEPRI, r3
 494              	@ 0 "" 2
 495              		.thumb
 496              	.L29:
 497              	.LBE5:
 498              		.loc 1 159 0 is_stmt 1
 499 005e BDE81040 		pop	{r4, lr}
 500              		.loc 1 158 0
 501 0062 FFF7FEBF 		b	_port_irq_epilogue
 502              	.LVL30:
ARM GAS  /tmp/ccMMbLfz.s 			page 10


 503              	.L47:
 504 0066 00BF     		.align	2
 505              	.L46:
 506 0068 00200140 		.word	1073815552
 507 006c 00000000 		.word	.LANCHOR0
 508              		.cfi_endproc
 509              	.LFE119:
 510              		.size	Vector88, .-Vector88
 511              		.section	.text.adc_lld_serve_rx_interrupt,"ax",%progbits
 512              		.align	2
 513              		.p2align 4,,15
 514              		.thumb
 515              		.thumb_func
 516              		.type	adc_lld_serve_rx_interrupt, %function
 517              	adc_lld_serve_rx_interrupt:
 518              	.LFB118:
 519              		.loc 1 76 0
 520              		.cfi_startproc
 521              		@ args = 0, pretend = 0, frame = 0
 522              		@ frame_needed = 0, uses_anonymous_args = 0
 523              	.LVL31:
 524              		.loc 1 79 0
 525 0000 11F00C0F 		tst	r1, #12
 526              		.loc 1 76 0
 527 0004 38B5     		push	{r3, r4, r5, lr}
 528              		.cfi_def_cfa_offset 16
 529              		.cfi_offset 3, -16
 530              		.cfi_offset 4, -12
 531              		.cfi_offset 5, -8
 532              		.cfi_offset 14, -4
 533              		.loc 1 76 0
 534 0006 0446     		mov	r4, r0
 535              		.loc 1 79 0
 536 0008 1DD1     		bne	.L79
 537              		.loc 1 87 0
 538 000a 0369     		ldr	r3, [r0, #16]
 539 000c D3B1     		cbz	r3, .L48
 540              		.loc 1 88 0
 541 000e 8D06     		lsls	r5, r1, #26
 542 0010 10D5     		bpl	.L55
 543              		.loc 1 90 0
 544 0012 1D78     		ldrb	r5, [r3]	@ zero_extendqisi2
 545 0014 002D     		cmp	r5, #0
 546 0016 3AD0     		beq	.L56
 547              		.loc 1 90 0 is_stmt 0 discriminator 1
 548 0018 5D68     		ldr	r5, [r3, #4]
 549 001a 9DB1     		cbz	r5, .L48
 550 001c C268     		ldr	r2, [r0, #12]
 551 001e 012A     		cmp	r2, #1
 552 0020 32D9     		bls	.L57
 553              	.LBB6:
 554 0022 5988     		ldrh	r1, [r3, #2]
 555              	.LVL32:
 556 0024 8368     		ldr	r3, [r0, #8]
 557 0026 5208     		lsrs	r2, r2, #1
 558              	.LVL33:
 559 0028 01FB02F1 		mul	r1, r1, r2
ARM GAS  /tmp/ccMMbLfz.s 			page 11


 560 002c 03EB4101 		add	r1, r3, r1, lsl #1
 561 0030 A847     		blx	r5
 562              	.LVL34:
 563              	.LBE6:
 564 0032 38BD     		pop	{r3, r4, r5, pc}
 565              	.LVL35:
 566              	.L55:
 567              		.loc 1 92 0 is_stmt 1
 568 0034 CA06     		lsls	r2, r1, #27
 569 0036 05D5     		bpl	.L48
 570              		.loc 1 94 0
 571 0038 5B68     		ldr	r3, [r3, #4]
 572 003a 1BB1     		cbz	r3, .L48
 573              		.loc 1 94 0 is_stmt 0 discriminator 1
 574 003c C268     		ldr	r2, [r0, #12]
 575 003e 8168     		ldr	r1, [r0, #8]
 576              	.LVL36:
 577 0040 5208     		lsrs	r2, r2, #1
 578 0042 9847     		blx	r3
 579              	.LVL37:
 580              	.L48:
 581 0044 38BD     		pop	{r3, r4, r5, pc}
 582              	.LVL38:
 583              	.L79:
 584              		.loc 1 82 0 is_stmt 1
 585 0046 FFF7FEFF 		bl	adc_lld_stop_conversion
 586              	.LVL39:
 587 004a 2369     		ldr	r3, [r4, #16]
 588 004c 9B68     		ldr	r3, [r3, #8]
 589 004e 4BB1     		cbz	r3, .L51
 590              		.loc 1 82 0 is_stmt 0 discriminator 1
 591 0050 0522     		movs	r2, #5
 592 0052 2270     		strb	r2, [r4]
 593 0054 2046     		mov	r0, r4
 594 0056 0021     		movs	r1, #0
 595 0058 9847     		blx	r3
 596              	.LVL40:
 597 005a 2378     		ldrb	r3, [r4]	@ zero_extendqisi2
 598 005c 052B     		cmp	r3, #5
 599 005e 04BF     		itt	eq
 600 0060 0223     		moveq	r3, #2
 601 0062 2370     		strbeq	r3, [r4]
 602              	.L51:
 603              		.loc 1 82 0 discriminator 2
 604 0064 0022     		movs	r2, #0
 605 0066 2261     		str	r2, [r4, #16]
 606              	.LBB7:
 607 0068 2023     		movs	r3, #32
 608              	@ 82 "/home/marco/SoftwareProjects/st-usb/f9xx/firmware/ext/ChibiOS-RT/os/hal/platforms/STM32F4xx/a
 609 006a 83F31188 		msr     BASEPRI, r3
 610              	@ 0 "" 2
 611              		.thumb
 612              	.LBE7:
 613 006e 6369     		ldr	r3, [r4, #20]
 614 0070 33B1     		cbz	r3, .L60
 615              	.LVL41:
 616              	.LBB8:
ARM GAS  /tmp/ccMMbLfz.s 			page 12


 617              		.loc 1 82 0 discriminator 1
 618 0072 4FF0FF31 		mov	r1, #-1
 619 0076 6261     		str	r2, [r4, #20]
 620 0078 1846     		mov	r0, r3
 621 007a 5962     		str	r1, [r3, #36]
 622 007c FFF7FEFF 		bl	chSchReadyI
 623              	.LVL42:
 624              	.L60:
 625              	.LBE8:
 626              	.LBB9:
 627              		.loc 1 90 0 is_stmt 1 discriminator 2
 628 0080 0023     		movs	r3, #0
 629              	@ 90 "/home/marco/SoftwareProjects/st-usb/f9xx/firmware/ext/ChibiOS-RT/os/hal/platforms/STM32F4xx/a
 630 0082 83F31188 		msr     BASEPRI, r3
 631              	@ 0 "" 2
 632              		.thumb
 633 0086 38BD     		pop	{r3, r4, r5, pc}
 634              	.LVL43:
 635              	.L57:
 636              	.LBE9:
 637 0088 8168     		ldr	r1, [r0, #8]
 638              	.LVL44:
 639 008a A847     		blx	r5
 640              	.LVL45:
 641 008c 38BD     		pop	{r3, r4, r5, pc}
 642              	.LVL46:
 643              	.L56:
 644 008e FFF7FEFF 		bl	adc_lld_stop_conversion
 645              	.LVL47:
 646 0092 2369     		ldr	r3, [r4, #16]
 647 0094 5B68     		ldr	r3, [r3, #4]
 648 0096 CBB1     		cbz	r3, .L58
 649              		.loc 1 90 0 is_stmt 0 discriminator 1
 650 0098 0422     		movs	r2, #4
 651 009a 2270     		strb	r2, [r4]
 652 009c 2046     		mov	r0, r4
 653 009e A168     		ldr	r1, [r4, #8]
 654 00a0 E268     		ldr	r2, [r4, #12]
 655 00a2 9847     		blx	r3
 656              	.LVL48:
 657 00a4 2378     		ldrb	r3, [r4]	@ zero_extendqisi2
 658 00a6 042B     		cmp	r3, #4
 659 00a8 0CD0     		beq	.L80
 660              	.L59:
 661              	.LBB10:
 662 00aa 2023     		movs	r3, #32
 663              	@ 90 "/home/marco/SoftwareProjects/st-usb/f9xx/firmware/ext/ChibiOS-RT/os/hal/platforms/STM32F4xx/a
 664 00ac 83F31188 		msr     BASEPRI, r3
 665              	@ 0 "" 2
 666              		.thumb
 667              	.LBE10:
 668 00b0 6369     		ldr	r3, [r4, #20]
 669 00b2 002B     		cmp	r3, #0
 670 00b4 E4D0     		beq	.L60
 671              	.LVL49:
 672              	.LBB11:
 673 00b6 0022     		movs	r2, #0
ARM GAS  /tmp/ccMMbLfz.s 			page 13


 674 00b8 6261     		str	r2, [r4, #20]
 675 00ba 1846     		mov	r0, r3
 676 00bc 5A62     		str	r2, [r3, #36]
 677 00be FFF7FEFF 		bl	chSchReadyI
 678              	.LVL50:
 679 00c2 DDE7     		b	.L60
 680              	.L80:
 681              	.LBE11:
 682 00c4 0223     		movs	r3, #2
 683 00c6 2561     		str	r5, [r4, #16]
 684 00c8 2370     		strb	r3, [r4]
 685 00ca EEE7     		b	.L59
 686              	.L58:
 687              		.loc 1 90 0 discriminator 2
 688 00cc 0222     		movs	r2, #2
 689 00ce 2361     		str	r3, [r4, #16]
 690 00d0 2270     		strb	r2, [r4]
 691 00d2 EAE7     		b	.L59
 692              		.cfi_endproc
 693              	.LFE118:
 694              		.size	adc_lld_serve_rx_interrupt, .-adc_lld_serve_rx_interrupt
 695 00d4 AFF30080 		.section	.text.adcSTM32EnableTSVREFE,"ax",%progbits
 695      AFF30080 
 695      AFF30080 
 696              		.align	2
 697              		.p2align 4,,15
 698              		.global	adcSTM32EnableTSVREFE
 699              		.thumb
 700              		.thumb_func
 701              		.type	adcSTM32EnableTSVREFE, %function
 702              	adcSTM32EnableTSVREFE:
 703              	.LFB125:
 704              		.loc 1 379 0 is_stmt 1
 705              		.cfi_startproc
 706              		@ args = 0, pretend = 0, frame = 0
 707              		@ frame_needed = 0, uses_anonymous_args = 0
 708              		@ link register save eliminated.
 709              		.loc 1 381 0
 710 0000 024B     		ldr	r3, .L82
 711 0002 5A68     		ldr	r2, [r3, #4]
 712 0004 42F40002 		orr	r2, r2, #8388608
 713 0008 5A60     		str	r2, [r3, #4]
 714 000a 7047     		bx	lr
 715              	.L83:
 716              		.align	2
 717              	.L82:
 718 000c 00230140 		.word	1073816320
 719              		.cfi_endproc
 720              	.LFE125:
 721              		.size	adcSTM32EnableTSVREFE, .-adcSTM32EnableTSVREFE
 722              		.section	.text.adcSTM32DisableTSVREFE,"ax",%progbits
 723              		.align	2
 724              		.p2align 4,,15
 725              		.global	adcSTM32DisableTSVREFE
 726              		.thumb
 727              		.thumb_func
 728              		.type	adcSTM32DisableTSVREFE, %function
ARM GAS  /tmp/ccMMbLfz.s 			page 14


 729              	adcSTM32DisableTSVREFE:
 730              	.LFB126:
 731              		.loc 1 390 0
 732              		.cfi_startproc
 733              		@ args = 0, pretend = 0, frame = 0
 734              		@ frame_needed = 0, uses_anonymous_args = 0
 735              		@ link register save eliminated.
 736              		.loc 1 392 0
 737 0000 024B     		ldr	r3, .L85
 738 0002 5A68     		ldr	r2, [r3, #4]
 739 0004 22F40002 		bic	r2, r2, #8388608
 740 0008 5A60     		str	r2, [r3, #4]
 741 000a 7047     		bx	lr
 742              	.L86:
 743              		.align	2
 744              	.L85:
 745 000c 00230140 		.word	1073816320
 746              		.cfi_endproc
 747              	.LFE126:
 748              		.size	adcSTM32DisableTSVREFE, .-adcSTM32DisableTSVREFE
 749              		.section	.text.adcSTM32EnableVBATE,"ax",%progbits
 750              		.align	2
 751              		.p2align 4,,15
 752              		.global	adcSTM32EnableVBATE
 753              		.thumb
 754              		.thumb_func
 755              		.type	adcSTM32EnableVBATE, %function
 756              	adcSTM32EnableVBATE:
 757              	.LFB127:
 758              		.loc 1 401 0
 759              		.cfi_startproc
 760              		@ args = 0, pretend = 0, frame = 0
 761              		@ frame_needed = 0, uses_anonymous_args = 0
 762              		@ link register save eliminated.
 763              		.loc 1 403 0
 764 0000 024B     		ldr	r3, .L88
 765 0002 5A68     		ldr	r2, [r3, #4]
 766 0004 42F48002 		orr	r2, r2, #4194304
 767 0008 5A60     		str	r2, [r3, #4]
 768 000a 7047     		bx	lr
 769              	.L89:
 770              		.align	2
 771              	.L88:
 772 000c 00230140 		.word	1073816320
 773              		.cfi_endproc
 774              	.LFE127:
 775              		.size	adcSTM32EnableVBATE, .-adcSTM32EnableVBATE
 776              		.section	.text.adcSTM32DisableVBATE,"ax",%progbits
 777              		.align	2
 778              		.p2align 4,,15
 779              		.global	adcSTM32DisableVBATE
 780              		.thumb
 781              		.thumb_func
 782              		.type	adcSTM32DisableVBATE, %function
 783              	adcSTM32DisableVBATE:
 784              	.LFB128:
 785              		.loc 1 412 0
ARM GAS  /tmp/ccMMbLfz.s 			page 15


 786              		.cfi_startproc
 787              		@ args = 0, pretend = 0, frame = 0
 788              		@ frame_needed = 0, uses_anonymous_args = 0
 789              		@ link register save eliminated.
 790              		.loc 1 414 0
 791 0000 024B     		ldr	r3, .L91
 792 0002 5A68     		ldr	r2, [r3, #4]
 793 0004 22F48002 		bic	r2, r2, #4194304
 794 0008 5A60     		str	r2, [r3, #4]
 795 000a 7047     		bx	lr
 796              	.L92:
 797              		.align	2
 798              	.L91:
 799 000c 00230140 		.word	1073816320
 800              		.cfi_endproc
 801              	.LFE128:
 802              		.size	adcSTM32DisableVBATE, .-adcSTM32DisableVBATE
 803              		.global	ADCD1
 804              		.section	.bss.ADCD1,"aw",%nobits
 805              		.align	2
 806              		.set	.LANCHOR0,. + 0
 807              		.type	ADCD1, %object
 808              		.size	ADCD1, 52
 809              	ADCD1:
 810 0000 00000000 		.space	52
 810      00000000 
 810      00000000 
 810      00000000 
 810      00000000 
 811              		.text
 812              	.Letext0:
 813              		.file 2 "/home/marco/SoftwareProjects/st-usb/tools/gcc-arm-none-eabi-4_8-2014q2/lib/gcc/arm-none-e
 814              		.file 3 "/home/marco/SoftwareProjects/st-usb/tools/gcc-arm-none-eabi-4_8-2014q2/arm-none-eabi/incl
 815              		.file 4 "/home/marco/SoftwareProjects/st-usb/tools/gcc-arm-none-eabi-4_8-2014q2/arm-none-eabi/incl
 816              		.file 5 "/home/marco/SoftwareProjects/st-usb/f9xx/firmware/ext/ChibiOS-RT/os/ports/GCC/ARMCMx/chty
 817              		.file 6 "/home/marco/SoftwareProjects/st-usb/f9xx/firmware/ext/ChibiOS-RT/os/kernel/include/chlist
 818              		.file 7 "/home/marco/SoftwareProjects/st-usb/f9xx/firmware/ext/ChibiOS-RT/os/kernel/include/chthre
 819              		.file 8 "/home/marco/SoftwareProjects/st-usb/f9xx/firmware/ext/ChibiOS-RT/os/ports/GCC/ARMCMx/chco
 820              		.file 9 "/home/marco/SoftwareProjects/st-usb/f9xx/firmware/ext/ChibiOS-RT/os/kernel/include/chmtx.
 821              		.file 10 "/home/marco/SoftwareProjects/st-usb/f9xx/firmware/ext/ChibiOS-RT/os/hal/platforms/STM32F
 822              		.file 11 "/home/marco/SoftwareProjects/st-usb/f9xx/firmware/ext/ChibiOS-RT/os/hal/platforms/STM32F
 823              		.file 12 "/home/marco/SoftwareProjects/st-usb/f9xx/firmware/ext/ChibiOS-RT/os/hal/include/adc.h"
 824              		.file 13 "/home/marco/SoftwareProjects/st-usb/f9xx/firmware/ext/ChibiOS-RT/os/hal/platforms/STM32F
 825              		.file 14 "/home/marco/SoftwareProjects/st-usb/f9xx/firmware/ext/ChibiOS-RT/os/ports/common/ARMCMx/
 826              		.file 15 "/home/marco/SoftwareProjects/st-usb/f9xx/firmware/ext/ChibiOS-RT/os/ports/common/ARMCMx/
 827              		.file 16 "/home/marco/SoftwareProjects/st-usb/f9xx/firmware/ext/ChibiOS-RT/os/kernel/include/chsch