ARM GAS  /tmp/cc0JeQDE.s 			page 1


   1              		.syntax unified
   2              		.cpu cortex-m4
   3              		.fpu softvfp
   4              		.eabi_attribute 20, 1
   5              		.eabi_attribute 21, 1
   6              		.eabi_attribute 23, 3
   7              		.eabi_attribute 24, 1
   8              		.eabi_attribute 25, 1
   9              		.eabi_attribute 26, 1
  10              		.eabi_attribute 30, 2
  11              		.eabi_attribute 34, 1
  12              		.eabi_attribute 18, 4
  13              		.thumb
  14              		.file	"can_lld.c"
  15              		.text
  16              	.Ltext0:
  17              		.cfi_sections	.debug_frame
  18              		.section	.text.can_lld_set_filters,"ax",%progbits
  19              		.align	2
  20              		.p2align 4,,15
  21              		.thumb
  22              		.thumb_func
  23              		.type	can_lld_set_filters, %function
  24              	can_lld_set_filters:
  25              	.LFB118:
  26              		.file 1 "/home/marco/SoftwareProjects/st-usb/f9xx/firmware/ext/ChibiOS-RT/os/hal/platforms/STM32/c
  27              		.loc 1 69 0
  28              		.cfi_startproc
  29              		@ args = 0, pretend = 0, frame = 0
  30              		@ frame_needed = 0, uses_anonymous_args = 0
  31              		@ link register save eliminated.
  32              	.LVL0:
  33 0000 F0B4     		push	{r4, r5, r6, r7}
  34              		.cfi_def_cfa_offset 16
  35              		.cfi_offset 4, -16
  36              		.cfi_offset 5, -12
  37              		.cfi_offset 6, -8
  38              		.cfi_offset 7, -4
  39              		.loc 1 72 0
  40 0002 444C     		ldr	r4, .L22
  41              		.loc 1 75 0
  42 0004 444B     		ldr	r3, .L22+4
  43              		.loc 1 72 0
  44 0006 256C     		ldr	r5, [r4, #64]
  45 0008 45F00075 		orr	r5, r5, #33554432
  46 000c 2564     		str	r5, [r4, #64]
  47              		.loc 1 75 0
  48 000e D3F80042 		ldr	r4, [r3, #512]
  49 0012 240C     		lsrs	r4, r4, #16
  50 0014 2404     		lsls	r4, r4, #16
  51 0016 44F00104 		orr	r4, r4, #1
  52 001a 44EA0024 		orr	r4, r4, r0, lsl #8
  53 001e C3F80042 		str	r4, [r3, #512]
  54              		.loc 1 76 0
  55 0022 0029     		cmp	r1, #0
  56 0024 5BD0     		beq	.L2
  57              	.LBB15:
ARM GAS  /tmp/cc0JeQDE.s 			page 2


  58              		.loc 1 80 0
  59 0026 0025     		movs	r5, #0
  60 0028 C3F81C52 		str	r5, [r3, #540]
  61              		.loc 1 84 0
  62 002c 2846     		mov	r0, r5
  63              	.LVL1:
  64              		.loc 1 81 0
  65 002e C3F80452 		str	r5, [r3, #516]
  66              		.loc 1 85 0
  67 0032 2C46     		mov	r4, r5
  68              		.loc 1 82 0
  69 0034 C3F80C52 		str	r5, [r3, #524]
  70              		.loc 1 83 0
  71 0038 C3F81452 		str	r5, [r3, #532]
  72              	.LVL2:
  73              	.L4:
  74 003c C300     		lsls	r3, r0, #3
  75 003e 03F18043 		add	r3, r3, #1073741824
  76 0042 03F5C843 		add	r3, r3, #25600
  77              		.loc 1 84 0 discriminator 2
  78 0046 0130     		adds	r0, r0, #1
  79              	.LVL3:
  80 0048 1C28     		cmp	r0, #28
  81              		.loc 1 85 0 discriminator 2
  82 004a C3F84042 		str	r4, [r3, #576]
  83              		.loc 1 86 0 discriminator 2
  84 004e C3F84442 		str	r4, [r3, #580]
  85              		.loc 1 84 0 discriminator 2
  86 0052 F3D1     		bne	.L4
  87              		.loc 1 93 0
  88 0054 304B     		ldr	r3, .L22+4
  89              		.loc 1 84 0
  90 0056 0026     		movs	r6, #0
  91              		.loc 1 91 0
  92 0058 0127     		movs	r7, #1
  93              	.LVL4:
  94              	.L9:
  95 005a 1568     		ldr	r5, [r2]
  96              		.loc 1 92 0
  97 005c 1479     		ldrb	r4, [r2, #4]	@ zero_extendqisi2
  98 005e E800     		lsls	r0, r5, #3
  99 0060 00F18040 		add	r0, r0, #1073741824
 100 0064 14F0010F 		tst	r4, #1
 101 0068 00F5C840 		add	r0, r0, #25600
 102              		.loc 1 90 0
 103 006c 06F10106 		add	r6, r6, #1
 104              	.LVL5:
 105              		.loc 1 91 0
 106 0070 07FA05F5 		lsl	r5, r7, r5
 107              	.LVL6:
 108              		.loc 1 92 0
 109 0074 05D0     		beq	.L5
 110              		.loc 1 93 0
 111 0076 D3F80442 		ldr	r4, [r3, #516]
 112 007a 2C43     		orrs	r4, r4, r5
 113 007c C3F80442 		str	r4, [r3, #516]
 114 0080 1479     		ldrb	r4, [r2, #4]	@ zero_extendqisi2
ARM GAS  /tmp/cc0JeQDE.s 			page 3


 115              	.L5:
 116              		.loc 1 94 0
 117 0082 14F0020F 		tst	r4, #2
 118 0086 05D0     		beq	.L6
 119              		.loc 1 95 0
 120 0088 D3F80C42 		ldr	r4, [r3, #524]
 121 008c 2C43     		orrs	r4, r4, r5
 122 008e C3F80C42 		str	r4, [r3, #524]
 123 0092 1479     		ldrb	r4, [r2, #4]	@ zero_extendqisi2
 124              	.L6:
 125              		.loc 1 96 0
 126 0094 6407     		lsls	r4, r4, #29
 127 0096 04D5     		bpl	.L7
 128              		.loc 1 97 0
 129 0098 D3F81442 		ldr	r4, [r3, #532]
 130 009c 2C43     		orrs	r4, r4, r5
 131 009e C3F81442 		str	r4, [r3, #532]
 132              	.L7:
 133              		.loc 1 98 0
 134 00a2 9468     		ldr	r4, [r2, #8]
 135 00a4 C0F84042 		str	r4, [r0, #576]
 136              		.loc 1 99 0
 137 00a8 D468     		ldr	r4, [r2, #12]
 138 00aa C0F84442 		str	r4, [r0, #580]
 139              		.loc 1 100 0
 140 00ae D3F81C02 		ldr	r0, [r3, #540]
 141              		.loc 1 90 0
 142 00b2 8E42     		cmp	r6, r1
 143              		.loc 1 100 0
 144 00b4 45EA0005 		orr	r5, r5, r0
 145              	.LVL7:
 146              		.loc 1 101 0
 147 00b8 02F11002 		add	r2, r2, #16
 148              	.LVL8:
 149              		.loc 1 100 0
 150 00bc C3F81C52 		str	r5, [r3, #540]
 151              		.loc 1 90 0
 152 00c0 CBD1     		bne	.L9
 153              	.LVL9:
 154              	.L8:
 155              	.LBE15:
 156              		.loc 1 123 0
 157 00c2 154A     		ldr	r2, .L22+4
 158              		.loc 1 126 0
 159 00c4 134B     		ldr	r3, .L22
 160              		.loc 1 123 0
 161 00c6 D2F80012 		ldr	r1, [r2, #512]
 162              	.LVL10:
 163 00ca 21F00101 		bic	r1, r1, #1
 164 00ce C2F80012 		str	r1, [r2, #512]
 165              		.loc 1 126 0
 166 00d2 1A6C     		ldr	r2, [r3, #64]
 167 00d4 22F00072 		bic	r2, r2, #33554432
 168 00d8 1A64     		str	r2, [r3, #64]
 169              		.loc 1 127 0
 170 00da F0BC     		pop	{r4, r5, r6, r7}
 171 00dc 7047     		bx	lr
ARM GAS  /tmp/cc0JeQDE.s 			page 4


 172              	.LVL11:
 173              	.L2:
 174 00de C200     		lsls	r2, r0, #3
 175              	.LVL12:
 176              		.loc 1 116 0
 177 00e0 0124     		movs	r4, #1
 178 00e2 02F18042 		add	r2, r2, #1073741824
 179 00e6 02F5C842 		add	r2, r2, #25600
 180 00ea 04FA00F0 		lsl	r0, r4, r0
 181              	.LVL13:
 182 00ee 2043     		orrs	r0, r0, r4
 183              		.loc 1 107 0
 184 00f0 C3F84012 		str	r1, [r3, #576]
 185              		.loc 1 108 0
 186 00f4 C3F84412 		str	r1, [r3, #580]
 187              		.loc 1 110 0
 188 00f8 C2F84012 		str	r1, [r2, #576]
 189              		.loc 1 111 0
 190 00fc C2F84412 		str	r1, [r2, #580]
 191              		.loc 1 113 0
 192 0100 C3F80412 		str	r1, [r3, #516]
 193              		.loc 1 114 0
 194 0104 C3F81412 		str	r1, [r3, #532]
 195              		.loc 1 116 0
 196 0108 C3F80C02 		str	r0, [r3, #524]
 197              		.loc 1 117 0
 198 010c C3F81C02 		str	r0, [r3, #540]
 199 0110 D7E7     		b	.L8
 200              	.L23:
 201 0112 00BF     		.align	2
 202              	.L22:
 203 0114 00380240 		.word	1073887232
 204 0118 00640040 		.word	1073767424
 205              		.cfi_endproc
 206              	.LFE118:
 207              		.size	can_lld_set_filters, .-can_lld_set_filters
 208 011c AFF30080 		.section	.text.can_lld_tx_handler,"ax",%progbits
 209              		.align	2
 210              		.p2align 4,,15
 211              		.thumb
 212              		.thumb_func
 213              		.type	can_lld_tx_handler, %function
 214              	can_lld_tx_handler:
 215              	.LFB119:
 216              		.loc 1 136 0
 217              		.cfi_startproc
 218              		@ args = 0, pretend = 0, frame = 0
 219              		@ frame_needed = 0, uses_anonymous_args = 0
 220              	.LVL14:
 221              		.loc 1 139 0
 222 0000 426B     		ldr	r2, [r0, #52]
 223 0002 0E49     		ldr	r1, .L29
 224              		.loc 1 136 0
 225 0004 38B5     		push	{r3, r4, r5, lr}
 226              		.cfi_def_cfa_offset 16
 227              		.cfi_offset 3, -16
 228              		.cfi_offset 4, -12
ARM GAS  /tmp/cc0JeQDE.s 			page 5


 229              		.cfi_offset 5, -8
 230              		.cfi_offset 14, -4
 231              		.loc 1 136 0
 232 0006 0446     		mov	r4, r0
 233              	.LBB16:
 234              		.loc 1 140 0
 235 0008 2023     		movs	r3, #32
 236              	.LBE16:
 237              		.loc 1 139 0
 238 000a 9160     		str	r1, [r2, #8]
 239              	.LBB17:
 240              		.loc 1 140 0
 241              	@ 140 "/home/marco/SoftwareProjects/st-usb/f9xx/firmware/ext/ChibiOS-RT/os/hal/platforms/STM32/can_
 242 000c 83F31188 		msr     BASEPRI, r3
 243              	@ 0 "" 2
 244              		.thumb
 245              	.LBE17:
 246              		.loc 1 141 0
 247 0010 0369     		ldr	r3, [r0, #16]
 248 0012 002B     		cmp	r3, #0
 249 0014 B8BF     		it	lt
 250 0016 00F10805 		addlt	r5, r0, #8
 251 001a 05DA     		bge	.L26
 252              	.LVL15:
 253              	.L27:
 254              		.loc 1 142 0
 255 001c 2846     		mov	r0, r5
 256 001e FFF7FEFF 		bl	chSemSignalI
 257              	.LVL16:
 258              		.loc 1 141 0
 259 0022 2369     		ldr	r3, [r4, #16]
 260 0024 002B     		cmp	r3, #0
 261 0026 F9DB     		blt	.L27
 262              	.L26:
 263              		.loc 1 143 0
 264 0028 04F12400 		add	r0, r4, #36
 265 002c 0121     		movs	r1, #1
 266 002e FFF7FEFF 		bl	chEvtBroadcastFlagsI
 267              	.LVL17:
 268              	.LBB18:
 269              		.loc 1 144 0
 270 0032 0023     		movs	r3, #0
 271              	@ 144 "/home/marco/SoftwareProjects/st-usb/f9xx/firmware/ext/ChibiOS-RT/os/hal/platforms/STM32/can_
 272 0034 83F31188 		msr     BASEPRI, r3
 273              	@ 0 "" 2
 274              		.thumb
 275 0038 38BD     		pop	{r3, r4, r5, pc}
 276              	.LVL18:
 277              	.L30:
 278 003a 00BF     		.align	2
 279              	.L29:
 280 003c 01010100 		.word	65793
 281              	.LBE18:
 282              		.cfi_endproc
 283              	.LFE119:
 284              		.size	can_lld_tx_handler, .-can_lld_tx_handler
 285              		.section	.text.can_lld_rx0_handler,"ax",%progbits
ARM GAS  /tmp/cc0JeQDE.s 			page 6


 286              		.align	2
 287              		.p2align 4,,15
 288              		.thumb
 289              		.thumb_func
 290              		.type	can_lld_rx0_handler, %function
 291              	can_lld_rx0_handler:
 292              	.LFB120:
 293              		.loc 1 154 0
 294              		.cfi_startproc
 295              		@ args = 0, pretend = 0, frame = 0
 296              		@ frame_needed = 0, uses_anonymous_args = 0
 297              	.LVL19:
 298              		.loc 1 157 0
 299 0000 436B     		ldr	r3, [r0, #52]
 300              		.loc 1 154 0
 301 0002 70B5     		push	{r4, r5, r6, lr}
 302              		.cfi_def_cfa_offset 16
 303              		.cfi_offset 4, -16
 304              		.cfi_offset 5, -12
 305              		.cfi_offset 6, -8
 306              		.cfi_offset 14, -4
 307              		.loc 1 157 0
 308 0004 DE68     		ldr	r6, [r3, #12]
 309              	.LVL20:
 310              		.loc 1 158 0
 311 0006 B207     		lsls	r2, r6, #30
 312              		.loc 1 154 0
 313 0008 0446     		mov	r4, r0
 314              		.loc 1 158 0
 315 000a 1AD0     		beq	.L32
 316              		.loc 1 160 0
 317 000c 5A69     		ldr	r2, [r3, #20]
 318 000e 22F00202 		bic	r2, r2, #2
 319 0012 5A61     		str	r2, [r3, #20]
 320              	.LBB27:
 321              		.loc 1 161 0
 322 0014 2023     		movs	r3, #32
 323              	@ 161 "/home/marco/SoftwareProjects/st-usb/f9xx/firmware/ext/ChibiOS-RT/os/hal/platforms/STM32/can_
 324 0016 83F31188 		msr     BASEPRI, r3
 325              	@ 0 "" 2
 326              		.thumb
 327              	.LBE27:
 328              		.loc 1 162 0
 329 001a C369     		ldr	r3, [r0, #28]
 330 001c 002B     		cmp	r3, #0
 331 001e B8BF     		it	lt
 332 0020 00F11405 		addlt	r5, r0, #20
 333 0024 05DA     		bge	.L34
 334              	.LVL21:
 335              	.L35:
 336              		.loc 1 163 0
 337 0026 2846     		mov	r0, r5
 338 0028 FFF7FEFF 		bl	chSemSignalI
 339              	.LVL22:
 340              		.loc 1 162 0
 341 002c E369     		ldr	r3, [r4, #28]
 342 002e 002B     		cmp	r3, #0
ARM GAS  /tmp/cc0JeQDE.s 			page 7


 343 0030 F9DB     		blt	.L35
 344              	.L34:
 345              		.loc 1 164 0
 346 0032 04F12000 		add	r0, r4, #32
 347 0036 0121     		movs	r1, #1
 348 0038 FFF7FEFF 		bl	chEvtBroadcastFlagsI
 349              	.LVL23:
 350              	.LBB28:
 351              		.loc 1 165 0
 352 003c 0023     		movs	r3, #0
 353              	@ 165 "/home/marco/SoftwareProjects/st-usb/f9xx/firmware/ext/ChibiOS-RT/os/hal/platforms/STM32/can_
 354 003e 83F31188 		msr     BASEPRI, r3
 355              	@ 0 "" 2
 356              		.thumb
 357              	.L32:
 358              	.LBE28:
 359              		.loc 1 167 0
 360 0042 F306     		lsls	r3, r6, #27
 361 0044 0CD5     		bpl	.L31
 362              	.LVL24:
 363              	.LBB29:
 364              	.LBB30:
 365              		.loc 1 169 0
 366 0046 636B     		ldr	r3, [r4, #52]
 367 0048 1021     		movs	r1, #16
 368 004a D960     		str	r1, [r3, #12]
 369              	.LBB31:
 370              		.loc 1 170 0
 371 004c 2023     		movs	r3, #32
 372              	@ 170 "/home/marco/SoftwareProjects/st-usb/f9xx/firmware/ext/ChibiOS-RT/os/hal/platforms/STM32/can_
 373 004e 83F31188 		msr     BASEPRI, r3
 374              	@ 0 "" 2
 375              		.thumb
 376              	.LBE31:
 377              		.loc 1 171 0
 378 0052 04F12800 		add	r0, r4, #40
 379 0056 FFF7FEFF 		bl	chEvtBroadcastFlagsI
 380              	.LVL25:
 381              	.LBB32:
 382              		.loc 1 172 0
 383 005a 0023     		movs	r3, #0
 384              	@ 172 "/home/marco/SoftwareProjects/st-usb/f9xx/firmware/ext/ChibiOS-RT/os/hal/platforms/STM32/can_
 385 005c 83F31188 		msr     BASEPRI, r3
 386              	@ 0 "" 2
 387              	.LVL26:
 388              		.thumb
 389              	.L31:
 390 0060 70BD     		pop	{r4, r5, r6, pc}
 391              	.LBE32:
 392              	.LBE30:
 393              	.LBE29:
 394              		.cfi_endproc
 395              	.LFE120:
 396              		.size	can_lld_rx0_handler, .-can_lld_rx0_handler
 397 0062 00BFAFF3 		.section	.text.can_lld_rx1_handler,"ax",%progbits
 397      0080AFF3 
 397      0080AFF3 
ARM GAS  /tmp/cc0JeQDE.s 			page 8


 397      0080
 398              		.align	2
 399              		.p2align 4,,15
 400              		.thumb
 401              		.thumb_func
 402              		.type	can_lld_rx1_handler, %function
 403              	can_lld_rx1_handler:
 404              	.LFB121:
 405              		.loc 1 183 0
 406              		.cfi_startproc
 407              		@ args = 0, pretend = 0, frame = 0
 408              		@ frame_needed = 0, uses_anonymous_args = 0
 409              	.LVL27:
 410              		.loc 1 186 0
 411 0000 436B     		ldr	r3, [r0, #52]
 412              		.loc 1 183 0
 413 0002 70B5     		push	{r4, r5, r6, lr}
 414              		.cfi_def_cfa_offset 16
 415              		.cfi_offset 4, -16
 416              		.cfi_offset 5, -12
 417              		.cfi_offset 6, -8
 418              		.cfi_offset 14, -4
 419              		.loc 1 186 0
 420 0004 1E69     		ldr	r6, [r3, #16]
 421              	.LVL28:
 422              		.loc 1 187 0
 423 0006 B207     		lsls	r2, r6, #30
 424              		.loc 1 183 0
 425 0008 0446     		mov	r4, r0
 426              		.loc 1 187 0
 427 000a 1AD0     		beq	.L44
 428              		.loc 1 189 0
 429 000c 5A69     		ldr	r2, [r3, #20]
 430 000e 22F01002 		bic	r2, r2, #16
 431 0012 5A61     		str	r2, [r3, #20]
 432              	.LBB41:
 433              		.loc 1 190 0
 434 0014 2023     		movs	r3, #32
 435              	@ 190 "/home/marco/SoftwareProjects/st-usb/f9xx/firmware/ext/ChibiOS-RT/os/hal/platforms/STM32/can_
 436 0016 83F31188 		msr     BASEPRI, r3
 437              	@ 0 "" 2
 438              		.thumb
 439              	.LBE41:
 440              		.loc 1 191 0
 441 001a C369     		ldr	r3, [r0, #28]
 442 001c 002B     		cmp	r3, #0
 443 001e B8BF     		it	lt
 444 0020 00F11405 		addlt	r5, r0, #20
 445 0024 05DA     		bge	.L46
 446              	.LVL29:
 447              	.L47:
 448              		.loc 1 192 0
 449 0026 2846     		mov	r0, r5
 450 0028 FFF7FEFF 		bl	chSemSignalI
 451              	.LVL30:
 452              		.loc 1 191 0
 453 002c E369     		ldr	r3, [r4, #28]
ARM GAS  /tmp/cc0JeQDE.s 			page 9


 454 002e 002B     		cmp	r3, #0
 455 0030 F9DB     		blt	.L47
 456              	.L46:
 457              		.loc 1 193 0
 458 0032 04F12000 		add	r0, r4, #32
 459 0036 0221     		movs	r1, #2
 460 0038 FFF7FEFF 		bl	chEvtBroadcastFlagsI
 461              	.LVL31:
 462              	.LBB42:
 463              		.loc 1 194 0
 464 003c 0023     		movs	r3, #0
 465              	@ 194 "/home/marco/SoftwareProjects/st-usb/f9xx/firmware/ext/ChibiOS-RT/os/hal/platforms/STM32/can_
 466 003e 83F31188 		msr     BASEPRI, r3
 467              	@ 0 "" 2
 468              		.thumb
 469              	.L44:
 470              	.LBE42:
 471              		.loc 1 196 0
 472 0042 F306     		lsls	r3, r6, #27
 473 0044 0CD5     		bpl	.L43
 474              	.LVL32:
 475              	.LBB43:
 476              	.LBB44:
 477              		.loc 1 198 0
 478 0046 636B     		ldr	r3, [r4, #52]
 479 0048 1021     		movs	r1, #16
 480 004a 1961     		str	r1, [r3, #16]
 481              	.LBB45:
 482              		.loc 1 199 0
 483 004c 2023     		movs	r3, #32
 484              	@ 199 "/home/marco/SoftwareProjects/st-usb/f9xx/firmware/ext/ChibiOS-RT/os/hal/platforms/STM32/can_
 485 004e 83F31188 		msr     BASEPRI, r3
 486              	@ 0 "" 2
 487              		.thumb
 488              	.LBE45:
 489              		.loc 1 200 0
 490 0052 04F12800 		add	r0, r4, #40
 491 0056 FFF7FEFF 		bl	chEvtBroadcastFlagsI
 492              	.LVL33:
 493              	.LBB46:
 494              		.loc 1 201 0
 495 005a 0023     		movs	r3, #0
 496              	@ 201 "/home/marco/SoftwareProjects/st-usb/f9xx/firmware/ext/ChibiOS-RT/os/hal/platforms/STM32/can_
 497 005c 83F31188 		msr     BASEPRI, r3
 498              	@ 0 "" 2
 499              	.LVL34:
 500              		.thumb
 501              	.L43:
 502 0060 70BD     		pop	{r4, r5, r6, pc}
 503              	.LBE46:
 504              	.LBE44:
 505              	.LBE43:
 506              		.cfi_endproc
 507              	.LFE121:
 508              		.size	can_lld_rx1_handler, .-can_lld_rx1_handler
 509 0062 00BFAFF3 		.section	.text.can_lld_sce_handler,"ax",%progbits
 509      0080AFF3 
ARM GAS  /tmp/cc0JeQDE.s 			page 10


 509      0080AFF3 
 509      0080
 510              		.align	2
 511              		.p2align 4,,15
 512              		.thumb
 513              		.thumb_func
 514              		.type	can_lld_sce_handler, %function
 515              	can_lld_sce_handler:
 516              	.LFB122:
 517              		.loc 1 212 0
 518              		.cfi_startproc
 519              		@ args = 0, pretend = 0, frame = 0
 520              		@ frame_needed = 0, uses_anonymous_args = 0
 521              	.LVL35:
 522              		.loc 1 215 0
 523 0000 426B     		ldr	r2, [r0, #52]
 524              		.loc 1 212 0
 525 0002 38B5     		push	{r3, r4, r5, lr}
 526              		.cfi_def_cfa_offset 16
 527              		.cfi_offset 3, -16
 528              		.cfi_offset 4, -12
 529              		.cfi_offset 5, -8
 530              		.cfi_offset 14, -4
 531              		.loc 1 215 0
 532 0004 5568     		ldr	r5, [r2, #4]
 533              	.LVL36:
 534              		.loc 1 216 0
 535 0006 1C23     		movs	r3, #28
 536              		.loc 1 219 0
 537 0008 2907     		lsls	r1, r5, #28
 538              		.loc 1 212 0
 539 000a 0446     		mov	r4, r0
 540              		.loc 1 216 0
 541 000c 5360     		str	r3, [r2, #4]
 542              		.loc 1 219 0
 543 000e 1BD4     		bmi	.L68
 544              	.LVL37:
 545              	.L56:
 546              		.loc 1 228 0
 547 0010 6B07     		lsls	r3, r5, #29
 548 0012 18D5     		bpl	.L55
 549              	.LVL38:
 550              	.LBB56:
 551              	.LBB57:
 552              	.LBB58:
 553              		.loc 1 230 0
 554 0014 636B     		ldr	r3, [r4, #52]
 555 0016 9A69     		ldr	r2, [r3, #24]
 556              	.LVL39:
 557              		.loc 1 232 0
 558 0018 9969     		ldr	r1, [r3, #24]
 559 001a 21F07001 		bic	r1, r1, #112
 560 001e 9961     		str	r1, [r3, #24]
 561              		.loc 1 234 0
 562 0020 12F0700F 		tst	r2, #112
 563              		.loc 1 233 0
 564 0024 02F00701 		and	r1, r2, #7
ARM GAS  /tmp/cc0JeQDE.s 			page 11


 565              	.LVL40:
 566              		.loc 1 235 0
 567 0028 18BF     		it	ne
 568 002a 41F00801 		orrne	r1, r1, #8
 569              	.LVL41:
 570              	.LBB59:
 571              		.loc 1 237 0
 572 002e 2023     		movs	r3, #32
 573              	@ 237 "/home/marco/SoftwareProjects/st-usb/f9xx/firmware/ext/ChibiOS-RT/os/hal/platforms/STM32/can_
 574 0030 83F31188 		msr     BASEPRI, r3
 575              	@ 0 "" 2
 576              		.thumb
 577              	.LBE59:
 578              		.loc 1 240 0
 579 0034 04F12800 		add	r0, r4, #40
 580 0038 41EA0241 		orr	r1, r1, r2, lsl #16
 581              	.LVL42:
 582 003c FFF7FEFF 		bl	chEvtBroadcastFlagsI
 583              	.LVL43:
 584              	.LBB60:
 585              		.loc 1 241 0
 586 0040 0023     		movs	r3, #0
 587              	@ 241 "/home/marco/SoftwareProjects/st-usb/f9xx/firmware/ext/ChibiOS-RT/os/hal/platforms/STM32/can_
 588 0042 83F31188 		msr     BASEPRI, r3
 589              	@ 0 "" 2
 590              	.LVL44:
 591              		.thumb
 592              	.L55:
 593 0046 38BD     		pop	{r3, r4, r5, pc}
 594              	.LVL45:
 595              	.L68:
 596              	.LBE60:
 597              	.LBE58:
 598              	.LBE57:
 599              	.LBE56:
 600              		.loc 1 221 0
 601 0048 1168     		ldr	r1, [r2]
 602              		.loc 1 220 0
 603 004a 0323     		movs	r3, #3
 604              		.loc 1 221 0
 605 004c 21F00201 		bic	r1, r1, #2
 606              		.loc 1 220 0
 607 0050 00F8303B 		strb	r3, [r0], #48
 608              	.LVL46:
 609              	.LBB61:
 610              		.loc 1 222 0
 611 0054 2023     		movs	r3, #32
 612              	.LBE61:
 613              		.loc 1 221 0
 614 0056 1160     		str	r1, [r2]
 615              	.LBB62:
 616              		.loc 1 222 0
 617              	@ 222 "/home/marco/SoftwareProjects/st-usb/f9xx/firmware/ext/ChibiOS-RT/os/hal/platforms/STM32/can_
 618 0058 83F31188 		msr     BASEPRI, r3
 619              	@ 0 "" 2
 620              		.thumb
 621              	.LBE62:
ARM GAS  /tmp/cc0JeQDE.s 			page 12


 622              		.loc 1 223 0
 623 005c 0021     		movs	r1, #0
 624 005e FFF7FEFF 		bl	chEvtBroadcastFlagsI
 625              	.LVL47:
 626              	.LBB63:
 627              		.loc 1 224 0
 628 0062 0023     		movs	r3, #0
 629              	@ 224 "/home/marco/SoftwareProjects/st-usb/f9xx/firmware/ext/ChibiOS-RT/os/hal/platforms/STM32/can_
 630 0064 83F31188 		msr     BASEPRI, r3
 631              	@ 0 "" 2
 632              		.thumb
 633 0068 D2E7     		b	.L56
 634              	.LBE63:
 635              		.cfi_endproc
 636              	.LFE122:
 637              		.size	can_lld_sce_handler, .-can_lld_sce_handler
 638 006a 00BFAFF3 		.section	.text.Vector8C,"ax",%progbits
 638      0080
 639              		.align	2
 640              		.p2align 4,,15
 641              		.global	Vector8C
 642              		.thumb
 643              		.thumb_func
 644              		.type	Vector8C, %function
 645              	Vector8C:
 646              	.LFB123:
 647              		.loc 1 255 0
 648              		.cfi_startproc
 649              		@ args = 0, pretend = 0, frame = 0
 650              		@ frame_needed = 0, uses_anonymous_args = 0
 651 0000 08B5     		push	{r3, lr}
 652              		.cfi_def_cfa_offset 8
 653              		.cfi_offset 3, -8
 654              		.cfi_offset 14, -4
 655              		.loc 1 259 0
 656 0002 0348     		ldr	r0, .L70
 657 0004 FFF7FEFF 		bl	can_lld_tx_handler
 658              	.LVL48:
 659              		.loc 1 262 0
 660 0008 BDE80840 		pop	{r3, lr}
 661              		.loc 1 261 0
 662 000c FFF7FEBF 		b	_port_irq_epilogue
 663              	.LVL49:
 664              	.L71:
 665              		.align	2
 666              	.L70:
 667 0010 00000000 		.word	.LANCHOR0
 668              		.cfi_endproc
 669              	.LFE123:
 670              		.size	Vector8C, .-Vector8C
 671 0014 AFF30080 		.section	.text.Vector90,"ax",%progbits
 671      AFF30080 
 671      AFF30080 
 672              		.align	2
 673              		.p2align 4,,15
 674              		.global	Vector90
 675              		.thumb
ARM GAS  /tmp/cc0JeQDE.s 			page 13


 676              		.thumb_func
 677              		.type	Vector90, %function
 678              	Vector90:
 679              	.LFB124:
 680              		.loc 1 269 0
 681              		.cfi_startproc
 682              		@ args = 0, pretend = 0, frame = 0
 683              		@ frame_needed = 0, uses_anonymous_args = 0
 684 0000 08B5     		push	{r3, lr}
 685              		.cfi_def_cfa_offset 8
 686              		.cfi_offset 3, -8
 687              		.cfi_offset 14, -4
 688              		.loc 1 273 0
 689 0002 0348     		ldr	r0, .L73
 690 0004 FFF7FEFF 		bl	can_lld_rx0_handler
 691              	.LVL50:
 692              		.loc 1 276 0
 693 0008 BDE80840 		pop	{r3, lr}
 694              		.loc 1 275 0
 695 000c FFF7FEBF 		b	_port_irq_epilogue
 696              	.LVL51:
 697              	.L74:
 698              		.align	2
 699              	.L73:
 700 0010 00000000 		.word	.LANCHOR0
 701              		.cfi_endproc
 702              	.LFE124:
 703              		.size	Vector90, .-Vector90
 704 0014 AFF30080 		.section	.text.Vector94,"ax",%progbits
 704      AFF30080 
 704      AFF30080 
 705              		.align	2
 706              		.p2align 4,,15
 707              		.global	Vector94
 708              		.thumb
 709              		.thumb_func
 710              		.type	Vector94, %function
 711              	Vector94:
 712              	.LFB125:
 713              		.loc 1 283 0
 714              		.cfi_startproc
 715              		@ args = 0, pretend = 0, frame = 0
 716              		@ frame_needed = 0, uses_anonymous_args = 0
 717 0000 08B5     		push	{r3, lr}
 718              		.cfi_def_cfa_offset 8
 719              		.cfi_offset 3, -8
 720              		.cfi_offset 14, -4
 721              		.loc 1 287 0
 722 0002 0348     		ldr	r0, .L76
 723 0004 FFF7FEFF 		bl	can_lld_rx1_handler
 724              	.LVL52:
 725              		.loc 1 290 0
 726 0008 BDE80840 		pop	{r3, lr}
 727              		.loc 1 289 0
 728 000c FFF7FEBF 		b	_port_irq_epilogue
 729              	.LVL53:
 730              	.L77:
ARM GAS  /tmp/cc0JeQDE.s 			page 14


 731              		.align	2
 732              	.L76:
 733 0010 00000000 		.word	.LANCHOR0
 734              		.cfi_endproc
 735              	.LFE125:
 736              		.size	Vector94, .-Vector94
 737 0014 AFF30080 		.section	.text.Vector98,"ax",%progbits
 737      AFF30080 
 737      AFF30080 
 738              		.align	2
 739              		.p2align 4,,15
 740              		.global	Vector98
 741              		.thumb
 742              		.thumb_func
 743              		.type	Vector98, %function
 744              	Vector98:
 745              	.LFB126:
 746              		.loc 1 297 0
 747              		.cfi_startproc
 748              		@ args = 0, pretend = 0, frame = 0
 749              		@ frame_needed = 0, uses_anonymous_args = 0
 750 0000 08B5     		push	{r3, lr}
 751              		.cfi_def_cfa_offset 8
 752              		.cfi_offset 3, -8
 753              		.cfi_offset 14, -4
 754              		.loc 1 301 0
 755 0002 0348     		ldr	r0, .L79
 756 0004 FFF7FEFF 		bl	can_lld_sce_handler
 757              	.LVL54:
 758              		.loc 1 304 0
 759 0008 BDE80840 		pop	{r3, lr}
 760              		.loc 1 303 0
 761 000c FFF7FEBF 		b	_port_irq_epilogue
 762              	.LVL55:
 763              	.L80:
 764              		.align	2
 765              	.L79:
 766 0010 00000000 		.word	.LANCHOR0
 767              		.cfi_endproc
 768              	.LFE126:
 769              		.size	Vector98, .-Vector98
 770 0014 AFF30080 		.section	.text.Vector13C,"ax",%progbits
 770      AFF30080 
 770      AFF30080 
 771              		.align	2
 772              		.p2align 4,,15
 773              		.global	Vector13C
 774              		.thumb
 775              		.thumb_func
 776              		.type	Vector13C, %function
 777              	Vector13C:
 778              	.LFB127:
 779              		.loc 1 313 0
 780              		.cfi_startproc
 781              		@ args = 0, pretend = 0, frame = 0
 782              		@ frame_needed = 0, uses_anonymous_args = 0
 783 0000 08B5     		push	{r3, lr}
ARM GAS  /tmp/cc0JeQDE.s 			page 15


 784              		.cfi_def_cfa_offset 8
 785              		.cfi_offset 3, -8
 786              		.cfi_offset 14, -4
 787              		.loc 1 317 0
 788 0002 0348     		ldr	r0, .L82
 789 0004 FFF7FEFF 		bl	can_lld_tx_handler
 790              	.LVL56:
 791              		.loc 1 320 0
 792 0008 BDE80840 		pop	{r3, lr}
 793              		.loc 1 319 0
 794 000c FFF7FEBF 		b	_port_irq_epilogue
 795              	.LVL57:
 796              	.L83:
 797              		.align	2
 798              	.L82:
 799 0010 00000000 		.word	.LANCHOR1
 800              		.cfi_endproc
 801              	.LFE127:
 802              		.size	Vector13C, .-Vector13C
 803 0014 AFF30080 		.section	.text.Vector140,"ax",%progbits
 803      AFF30080 
 803      AFF30080 
 804              		.align	2
 805              		.p2align 4,,15
 806              		.global	Vector140
 807              		.thumb
 808              		.thumb_func
 809              		.type	Vector140, %function
 810              	Vector140:
 811              	.LFB128:
 812              		.loc 1 327 0
 813              		.cfi_startproc
 814              		@ args = 0, pretend = 0, frame = 0
 815              		@ frame_needed = 0, uses_anonymous_args = 0
 816 0000 08B5     		push	{r3, lr}
 817              		.cfi_def_cfa_offset 8
 818              		.cfi_offset 3, -8
 819              		.cfi_offset 14, -4
 820              		.loc 1 331 0
 821 0002 0348     		ldr	r0, .L85
 822 0004 FFF7FEFF 		bl	can_lld_rx0_handler
 823              	.LVL58:
 824              		.loc 1 334 0
 825 0008 BDE80840 		pop	{r3, lr}
 826              		.loc 1 333 0
 827 000c FFF7FEBF 		b	_port_irq_epilogue
 828              	.LVL59:
 829              	.L86:
 830              		.align	2
 831              	.L85:
 832 0010 00000000 		.word	.LANCHOR1
 833              		.cfi_endproc
 834              	.LFE128:
 835              		.size	Vector140, .-Vector140
 836 0014 AFF30080 		.section	.text.Vector144,"ax",%progbits
 836      AFF30080 
 836      AFF30080 
ARM GAS  /tmp/cc0JeQDE.s 			page 16


 837              		.align	2
 838              		.p2align 4,,15
 839              		.global	Vector144
 840              		.thumb
 841              		.thumb_func
 842              		.type	Vector144, %function
 843              	Vector144:
 844              	.LFB129:
 845              		.loc 1 341 0
 846              		.cfi_startproc
 847              		@ args = 0, pretend = 0, frame = 0
 848              		@ frame_needed = 0, uses_anonymous_args = 0
 849 0000 08B5     		push	{r3, lr}
 850              		.cfi_def_cfa_offset 8
 851              		.cfi_offset 3, -8
 852              		.cfi_offset 14, -4
 853              		.loc 1 345 0
 854 0002 0348     		ldr	r0, .L88
 855 0004 FFF7FEFF 		bl	can_lld_rx1_handler
 856              	.LVL60:
 857              		.loc 1 348 0
 858 0008 BDE80840 		pop	{r3, lr}
 859              		.loc 1 347 0
 860 000c FFF7FEBF 		b	_port_irq_epilogue
 861              	.LVL61:
 862              	.L89:
 863              		.align	2
 864              	.L88:
 865 0010 00000000 		.word	.LANCHOR1
 866              		.cfi_endproc
 867              	.LFE129:
 868              		.size	Vector144, .-Vector144
 869 0014 AFF30080 		.section	.text.Vector148,"ax",%progbits
 869      AFF30080 
 869      AFF30080 
 870              		.align	2
 871              		.p2align 4,,15
 872              		.global	Vector148
 873              		.thumb
 874              		.thumb_func
 875              		.type	Vector148, %function
 876              	Vector148:
 877              	.LFB130:
 878              		.loc 1 355 0
 879              		.cfi_startproc
 880              		@ args = 0, pretend = 0, frame = 0
 881              		@ frame_needed = 0, uses_anonymous_args = 0
 882 0000 08B5     		push	{r3, lr}
 883              		.cfi_def_cfa_offset 8
 884              		.cfi_offset 3, -8
 885              		.cfi_offset 14, -4
 886              		.loc 1 359 0
 887 0002 0348     		ldr	r0, .L91
 888 0004 FFF7FEFF 		bl	can_lld_sce_handler
 889              	.LVL62:
 890              		.loc 1 362 0
 891 0008 BDE80840 		pop	{r3, lr}
ARM GAS  /tmp/cc0JeQDE.s 			page 17


 892              		.loc 1 361 0
 893 000c FFF7FEBF 		b	_port_irq_epilogue
 894              	.LVL63:
 895              	.L92:
 896              		.align	2
 897              	.L91:
 898 0010 00000000 		.word	.LANCHOR1
 899              		.cfi_endproc
 900              	.LFE130:
 901              		.size	Vector148, .-Vector148
 902 0014 AFF30080 		.section	.text.can_lld_init,"ax",%progbits
 902      AFF30080 
 902      AFF30080 
 903              		.align	2
 904              		.p2align 4,,15
 905              		.global	can_lld_init
 906              		.thumb
 907              		.thumb_func
 908              		.type	can_lld_init, %function
 909              	can_lld_init:
 910              	.LFB131:
 911              		.loc 1 374 0
 912              		.cfi_startproc
 913              		@ args = 0, pretend = 0, frame = 0
 914              		@ frame_needed = 0, uses_anonymous_args = 0
 915 0000 38B5     		push	{r3, r4, r5, lr}
 916              		.cfi_def_cfa_offset 16
 917              		.cfi_offset 3, -16
 918              		.cfi_offset 4, -12
 919              		.cfi_offset 5, -8
 920              		.cfi_offset 14, -4
 921              		.loc 1 378 0
 922 0002 094D     		ldr	r5, .L94
 923              		.loc 1 383 0
 924 0004 094C     		ldr	r4, .L94+4
 925              		.loc 1 378 0
 926 0006 2846     		mov	r0, r5
 927 0008 FFF7FEFF 		bl	canObjectInit
 928              	.LVL64:
 929              		.loc 1 379 0
 930 000c 084B     		ldr	r3, .L94+8
 931 000e 6B63     		str	r3, [r5, #52]
 932              		.loc 1 383 0
 933 0010 2046     		mov	r0, r4
 934 0012 FFF7FEFF 		bl	canObjectInit
 935              	.LVL65:
 936              		.loc 1 384 0
 937 0016 074B     		ldr	r3, .L94+12
 938 0018 6363     		str	r3, [r4, #52]
 939              		.loc 1 389 0
 940 001a 0021     		movs	r1, #0
 941 001c 0A46     		mov	r2, r1
 942 001e 0E20     		movs	r0, #14
 943              		.loc 1 393 0
 944 0020 BDE83840 		pop	{r3, r4, r5, lr}
 945              		.loc 1 389 0
 946 0024 FFF7FEBF 		b	can_lld_set_filters
ARM GAS  /tmp/cc0JeQDE.s 			page 18


 947              	.LVL66:
 948              	.L95:
 949              		.align	2
 950              	.L94:
 951 0028 00000000 		.word	.LANCHOR0
 952 002c 00000000 		.word	.LANCHOR1
 953 0030 00640040 		.word	1073767424
 954 0034 00680040 		.word	1073768448
 955              		.cfi_endproc
 956              	.LFE131:
 957              		.size	can_lld_init, .-can_lld_init
 958 0038 AFF30080 		.section	.text.can_lld_start,"ax",%progbits
 958      AFF30080 
 959              		.align	2
 960              		.p2align 4,,15
 961              		.global	can_lld_start
 962              		.thumb
 963              		.thumb_func
 964              		.type	can_lld_start, %function
 965              	can_lld_start:
 966              	.LFB132:
 967              		.loc 1 402 0
 968              		.cfi_startproc
 969              		@ args = 0, pretend = 0, frame = 0
 970              		@ frame_needed = 0, uses_anonymous_args = 0
 971              	.LVL67:
 972              		.loc 1 406 0
 973 0000 254B     		ldr	r3, .L103
 974 0002 9842     		cmp	r0, r3
 975              		.loc 1 402 0
 976 0004 10B5     		push	{r4, lr}
 977              		.cfi_def_cfa_offset 8
 978              		.cfi_offset 4, -8
 979              		.cfi_offset 14, -4
 980              		.loc 1 402 0
 981 0006 0446     		mov	r4, r0
 982              		.loc 1 406 0
 983 0008 1AD0     		beq	.L101
 984              		.loc 1 419 0
 985 000a 244B     		ldr	r3, .L103+4
 986 000c 9842     		cmp	r0, r3
 987 000e 2DD0     		beq	.L102
 988              	.LVL68:
 989              	.L98:
 990              		.loc 1 438 0
 991 0010 636B     		ldr	r3, [r4, #52]
 992              		.loc 1 437 0
 993 0012 0221     		movs	r1, #2
 994              		.loc 1 438 0
 995 0014 0122     		movs	r2, #1
 996              		.loc 1 437 0
 997 0016 2170     		strb	r1, [r4]
 998              		.loc 1 438 0
 999 0018 1A60     		str	r2, [r3]
 1000              		.loc 1 439 0
 1001 001a 5A68     		ldr	r2, [r3, #4]
 1002 001c D107     		lsls	r1, r2, #31
ARM GAS  /tmp/cc0JeQDE.s 			page 19


 1003 001e 07D4     		bmi	.L99
 1004              	.L100:
 1005              		.loc 1 440 0
 1006 0020 0620     		movs	r0, #6
 1007 0022 0121     		movs	r1, #1
 1008 0024 FFF7FEFF 		bl	chSchGoSleepTimeoutS
 1009              	.LVL69:
 1010              		.loc 1 439 0
 1011 0028 636B     		ldr	r3, [r4, #52]
 1012 002a 5A68     		ldr	r2, [r3, #4]
 1013 002c D207     		lsls	r2, r2, #31
 1014 002e F7D5     		bpl	.L100
 1015              	.L99:
 1016              		.loc 1 442 0
 1017 0030 6268     		ldr	r2, [r4, #4]
 1018              		.loc 1 447 0
 1019 0032 1B49     		ldr	r1, .L103+8
 1020              		.loc 1 442 0
 1021 0034 5068     		ldr	r0, [r2, #4]
 1022              		.loc 1 444 0
 1023 0036 1268     		ldr	r2, [r2]
 1024              		.loc 1 442 0
 1025 0038 D861     		str	r0, [r3, #28]
 1026              		.loc 1 444 0
 1027 003a 1A60     		str	r2, [r3]
 1028              		.loc 1 447 0
 1029 003c 5961     		str	r1, [r3, #20]
 1030 003e 10BD     		pop	{r4, pc}
 1031              	.LVL70:
 1032              	.L101:
 1033              		.loc 1 407 0
 1034 0040 1320     		movs	r0, #19
 1035              	.LVL71:
 1036 0042 B021     		movs	r1, #176
 1037 0044 FFF7FEFF 		bl	nvicEnableVector
 1038              	.LVL72:
 1039              		.loc 1 409 0
 1040 0048 1420     		movs	r0, #20
 1041 004a B021     		movs	r1, #176
 1042 004c FFF7FEFF 		bl	nvicEnableVector
 1043              	.LVL73:
 1044              		.loc 1 411 0
 1045 0050 1520     		movs	r0, #21
 1046 0052 B021     		movs	r1, #176
 1047 0054 FFF7FEFF 		bl	nvicEnableVector
 1048              	.LVL74:
 1049              		.loc 1 413 0
 1050 0058 1620     		movs	r0, #22
 1051 005a B021     		movs	r1, #176
 1052 005c FFF7FEFF 		bl	nvicEnableVector
 1053              	.LVL75:
 1054              		.loc 1 415 0
 1055 0060 104B     		ldr	r3, .L103+12
 1056 0062 1A6C     		ldr	r2, [r3, #64]
 1057 0064 42F00072 		orr	r2, r2, #33554432
 1058 0068 1A64     		str	r2, [r3, #64]
 1059 006a D1E7     		b	.L98
ARM GAS  /tmp/cc0JeQDE.s 			page 20


 1060              	.LVL76:
 1061              	.L102:
 1062              		.loc 1 424 0
 1063 006c 3F20     		movs	r0, #63
 1064              	.LVL77:
 1065 006e B021     		movs	r1, #176
 1066 0070 FFF7FEFF 		bl	nvicEnableVector
 1067              	.LVL78:
 1068              		.loc 1 426 0
 1069 0074 4020     		movs	r0, #64
 1070 0076 B021     		movs	r1, #176
 1071 0078 FFF7FEFF 		bl	nvicEnableVector
 1072              	.LVL79:
 1073              		.loc 1 428 0
 1074 007c 4120     		movs	r0, #65
 1075 007e B021     		movs	r1, #176
 1076 0080 FFF7FEFF 		bl	nvicEnableVector
 1077              	.LVL80:
 1078              		.loc 1 430 0
 1079 0084 4220     		movs	r0, #66
 1080 0086 B021     		movs	r1, #176
 1081 0088 FFF7FEFF 		bl	nvicEnableVector
 1082              	.LVL81:
 1083              		.loc 1 432 0
 1084 008c 054B     		ldr	r3, .L103+12
 1085 008e 1A6C     		ldr	r2, [r3, #64]
 1086 0090 42F08062 		orr	r2, r2, #67108864
 1087 0094 1A64     		str	r2, [r3, #64]
 1088 0096 BBE7     		b	.L98
 1089              	.L104:
 1090              		.align	2
 1091              	.L103:
 1092 0098 00000000 		.word	.LANCHOR0
 1093 009c 00000000 		.word	.LANCHOR1
 1094 00a0 5B8F0100 		.word	102235
 1095 00a4 00380240 		.word	1073887232
 1096              		.cfi_endproc
 1097              	.LFE132:
 1098              		.size	can_lld_start, .-can_lld_start
 1099 00a8 AFF30080 		.section	.text.can_lld_stop,"ax",%progbits
 1099      AFF30080 
 1100              		.align	2
 1101              		.p2align 4,,15
 1102              		.global	can_lld_stop
 1103              		.thumb
 1104              		.thumb_func
 1105              		.type	can_lld_stop, %function
 1106              	can_lld_stop:
 1107              	.LFB133:
 1108              		.loc 1 460 0
 1109              		.cfi_startproc
 1110              		@ args = 0, pretend = 0, frame = 0
 1111              		@ frame_needed = 0, uses_anonymous_args = 0
 1112              	.LVL82:
 1113 0000 08B5     		push	{r3, lr}
 1114              		.cfi_def_cfa_offset 8
 1115              		.cfi_offset 3, -8
ARM GAS  /tmp/cc0JeQDE.s 			page 21


 1116              		.cfi_offset 14, -4
 1117              		.loc 1 463 0
 1118 0002 0378     		ldrb	r3, [r0]	@ zero_extendqisi2
 1119 0004 032B     		cmp	r3, #3
 1120 0006 00D0     		beq	.L108
 1121              	.LVL83:
 1122              	.L105:
 1123 0008 08BD     		pop	{r3, pc}
 1124              	.LVL84:
 1125              	.L108:
 1126              		.loc 1 465 0
 1127 000a 1A4B     		ldr	r3, .L110
 1128 000c 9842     		cmp	r0, r3
 1129 000e 19D0     		beq	.L109
 1130              		.loc 1 482 0
 1131 0010 194B     		ldr	r3, .L110+4
 1132 0012 9842     		cmp	r0, r3
 1133 0014 F8D1     		bne	.L105
 1134              		.loc 1 483 0
 1135 0016 194B     		ldr	r3, .L110+8
 1136 0018 194A     		ldr	r2, .L110+12
 1137 001a 1A60     		str	r2, [r3]
 1138              		.loc 1 484 0
 1139 001c 0022     		movs	r2, #0
 1140 001e 5A61     		str	r2, [r3, #20]
 1141              		.loc 1 485 0
 1142 0020 3F20     		movs	r0, #63
 1143              	.LVL85:
 1144 0022 FFF7FEFF 		bl	nvicDisableVector
 1145              	.LVL86:
 1146              		.loc 1 486 0
 1147 0026 4020     		movs	r0, #64
 1148 0028 FFF7FEFF 		bl	nvicDisableVector
 1149              	.LVL87:
 1150              		.loc 1 487 0
 1151 002c 4120     		movs	r0, #65
 1152 002e FFF7FEFF 		bl	nvicDisableVector
 1153              	.LVL88:
 1154              		.loc 1 488 0
 1155 0032 4220     		movs	r0, #66
 1156 0034 FFF7FEFF 		bl	nvicDisableVector
 1157              	.LVL89:
 1158              		.loc 1 489 0
 1159 0038 124B     		ldr	r3, .L110+16
 1160 003a 1A6C     		ldr	r2, [r3, #64]
 1161 003c 22F08062 		bic	r2, r2, #67108864
 1162 0040 1A64     		str	r2, [r3, #64]
 1163 0042 E1E7     		b	.L105
 1164              	.LVL90:
 1165              	.L109:
 1166              		.loc 1 472 0
 1167 0044 104B     		ldr	r3, .L110+20
 1168 0046 0E4A     		ldr	r2, .L110+12
 1169 0048 1A60     		str	r2, [r3]
 1170              		.loc 1 473 0
 1171 004a 0022     		movs	r2, #0
 1172 004c 5A61     		str	r2, [r3, #20]
ARM GAS  /tmp/cc0JeQDE.s 			page 22


 1173              		.loc 1 474 0
 1174 004e 1320     		movs	r0, #19
 1175              	.LVL91:
 1176 0050 FFF7FEFF 		bl	nvicDisableVector
 1177              	.LVL92:
 1178              		.loc 1 475 0
 1179 0054 1420     		movs	r0, #20
 1180 0056 FFF7FEFF 		bl	nvicDisableVector
 1181              	.LVL93:
 1182              		.loc 1 476 0
 1183 005a 1520     		movs	r0, #21
 1184 005c FFF7FEFF 		bl	nvicDisableVector
 1185              	.LVL94:
 1186              		.loc 1 477 0
 1187 0060 1620     		movs	r0, #22
 1188 0062 FFF7FEFF 		bl	nvicDisableVector
 1189              	.LVL95:
 1190              		.loc 1 478 0
 1191 0066 074B     		ldr	r3, .L110+16
 1192 0068 1A6C     		ldr	r2, [r3, #64]
 1193 006a 22F00072 		bic	r2, r2, #33554432
 1194 006e 1A64     		str	r2, [r3, #64]
 1195 0070 08BD     		pop	{r3, pc}
 1196              	.L111:
 1197 0072 00BF     		.align	2
 1198              	.L110:
 1199 0074 00000000 		.word	.LANCHOR0
 1200 0078 00000000 		.word	.LANCHOR1
 1201 007c 00680040 		.word	1073768448
 1202 0080 02000100 		.word	65538
 1203 0084 00380240 		.word	1073887232
 1204 0088 00640040 		.word	1073767424
 1205              		.cfi_endproc
 1206              	.LFE133:
 1207              		.size	can_lld_stop, .-can_lld_stop
 1208 008c AFF30080 		.section	.text.can_lld_is_tx_empty,"ax",%progbits
 1209              		.align	2
 1210              		.p2align 4,,15
 1211              		.global	can_lld_is_tx_empty
 1212              		.thumb
 1213              		.thumb_func
 1214              		.type	can_lld_is_tx_empty, %function
 1215              	can_lld_is_tx_empty:
 1216              	.LFB134:
 1217              		.loc 1 507 0
 1218              		.cfi_startproc
 1219              		@ args = 0, pretend = 0, frame = 0
 1220              		@ frame_needed = 0, uses_anonymous_args = 0
 1221              		@ link register save eliminated.
 1222              	.LVL96:
 1223              		.loc 1 509 0
 1224 0000 0329     		cmp	r1, #3
 1225 0002 1AD8     		bhi	.L119
 1226 0004 DFE801F0 		tbb	[pc, r1]
 1227              	.L115:
 1228 0008 11       		.byte	(.L114-.L115)/2
 1229 0009 0C       		.byte	(.L116-.L115)/2
ARM GAS  /tmp/cc0JeQDE.s 			page 23


 1230 000a 07       		.byte	(.L117-.L115)/2
 1231 000b 02       		.byte	(.L118-.L115)/2
 1232              		.p2align 1
 1233              	.L118:
 1234              		.loc 1 517 0
 1235 000c 436B     		ldr	r3, [r0, #52]
 1236 000e 9868     		ldr	r0, [r3, #8]
 1237              	.LVL97:
 1238 0010 C0F30070 		ubfx	r0, r0, #28, #1
 1239 0014 7047     		bx	lr
 1240              	.LVL98:
 1241              	.L117:
 1242              		.loc 1 515 0
 1243 0016 436B     		ldr	r3, [r0, #52]
 1244 0018 9868     		ldr	r0, [r3, #8]
 1245              	.LVL99:
 1246 001a C0F3C060 		ubfx	r0, r0, #27, #1
 1247 001e 7047     		bx	lr
 1248              	.LVL100:
 1249              	.L116:
 1250              		.loc 1 513 0
 1251 0020 436B     		ldr	r3, [r0, #52]
 1252 0022 9868     		ldr	r0, [r3, #8]
 1253              	.LVL101:
 1254 0024 C0F38060 		ubfx	r0, r0, #26, #1
 1255 0028 7047     		bx	lr
 1256              	.LVL102:
 1257              	.L114:
 1258              		.loc 1 511 0
 1259 002a 436B     		ldr	r3, [r0, #52]
 1260 002c 9B68     		ldr	r3, [r3, #8]
 1261 002e 13F0E05F 		tst	r3, #469762048
 1262 0032 0CBF     		ite	eq
 1263 0034 0020     		moveq	r0, #0
 1264 0036 0120     		movne	r0, #1
 1265              	.LVL103:
 1266 0038 7047     		bx	lr
 1267              	.LVL104:
 1268              	.L119:
 1269              		.loc 1 519 0
 1270 003a 0020     		movs	r0, #0
 1271              	.LVL105:
 1272              		.loc 1 521 0
 1273 003c 7047     		bx	lr
 1274              		.cfi_endproc
 1275              	.LFE134:
 1276              		.size	can_lld_is_tx_empty, .-can_lld_is_tx_empty
 1277 003e 00BF     		.section	.text.can_lld_transmit,"ax",%progbits
 1278              		.align	2
 1279              		.p2align 4,,15
 1280              		.global	can_lld_transmit
 1281              		.thumb
 1282              		.thumb_func
 1283              		.type	can_lld_transmit, %function
 1284              	can_lld_transmit:
 1285              	.LFB135:
 1286              		.loc 1 534 0
ARM GAS  /tmp/cc0JeQDE.s 			page 24


 1287              		.cfi_startproc
 1288              		@ args = 0, pretend = 0, frame = 0
 1289              		@ frame_needed = 0, uses_anonymous_args = 0
 1290              		@ link register save eliminated.
 1291              	.LVL106:
 1292 0000 10B4     		push	{r4}
 1293              		.cfi_def_cfa_offset 4
 1294              		.cfi_offset 4, -4
 1295              		.loc 1 539 0
 1296 0002 0329     		cmp	r1, #3
 1297 0004 1BD8     		bhi	.L120
 1298 0006 DFE801F0 		tbb	[pc, r1]
 1299              	.L123:
 1300 000a 2E       		.byte	(.L122-.L123)/2
 1301 000b 2A       		.byte	(.L124-.L123)/2
 1302 000c 1D       		.byte	(.L125-.L123)/2
 1303 000d 02       		.byte	(.L126-.L123)/2
 1304              		.p2align 1
 1305              	.L126:
 1306              		.loc 1 550 0
 1307 000e 436B     		ldr	r3, [r0, #52]
 1308 0010 03F5D073 		add	r3, r3, #416
 1309              	.LVL107:
 1310              	.L127:
 1311              		.loc 1 557 0
 1312 0014 1178     		ldrb	r1, [r2]	@ zero_extendqisi2
 1313 0016 8806     		lsls	r0, r1, #26
 1314              	.LVL108:
 1315 0018 1AD5     		bpl	.L128
 1316              	.L130:
 1317              		.loc 1 558 0
 1318 001a C1F30010 		ubfx	r0, r1, #4, #1
 1319 001e 5468     		ldr	r4, [r2, #4]
 1320 0020 4000     		lsls	r0, r0, #1
 1321 0022 40EAC400 		orr	r0, r0, r4, lsl #3
 1322 0026 40F00400 		orr	r0, r0, #4
 1323              	.LVL109:
 1324              	.L129:
 1325              		.loc 1 562 0
 1326 002a 01F00F01 		and	r1, r1, #15
 1327 002e 5960     		str	r1, [r3, #4]
 1328              		.loc 1 563 0
 1329 0030 9168     		ldr	r1, [r2, #8]
 1330 0032 9960     		str	r1, [r3, #8]
 1331              		.loc 1 564 0
 1332 0034 D268     		ldr	r2, [r2, #12]
 1333              	.LVL110:
 1334 0036 DA60     		str	r2, [r3, #12]
 1335              		.loc 1 565 0
 1336 0038 40F00101 		orr	r1, r0, #1
 1337 003c 1960     		str	r1, [r3]
 1338              	.LVL111:
 1339              	.L120:
 1340              		.loc 1 566 0
 1341 003e 5DF8044B 		ldr	r4, [sp], #4
 1342 0042 7047     		bx	lr
 1343              	.LVL112:
ARM GAS  /tmp/cc0JeQDE.s 			page 25


 1344              	.L125:
 1345              		.loc 1 557 0
 1346 0044 1178     		ldrb	r1, [r2]	@ zero_extendqisi2
 1347              	.LVL113:
 1348              		.loc 1 547 0
 1349 0046 436B     		ldr	r3, [r0, #52]
 1350              		.loc 1 557 0
 1351 0048 8806     		lsls	r0, r1, #26
 1352              	.LVL114:
 1353              		.loc 1 547 0
 1354 004a 03F5C873 		add	r3, r3, #400
 1355              	.LVL115:
 1356              		.loc 1 557 0
 1357 004e E4D4     		bmi	.L130
 1358              	.L128:
 1359              		.loc 1 561 0
 1360 0050 9488     		ldrh	r4, [r2, #4]
 1361 0052 C1F30010 		ubfx	r0, r1, #4, #1
 1362 0056 6405     		lsls	r4, r4, #21
 1363 0058 44EA4000 		orr	r0, r4, r0, lsl #1
 1364              	.LVL116:
 1365 005c E5E7     		b	.L129
 1366              	.LVL117:
 1367              	.L124:
 1368              		.loc 1 544 0
 1369 005e 436B     		ldr	r3, [r0, #52]
 1370 0060 03F5C073 		add	r3, r3, #384
 1371              	.LVL118:
 1372              		.loc 1 545 0
 1373 0064 D6E7     		b	.L127
 1374              	.LVL119:
 1375              	.L122:
 1376              		.loc 1 541 0
 1377 0066 416B     		ldr	r1, [r0, #52]
 1378              	.LVL120:
 1379 0068 8B68     		ldr	r3, [r1, #8]
 1380 006a C3F30163 		ubfx	r3, r3, #24, #2
 1381 006e 1833     		adds	r3, r3, #24
 1382 0070 01EB0313 		add	r3, r1, r3, lsl #4
 1383              	.LVL121:
 1384              		.loc 1 542 0
 1385 0074 CEE7     		b	.L127
 1386              		.cfi_endproc
 1387              	.LFE135:
 1388              		.size	can_lld_transmit, .-can_lld_transmit
 1389 0076 00BFAFF3 		.section	.text.can_lld_is_rx_nonempty,"ax",%progbits
 1389      0080AFF3 
 1389      0080
 1390              		.align	2
 1391              		.p2align 4,,15
 1392              		.global	can_lld_is_rx_nonempty
 1393              		.thumb
 1394              		.thumb_func
 1395              		.type	can_lld_is_rx_nonempty, %function
 1396              	can_lld_is_rx_nonempty:
 1397              	.LFB136:
 1398              		.loc 1 580 0
ARM GAS  /tmp/cc0JeQDE.s 			page 26


 1399              		.cfi_startproc
 1400              		@ args = 0, pretend = 0, frame = 0
 1401              		@ frame_needed = 0, uses_anonymous_args = 0
 1402              		@ link register save eliminated.
 1403              	.LVL122:
 1404              		.loc 1 582 0
 1405 0000 0129     		cmp	r1, #1
 1406 0002 11D0     		beq	.L133
 1407 0004 0AD3     		bcc	.L134
 1408 0006 0229     		cmp	r1, #2
 1409 0008 06D1     		bne	.L141
 1410              		.loc 1 589 0
 1411 000a 436B     		ldr	r3, [r0, #52]
 1412              	.L140:
 1413 000c 1869     		ldr	r0, [r3, #16]
 1414              	.LVL123:
 1415 000e 10F00300 		ands	r0, r0, #3
 1416 0012 18BF     		it	ne
 1417 0014 0120     		movne	r0, #1
 1418 0016 7047     		bx	lr
 1419              	.LVL124:
 1420              	.L141:
 1421              		.loc 1 591 0
 1422 0018 0020     		movs	r0, #0
 1423              	.LVL125:
 1424              		.loc 1 593 0
 1425 001a 7047     		bx	lr
 1426              	.LVL126:
 1427              	.L134:
 1428              		.loc 1 584 0
 1429 001c 436B     		ldr	r3, [r0, #52]
 1430 001e DA68     		ldr	r2, [r3, #12]
 1431 0020 9207     		lsls	r2, r2, #30
 1432 0022 F3D0     		beq	.L140
 1433 0024 0120     		movs	r0, #1
 1434              	.LVL127:
 1435 0026 7047     		bx	lr
 1436              	.LVL128:
 1437              	.L133:
 1438              		.loc 1 587 0
 1439 0028 436B     		ldr	r3, [r0, #52]
 1440 002a D868     		ldr	r0, [r3, #12]
 1441              	.LVL129:
 1442 002c 10F00300 		ands	r0, r0, #3
 1443 0030 18BF     		it	ne
 1444 0032 0120     		movne	r0, #1
 1445 0034 7047     		bx	lr
 1446              		.cfi_endproc
 1447              	.LFE136:
 1448              		.size	can_lld_is_rx_nonempty, .-can_lld_is_rx_nonempty
 1449 0036 00BFAFF3 		.section	.text.can_lld_receive,"ax",%progbits
 1449      0080AFF3 
 1449      0080
 1450              		.align	2
 1451              		.p2align 4,,15
 1452              		.global	can_lld_receive
 1453              		.thumb
ARM GAS  /tmp/cc0JeQDE.s 			page 27


 1454              		.thumb_func
 1455              		.type	can_lld_receive, %function
 1456              	can_lld_receive:
 1457              	.LFB137:
 1458              		.loc 1 606 0
 1459              		.cfi_startproc
 1460              		@ args = 0, pretend = 0, frame = 0
 1461              		@ frame_needed = 0, uses_anonymous_args = 0
 1462              		@ link register save eliminated.
 1463              	.LVL130:
 1464 0000 10B4     		push	{r4}
 1465              		.cfi_def_cfa_offset 4
 1466              		.cfi_offset 4, -4
 1467              		.loc 1 609 0
 1468 0002 0029     		cmp	r1, #0
 1469 0004 30D1     		bne	.L143
 1470              		.loc 1 610 0
 1471 0006 436B     		ldr	r3, [r0, #52]
 1472 0008 D968     		ldr	r1, [r3, #12]
 1473              	.LVL131:
 1474 000a 8907     		lsls	r1, r1, #30
 1475 000c 33D0     		beq	.L152
 1476              	.L144:
 1477              	.LVL132:
 1478              		.loc 1 622 0
 1479 000e D3F8B041 		ldr	r4, [r3, #432]
 1480              	.LVL133:
 1481              		.loc 1 623 0
 1482 0012 D3F8B411 		ldr	r1, [r3, #436]
 1483              	.LVL134:
 1484              		.loc 1 624 0
 1485 0016 D3F8B831 		ldr	r3, [r3, #440]
 1486 001a D360     		str	r3, [r2, #12]
 1487              		.loc 1 625 0
 1488 001c 436B     		ldr	r3, [r0, #52]
 1489 001e D3F8BC31 		ldr	r3, [r3, #444]
 1490 0022 1361     		str	r3, [r2, #16]
 1491              		.loc 1 628 0
 1492 0024 436B     		ldr	r3, [r0, #52]
 1493 0026 2020     		movs	r0, #32
 1494              	.LVL135:
 1495 0028 D860     		str	r0, [r3, #12]
 1496              		.loc 1 632 0
 1497 002a D868     		ldr	r0, [r3, #12]
 1498 002c 8007     		lsls	r0, r0, #30
 1499 002e 41D0     		beq	.L153
 1500              	.L149:
 1501              		.loc 1 656 0
 1502 0030 1079     		ldrb	r0, [r2, #4]	@ zero_extendqisi2
 1503 0032 C4F34003 		ubfx	r3, r4, #1, #1
 1504 0036 63F30410 		bfi	r0, r3, #4, #1
 1505              		.loc 1 657 0
 1506 003a C4F38003 		ubfx	r3, r4, #2, #1
 1507 003e 63F34510 		bfi	r0, r3, #5, #1
 1508 0042 1071     		strb	r0, [r2, #4]
 1509              		.loc 1 658 0
 1510 0044 002B     		cmp	r3, #0
ARM GAS  /tmp/cc0JeQDE.s 			page 28


 1511 0046 2FD0     		beq	.L150
 1512              		.loc 1 659 0
 1513 0048 9368     		ldr	r3, [r2, #8]
 1514 004a E408     		lsrs	r4, r4, #3
 1515              	.LVL136:
 1516 004c 64F31C03 		bfi	r3, r4, #0, #29
 1517 0050 9360     		str	r3, [r2, #8]
 1518              	.L151:
 1519              		.loc 1 662 0
 1520 0052 1379     		ldrb	r3, [r2, #4]	@ zero_extendqisi2
 1521              		.loc 1 665 0
 1522 0054 5DF8044B 		ldr	r4, [sp], #4
 1523              		.loc 1 663 0
 1524 0058 080A     		lsrs	r0, r1, #8
 1525              		.loc 1 662 0
 1526 005a 61F30303 		bfi	r3, r1, #0, #4
 1527              		.loc 1 664 0
 1528 005e 090C     		lsrs	r1, r1, #16
 1529              	.LVL137:
 1530              		.loc 1 662 0
 1531 0060 1371     		strb	r3, [r2, #4]
 1532              		.loc 1 663 0
 1533 0062 1070     		strb	r0, [r2]
 1534              		.loc 1 664 0
 1535 0064 5180     		strh	r1, [r2, #2]	@ movhi
 1536              		.loc 1 665 0
 1537 0066 7047     		bx	lr
 1538              	.LVL138:
 1539              	.L143:
 1540              		.loc 1 619 0
 1541 0068 0129     		cmp	r1, #1
 1542 006a 28D0     		beq	.L147
 1543 006c 0229     		cmp	r1, #2
 1544 006e 28D0     		beq	.L154
 1545              	.LVL139:
 1546              	.L142:
 1547              		.loc 1 665 0
 1548 0070 5DF8044B 		ldr	r4, [sp], #4
 1549 0074 7047     		bx	lr
 1550              	.L152:
 1551              		.loc 1 612 0
 1552 0076 1969     		ldr	r1, [r3, #16]
 1553 0078 8C07     		lsls	r4, r1, #30
 1554 007a F9D0     		beq	.L142
 1555              	.L145:
 1556              	.LVL140:
 1557              		.loc 1 637 0
 1558 007c D3F8C041 		ldr	r4, [r3, #448]
 1559              	.LVL141:
 1560              		.loc 1 638 0
 1561 0080 D3F8C411 		ldr	r1, [r3, #452]
 1562              	.LVL142:
 1563              		.loc 1 639 0
 1564 0084 D3F8C831 		ldr	r3, [r3, #456]
 1565 0088 D360     		str	r3, [r2, #12]
 1566              		.loc 1 640 0
 1567 008a 436B     		ldr	r3, [r0, #52]
ARM GAS  /tmp/cc0JeQDE.s 			page 29


 1568 008c D3F8CC31 		ldr	r3, [r3, #460]
 1569 0090 1361     		str	r3, [r2, #16]
 1570              		.loc 1 643 0
 1571 0092 436B     		ldr	r3, [r0, #52]
 1572 0094 2020     		movs	r0, #32
 1573              	.LVL143:
 1574 0096 1861     		str	r0, [r3, #16]
 1575              		.loc 1 647 0
 1576 0098 1869     		ldr	r0, [r3, #16]
 1577 009a 8007     		lsls	r0, r0, #30
 1578 009c C8D1     		bne	.L149
 1579              		.loc 1 648 0
 1580 009e 5869     		ldr	r0, [r3, #20]
 1581 00a0 40F01000 		orr	r0, r0, #16
 1582 00a4 5861     		str	r0, [r3, #20]
 1583 00a6 C3E7     		b	.L149
 1584              	.L150:
 1585              		.loc 1 661 0
 1586 00a8 1389     		ldrh	r3, [r2, #8]
 1587 00aa 640D     		lsrs	r4, r4, #21
 1588              	.LVL144:
 1589 00ac 64F30A03 		bfi	r3, r4, #0, #11
 1590 00b0 1381     		strh	r3, [r2, #8]	@ movhi
 1591 00b2 CEE7     		b	.L151
 1592              	.LVL145:
 1593              	.L153:
 1594              		.loc 1 633 0
 1595 00b4 5869     		ldr	r0, [r3, #20]
 1596 00b6 40F00200 		orr	r0, r0, #2
 1597 00ba 5861     		str	r0, [r3, #20]
 1598 00bc B8E7     		b	.L149
 1599              	.LVL146:
 1600              	.L147:
 1601 00be 436B     		ldr	r3, [r0, #52]
 1602 00c0 A5E7     		b	.L144
 1603              	.L154:
 1604 00c2 436B     		ldr	r3, [r0, #52]
 1605 00c4 DAE7     		b	.L145
 1606              		.cfi_endproc
 1607              	.LFE137:
 1608              		.size	can_lld_receive, .-can_lld_receive
 1609 00c6 00BFAFF3 		.section	.text.can_lld_sleep,"ax",%progbits
 1609      0080AFF3 
 1609      0080
 1610              		.align	2
 1611              		.p2align 4,,15
 1612              		.global	can_lld_sleep
 1613              		.thumb
 1614              		.thumb_func
 1615              		.type	can_lld_sleep, %function
 1616              	can_lld_sleep:
 1617              	.LFB138:
 1618              		.loc 1 675 0
 1619              		.cfi_startproc
 1620              		@ args = 0, pretend = 0, frame = 0
 1621              		@ frame_needed = 0, uses_anonymous_args = 0
 1622              		@ link register save eliminated.
ARM GAS  /tmp/cc0JeQDE.s 			page 30


 1623              	.LVL147:
 1624              		.loc 1 677 0
 1625 0000 436B     		ldr	r3, [r0, #52]
 1626 0002 1A68     		ldr	r2, [r3]
 1627 0004 42F00202 		orr	r2, r2, #2
 1628 0008 1A60     		str	r2, [r3]
 1629 000a 7047     		bx	lr
 1630              		.cfi_endproc
 1631              	.LFE138:
 1632              		.size	can_lld_sleep, .-can_lld_sleep
 1633 000c AFF30080 		.section	.text.can_lld_wakeup,"ax",%progbits
 1634              		.align	2
 1635              		.p2align 4,,15
 1636              		.global	can_lld_wakeup
 1637              		.thumb
 1638              		.thumb_func
 1639              		.type	can_lld_wakeup, %function
 1640              	can_lld_wakeup:
 1641              	.LFB139:
 1642              		.loc 1 687 0
 1643              		.cfi_startproc
 1644              		@ args = 0, pretend = 0, frame = 0
 1645              		@ frame_needed = 0, uses_anonymous_args = 0
 1646              		@ link register save eliminated.
 1647              	.LVL148:
 1648              		.loc 1 689 0
 1649 0000 436B     		ldr	r3, [r0, #52]
 1650 0002 1A68     		ldr	r2, [r3]
 1651 0004 22F00202 		bic	r2, r2, #2
 1652 0008 1A60     		str	r2, [r3]
 1653 000a 7047     		bx	lr
 1654              		.cfi_endproc
 1655              	.LFE139:
 1656              		.size	can_lld_wakeup, .-can_lld_wakeup
 1657 000c AFF30080 		.section	.text.canSTM32SetFilters,"ax",%progbits
 1658              		.align	2
 1659              		.p2align 4,,15
 1660              		.global	canSTM32SetFilters
 1661              		.thumb
 1662              		.thumb_func
 1663              		.type	canSTM32SetFilters, %function
 1664              	canSTM32SetFilters:
 1665              	.LFB140:
 1666              		.loc 1 705 0
 1667              		.cfi_startproc
 1668              		@ args = 0, pretend = 0, frame = 0
 1669              		@ frame_needed = 0, uses_anonymous_args = 0
 1670              		@ link register save eliminated.
 1671              	.LVL149:
 1672              		.loc 1 720 0
 1673 0000 FFF7FEBF 		b	can_lld_set_filters
 1674              	.LVL150:
 1675              		.cfi_endproc
 1676              	.LFE140:
 1677              		.size	canSTM32SetFilters, .-canSTM32SetFilters
 1678              		.global	CAND2
 1679              		.global	CAND1
ARM GAS  /tmp/cc0JeQDE.s 			page 31


 1680 0004 AFF30080 		.section	.bss.CAND1,"aw",%nobits
 1680      AFF30080 
 1680      AFF30080 
 1681              		.align	2
 1682              		.set	.LANCHOR0,. + 0
 1683              		.type	CAND1, %object
 1684              		.size	CAND1, 56
 1685              	CAND1:
 1686 0000 00000000 		.space	56
 1686      00000000 
 1686      00000000 
 1686      00000000 
 1686      00000000 
 1687              		.section	.bss.CAND2,"aw",%nobits
 1688              		.align	2
 1689              		.set	.LANCHOR1,. + 0
 1690              		.type	CAND2, %object
 1691              		.size	CAND2, 56
 1692              	CAND2:
 1693 0000 00000000 		.space	56
 1693      00000000 
 1693      00000000 
 1693      00000000 
 1693      00000000 
 1694              		.text
 1695              	.Letext0:
 1696              		.file 2 "/home/marco/SoftwareProjects/st-usb/tools/gcc-arm-none-eabi-4_8-2014q2/arm-none-eabi/incl
 1697              		.file 3 "/home/marco/SoftwareProjects/st-usb/tools/gcc-arm-none-eabi-4_8-2014q2/arm-none-eabi/incl
 1698              		.file 4 "/home/marco/SoftwareProjects/st-usb/f9xx/firmware/ext/ChibiOS-RT/os/ports/GCC/ARMCMx/chty
 1699              		.file 5 "/home/marco/SoftwareProjects/st-usb/f9xx/firmware/ext/ChibiOS-RT/os/kernel/include/chlist
 1700              		.file 6 "/home/marco/SoftwareProjects/st-usb/f9xx/firmware/ext/ChibiOS-RT/os/kernel/include/chthre
 1701              		.file 7 "/home/marco/SoftwareProjects/st-usb/f9xx/firmware/ext/ChibiOS-RT/os/ports/GCC/ARMCMx/chco
 1702              		.file 8 "/home/marco/SoftwareProjects/st-usb/f9xx/firmware/ext/ChibiOS-RT/os/kernel/include/chsem.
 1703              		.file 9 "/home/marco/SoftwareProjects/st-usb/f9xx/firmware/ext/ChibiOS-RT/os/kernel/include/chmtx.
 1704              		.file 10 "/home/marco/SoftwareProjects/st-usb/f9xx/firmware/ext/ChibiOS-RT/os/kernel/include/cheve
 1705              		.file 11 "/home/marco/SoftwareProjects/st-usb/f9xx/firmware/ext/ChibiOS-RT/os/hal/platforms/STM32F
 1706              		.file 12 "/home/marco/SoftwareProjects/st-usb/f9xx/firmware/ext/ChibiOS-RT/os/hal/include/can.h"
 1707              		.file 13 "/home/marco/SoftwareProjects/st-usb/f9xx/firmware/ext/ChibiOS-RT/os/hal/platforms/STM32/
 1708              		.file 14 "/home/marco/SoftwareProjects/st-usb/f9xx/firmware/ext/ChibiOS-RT/os/ports/common/ARMCMx/
 1709              		.file 15 "/home/marco/SoftwareProjects/st-usb/f9xx/firmware/ext/ChibiOS-RT/os/ports/common/ARMCMx/
 1710              		.file 16 "/home/marco/SoftwareProjects/st-usb/f9xx/firmware/ext/ChibiOS-RT/os/kernel/include/chsch