ARM GAS  /tmp/ccqRcoio.s 			page 1


   1              		.syntax unified
   2              		.cpu cortex-m4
   3              		.fpu softvfp
   4              		.eabi_attribute 20, 1
   5              		.eabi_attribute 21, 1
   6              		.eabi_attribute 23, 3
   7              		.eabi_attribute 24, 1
   8              		.eabi_attribute 25, 1
   9              		.eabi_attribute 26, 1
  10              		.eabi_attribute 30, 2
  11              		.eabi_attribute 34, 1
  12              		.eabi_attribute 18, 4
  13              		.thumb
  14              		.file	"hal.c"
  15              		.text
  16              	.Ltext0:
  17              		.cfi_sections	.debug_frame
  18              		.section	.text.halInit,"ax",%progbits
  19              		.align	2
  20              		.p2align 4,,15
  21              		.global	halInit
  22              		.thumb
  23              		.thumb_func
  24              		.type	halInit, %function
  25              	halInit:
  26              	.LFB118:
  27              		.file 1 "/home/marco/SoftwareProjects/st-usb/f9xx/firmware/ext/ChibiOS-RT/os/hal/src/hal.c"
  28              		.loc 1 68 0
  29              		.cfi_startproc
  30              		@ args = 0, pretend = 0, frame = 0
  31              		@ frame_needed = 0, uses_anonymous_args = 0
  32 0000 08B5     		push	{r3, lr}
  33              		.cfi_def_cfa_offset 8
  34              		.cfi_offset 3, -8
  35              		.cfi_offset 14, -4
  36              		.loc 1 70 0
  37 0002 FFF7FEFF 		bl	hal_lld_init
  38              	.LVL0:
  39              		.loc 1 76 0
  40 0006 0A48     		ldr	r0, .L2
  41 0008 FFF7FEFF 		bl	_pal_lld_init
  42              	.LVL1:
  43              		.loc 1 79 0
  44 000c FFF7FEFF 		bl	adcInit
  45              	.LVL2:
  46              		.loc 1 82 0
  47 0010 FFF7FEFF 		bl	canInit
  48              	.LVL3:
  49              		.loc 1 100 0
  50 0014 FFF7FEFF 		bl	pwmInit
  51              	.LVL4:
  52              		.loc 1 103 0
  53 0018 FFF7FEFF 		bl	sdInit
  54              	.LVL5:
  55              		.loc 1 109 0
  56 001c FFF7FEFF 		bl	spiInit
  57              	.LVL6:
ARM GAS  /tmp/ccqRcoio.s 			page 2


  58              		.loc 1 115 0
  59 0020 FFF7FEFF 		bl	usbInit
  60              	.LVL7:
  61              		.loc 1 121 0
  62 0024 FFF7FEFF 		bl	sduInit
  63              	.LVL8:
  64              		.loc 1 128 0
  65 0028 BDE80840 		pop	{r3, lr}
  66              		.loc 1 127 0
  67 002c FFF7FEBF 		b	boardInit
  68              	.LVL9:
  69              	.L3:
  70              		.align	2
  71              	.L2:
  72 0030 00000000 		.word	pal_default_config
  73              		.cfi_endproc
  74              	.LFE118:
  75              		.size	halInit, .-halInit
  76 0034 AFF30080 		.section	.text.halIsCounterWithin,"ax",%progbits
  76      AFF30080 
  76      AFF30080 
  77              		.align	2
  78              		.p2align 4,,15
  79              		.global	halIsCounterWithin
  80              		.thumb
  81              		.thumb_func
  82              		.type	halIsCounterWithin, %function
  83              	halIsCounterWithin:
  84              	.LFB119:
  85              		.loc 1 174 0
  86              		.cfi_startproc
  87              		@ args = 0, pretend = 0, frame = 0
  88              		@ frame_needed = 0, uses_anonymous_args = 0
  89              		@ link register save eliminated.
  90              	.LVL10:
  91              		.loc 1 175 0
  92 0000 084B     		ldr	r3, .L13
  93              		.loc 1 177 0
  94 0002 8142     		cmp	r1, r0
  95              		.loc 1 175 0
  96 0004 5B68     		ldr	r3, [r3, #4]
  97              	.LVL11:
  98              		.loc 1 177 0
  99 0006 06D9     		bls	.L5
 100              		.loc 1 177 0 is_stmt 0 discriminator 1
 101 0008 8342     		cmp	r3, r0
 102 000a 08D3     		bcc	.L9
 103              	.L11:
 104 000c 8B42     		cmp	r3, r1
 105 000e 2CBF     		ite	cs
 106 0010 0020     		movcs	r0, #0
 107              	.LVL12:
 108 0012 0120     		movcc	r0, #1
 109 0014 7047     		bx	lr
 110              	.LVL13:
 111              	.L5:
 112              		.loc 1 178 0 is_stmt 1
ARM GAS  /tmp/ccqRcoio.s 			page 3


 113 0016 8342     		cmp	r3, r0
 114 0018 F8D3     		bcc	.L11
 115 001a 0120     		movs	r0, #1
 116              	.LVL14:
 117              		.loc 1 179 0
 118 001c 7047     		bx	lr
 119              	.LVL15:
 120              	.L9:
 121 001e 0020     		movs	r0, #0
 122              	.LVL16:
 123 0020 7047     		bx	lr
 124              	.L14:
 125 0022 00BF     		.align	2
 126              	.L13:
 127 0024 001000E0 		.word	-536866816
 128              		.cfi_endproc
 129              	.LFE119:
 130              		.size	halIsCounterWithin, .-halIsCounterWithin
 131 0028 AFF30080 		.section	.text.halPolledDelay,"ax",%progbits
 131      AFF30080 
 132              		.align	2
 133              		.p2align 4,,15
 134              		.global	halPolledDelay
 135              		.thumb
 136              		.thumb_func
 137              		.type	halPolledDelay, %function
 138              	halPolledDelay:
 139              	.LFB120:
 140              		.loc 1 193 0
 141              		.cfi_startproc
 142              		@ args = 0, pretend = 0, frame = 0
 143              		@ frame_needed = 0, uses_anonymous_args = 0
 144              		@ link register save eliminated.
 145              	.LVL17:
 146              		.loc 1 194 0
 147 0000 0C49     		ldr	r1, .L26
 148 0002 4A68     		ldr	r2, [r1, #4]
 149              	.LVL18:
 150              		.loc 1 195 0
 151 0004 1044     		add	r0, r0, r2
 152              	.LVL19:
 153              	.L21:
 154              	.LBB4:
 155              	.LBB5:
 156              		.loc 1 177 0 discriminator 1
 157 0006 8242     		cmp	r2, r0
 158              		.loc 1 175 0 discriminator 1
 159 0008 4B68     		ldr	r3, [r1, #4]
 160              	.LVL20:
 161              		.loc 1 177 0 discriminator 1
 162 000a 0CD2     		bcs	.L16
 163              		.loc 1 177 0 is_stmt 0
 164 000c 9A42     		cmp	r2, r3
 165 000e 03D9     		bls	.L24
 166 0010 0023     		movs	r3, #0
 167              	.LVL21:
 168              	.LBE5:
ARM GAS  /tmp/ccqRcoio.s 			page 4


 169              	.LBE4:
 170              		.loc 1 196 0 is_stmt 1
 171 0012 002B     		cmp	r3, #0
 172 0014 F7D1     		bne	.L21
 173              	.L25:
 174              		.loc 1 198 0
 175 0016 7047     		bx	lr
 176              	.LVL22:
 177              	.L24:
 178 0018 9842     		cmp	r0, r3
 179 001a 94BF     		ite	ls
 180 001c 0023     		movls	r3, #0
 181              	.LVL23:
 182 001e 0123     		movhi	r3, #1
 183              		.loc 1 196 0
 184 0020 002B     		cmp	r3, #0
 185 0022 F0D1     		bne	.L21
 186 0024 F7E7     		b	.L25
 187              	.LVL24:
 188              	.L16:
 189              	.LBB7:
 190              	.LBB6:
 191              		.loc 1 178 0
 192 0026 9A42     		cmp	r2, r3
 193 0028 F6D8     		bhi	.L24
 194 002a 0123     		movs	r3, #1
 195              	.LVL25:
 196              	.LBE6:
 197              	.LBE7:
 198              		.loc 1 196 0
 199 002c 002B     		cmp	r3, #0
 200 002e EAD1     		bne	.L21
 201 0030 F1E7     		b	.L25
 202              	.L27:
 203 0032 00BF     		.align	2
 204              	.L26:
 205 0034 001000E0 		.word	-536866816
 206              		.cfi_endproc
 207              	.LFE120:
 208              		.size	halPolledDelay, .-halPolledDelay
 209 0038 AFF30080 		.text
 209      AFF30080 
 210              	.Letext0:
 211              		.file 2 "/home/marco/SoftwareProjects/st-usb/tools/gcc-arm-none-eabi-4_8-2014q2/arm-none-eabi/incl
 212              		.file 3 "/home/marco/SoftwareProjects/st-usb/tools/gcc-arm-none-eabi-4_8-2014q2/arm-none-eabi/incl
 213              		.file 4 "/home/marco/SoftwareProjects/st-usb/f9xx/firmware/ext/ChibiOS-RT/os/ports/GCC/ARMCMx/chty
 214              		.file 5 "/home/marco/SoftwareProjects/st-usb/f9xx/firmware/ext/ChibiOS-RT/os/ports/common/ARMCMx/n
 215              		.file 6 "/home/marco/SoftwareProjects/st-usb/f9xx/firmware/ext/ChibiOS-RT/os/hal/platforms/STM32F4
 216              		.file 7 "/home/marco/SoftwareProjects/st-usb/f9xx/firmware/ext/ChibiOS-RT/os/hal/platforms/STM32/G
 217              		.file 8 "/home/marco/SoftwareProjects/st-usb/f9xx/firmware/ext/ChibiOS-RT/os/ports/common/ARMCMx/C
 218              		.file 9 "/home/marco/SoftwareProjects/st-usb/f9xx/firmware/ext/ChibiOS-RT/os/hal/include/adc.h"
 219              		.file 10 "/home/marco/SoftwareProjects/st-usb/f9xx/firmware/ext/ChibiOS-RT/os/hal/include/can.h"
 220              		.file 11 "/home/marco/SoftwareProjects/st-usb/f9xx/firmware/ext/ChibiOS-RT/os/hal/include/pwm.h"
 221              		.file 12 "/home/marco/SoftwareProjects/st-usb/f9xx/firmware/ext/ChibiOS-RT/os/hal/include/serial.h
 222              		.file 13 "/home/marco/SoftwareProjects/st-usb/f9xx/firmware/ext/ChibiOS-RT/os/hal/include/spi.h"
 223              		.file 14 "/home/marco/SoftwareProjects/st-usb/f9xx/firmware/ext/ChibiOS-RT/os/hal/include/usb.h"
 224              		.file 15 "/home/marco/SoftwareProjects/st-usb/f9xx/firmware/ext/ChibiOS-RT/os/hal/include/serial_u
ARM GAS  /tmp/ccqRcoio.s 			page 5


 225              		.file 16 "/home/marco/SoftwareProjects/st-usb/f9xx/firmware/ext/ChibiOS-RT/boards/ST_STM32F4_DISCO