ARM GAS  /tmp/ccc6RK6s.s 			page 1


   1              		.syntax unified
   2              		.cpu cortex-m4
   3              		.fpu softvfp
   4              		.eabi_attribute 20, 1
   5              		.eabi_attribute 21, 1
   6              		.eabi_attribute 23, 3
   7              		.eabi_attribute 24, 1
   8              		.eabi_attribute 25, 1
   9              		.eabi_attribute 26, 1
  10              		.eabi_attribute 30, 2
  11              		.eabi_attribute 34, 1
  12              		.eabi_attribute 18, 4
  13              		.thumb
  14              		.file	"main.c"
  15              		.text
  16              	.Ltext0:
  17              		.cfi_sections	.debug_frame
  18              		.section	.text.pwmp_ARRcb,"ax",%progbits
  19              		.align	2
  20              		.p2align 4,,15
  21              		.thumb
  22              		.thumb_func
  23              		.type	pwmp_ARRcb, %function
  24              	pwmp_ARRcb:
  25              	.LFB118:
  26              		.file 1 "app/main.c"
  27              		.loc 1 12 0
  28              		.cfi_startproc
  29              		@ args = 0, pretend = 0, frame = 0
  30              		@ frame_needed = 0, uses_anonymous_args = 0
  31              		@ link register save eliminated.
  32              	.LVL0:
  33 0000 7047     		bx	lr
  34              		.cfi_endproc
  35              	.LFE118:
  36              		.size	pwmp_ARRcb, .-pwmp_ARRcb
  37 0002 00BFAFF3 		.section	.text.startup.main,"ax",%progbits
  37      0080AFF3 
  37      0080AFF3 
  37      0080
  38              		.align	2
  39              		.p2align 4,,15
  40              		.global	main
  41              		.thumb
  42              		.thumb_func
  43              		.type	main, %function
  44              	main:
  45              	.LFB122:
  46              		.loc 1 95 0
  47              		.cfi_startproc
  48              		@ Volatile: function does not return.
  49              		@ args = 0, pretend = 0, frame = 0
  50              		@ frame_needed = 0, uses_anonymous_args = 0
  51              		.loc 1 95 0
  52 0000 08B5     		push	{r3, lr}
  53              		.cfi_def_cfa_offset 8
  54              		.cfi_offset 3, -8
ARM GAS  /tmp/ccc6RK6s.s 			page 2


  55              		.cfi_offset 14, -4
  56              		.loc 1 97 0
  57 0002 FFF7FEFF 		bl	halInit
  58              	.LVL1:
  59              		.loc 1 98 0
  60 0006 FFF7FEFF 		bl	chSysInit
  61              	.LVL2:
  62              		.loc 1 100 0
  63 000a 1B4B     		ldr	r3, .L11
  64              		.loc 1 109 0
  65 000c 1B4C     		ldr	r4, .L11+4
  66              		.loc 1 101 0
  67 000e 4FF48040 		mov	r0, #16384
  68              		.loc 1 102 0
  69 0012 4FF48051 		mov	r1, #4096
  70              		.loc 1 103 0
  71 0016 4FF40052 		mov	r2, #8192
  72              		.loc 1 100 0
  73 001a 4FF40045 		mov	r5, #32768
  74 001e 5D83     		strh	r5, [r3, #26]	@ movhi
  75              		.loc 1 101 0
  76 0020 5883     		strh	r0, [r3, #26]	@ movhi
  77              		.loc 1 102 0
  78 0022 5983     		strh	r1, [r3, #26]	@ movhi
  79              		.loc 1 103 0
  80 0024 5A83     		strh	r2, [r3, #26]	@ movhi
  81              		.loc 1 106 0
  82 0026 FFF7FEFF 		bl	init_usb_driver
  83              	.LVL3:
  84              		.loc 1 109 0
  85 002a 2378     		ldrb	r3, [r4]	@ zero_extendqisi2
  86 002c 042B     		cmp	r3, #4
  87 002e 05D0     		beq	.L5
  88              	.L6:
  89              		.loc 1 110 0
  90 0030 C820     		movs	r0, #200
  91 0032 FFF7FEFF 		bl	chThdSleep
  92              	.LVL4:
  93              		.loc 1 109 0
  94 0036 2378     		ldrb	r3, [r4]	@ zero_extendqisi2
  95 0038 042B     		cmp	r3, #4
  96 003a F9D1     		bne	.L6
  97              	.L5:
  98              		.loc 1 115 0
  99 003c 1048     		ldr	r0, .L11+8
 100 003e 1149     		ldr	r1, .L11+12
 101 0040 FFF7FEFF 		bl	pwmStart
 102              	.LVL5:
 103              		.loc 1 121 0
 104 0044 1048     		ldr	r0, .L11+16
 105 0046 4021     		movs	r1, #64
 106 0048 4FF48172 		mov	r2, #258
 107 004c FFF7FEFF 		bl	_pal_lld_setgroupmode
 108              	.LVL6:
 109              		.loc 1 122 0
 110 0050 0D48     		ldr	r0, .L11+16
 111 0052 4FF48071 		mov	r1, #256
ARM GAS  /tmp/ccc6RK6s.s 			page 3


 112 0056 4FF48172 		mov	r2, #258
 113 005a FFF7FEFF 		bl	_pal_lld_setgroupmode
 114              	.LVL7:
 115              		.loc 1 123 0
 116 005e 0A48     		ldr	r0, .L11+16
 117 0060 4FF40071 		mov	r1, #512
 118 0064 4FF48172 		mov	r2, #258
 119 0068 FFF7FEFF 		bl	_pal_lld_setgroupmode
 120              	.LVL8:
 121              	.L4:
 122              		.loc 1 131 0 discriminator 1
 123 006c 4FF0FF30 		mov	r0, #-1
 124 0070 FFF7FEFF 		bl	loop_tick
 125              	.LVL9:
 126 0074 FAE7     		b	.L4
 127              	.L12:
 128 0076 00BF     		.align	2
 129              	.L11:
 130 0078 000C0240 		.word	1073875968
 131 007c 00000000 		.word	USBD1
 132 0080 00000000 		.word	PWMD4
 133 0084 00000000 		.word	.LANCHOR0
 134 0088 00040240 		.word	1073873920
 135              		.cfi_endproc
 136              	.LFE122:
 137              		.size	main, .-main
 138              		.global	pwmcfg
 139 008c AFF30080 		.section	.data.pwmcfg,"aw",%progbits
 140              		.align	2
 141              		.set	.LANCHOR0,. + 0
 142              		.type	pwmcfg, %object
 143              		.size	pwmcfg, 52
 144              	pwmcfg:
 145 0000 A0860100 		.word	100000
 146 0004 8000     		.short	128
 147 0006 0000     		.space	2
 148 0008 00000000 		.word	pwmp_ARRcb
 149 000c 01000000 		.word	1
 150 0010 00000000 		.word	0
 151 0014 00000000 		.word	0
 152 0018 00000000 		.word	0
 153 001c 01000000 		.word	1
 154 0020 00000000 		.word	0
 155 0024 01000000 		.word	1
 156 0028 00000000 		.word	0
 157 002c 00000000 		.word	0
 158 0030 00000000 		.word	0
 159              		.text
 160              	.Letext0:
 161              		.file 2 "/home/marco/SoftwareProjects/st-usb/tools/gcc-arm-none-eabi-4_8-2014q2/lib/gcc/arm-none-e
 162              		.file 3 "/home/marco/SoftwareProjects/st-usb/tools/gcc-arm-none-eabi-4_8-2014q2/arm-none-eabi/incl
 163              		.file 4 "/home/marco/SoftwareProjects/st-usb/tools/gcc-arm-none-eabi-4_8-2014q2/arm-none-eabi/incl
 164              		.file 5 "/home/marco/SoftwareProjects/st-usb/f9xx/firmware/ext/ChibiOS-RT/os/ports/GCC/ARMCMx/chty
 165              		.file 6 "/home/marco/SoftwareProjects/st-usb/f9xx/firmware/ext/ChibiOS-RT/os/kernel/include/chlist
 166              		.file 7 "/home/marco/SoftwareProjects/st-usb/f9xx/firmware/ext/ChibiOS-RT/os/kernel/include/chthre
 167              		.file 8 "/home/marco/SoftwareProjects/st-usb/f9xx/firmware/ext/ChibiOS-RT/os/ports/GCC/ARMCMx/chco
 168              		.file 9 "/home/marco/SoftwareProjects/st-usb/f9xx/firmware/ext/ChibiOS-RT/os/kernel/include/chmtx.
ARM GAS  /tmp/ccc6RK6s.s 			page 4


 169              		.file 10 "/home/marco/SoftwareProjects/st-usb/f9xx/firmware/ext/ChibiOS-RT/os/kernel/include/chque
 170              		.file 11 "/home/marco/SoftwareProjects/st-usb/f9xx/firmware/ext/ChibiOS-RT/os/hal/platforms/STM32/
 171              		.file 12 "/home/marco/SoftwareProjects/st-usb/f9xx/firmware/ext/ChibiOS-RT/os/hal/include/pwm.h"
 172              		.file 13 "/home/marco/SoftwareProjects/st-usb/f9xx/firmware/ext/ChibiOS-RT/os/hal/platforms/STM32/
 173              		.file 14 "/home/marco/SoftwareProjects/st-usb/f9xx/firmware/ext/ChibiOS-RT/os/hal/platforms/STM32/
 174              		.file 15 "/home/marco/SoftwareProjects/st-usb/f9xx/firmware/ext/ChibiOS-RT/os/hal/include/usb.h"
 175              		.file 16 "/home/marco/SoftwareProjects/st-usb/f9xx/firmware/ext/ChibiOS-RT/os/hal/platforms/STM32/
 176              		.file 17 "/home/marco/SoftwareProjects/st-usb/f9xx/firmware/ext/ChibiOS-RT/os/hal/platforms/STM32/
 177              		.file 18 "/home/marco/SoftwareProjects/st-usb/f9xx/firmware/ext/ChibiOS-RT/os/ports/common/ARMCMx/
 178              		.file 19 "/home/marco/SoftwareProjects/st-usb/f9xx/firmware/ext/ChibiOS-RT/os/hal/include/hal.h"
 179              		.file 20 "/home/marco/SoftwareProjects/st-usb/f9xx/firmware/ext/ChibiOS-RT/os/kernel/include/chsys
 180              		.file 21 "app/usbcfg.h"
 181              		.file 22 "app/proto.h"
 182              		.section	.debug_info,"",%progbits
 183              	.Ldebug_info0:
 184 0000 01150000 		.4byte	0x1501
 185 0004 0400     		.2byte	0x4
 186 0006 00000000 		.4byte	.Ldebug_abbrev0
 187 000a 04       		.byte	0x4
 188 000b 01       		.uleb128 0x1
 189 000c 40060000 		.4byte	.LASF290
 190 0010 01       		.byte	0x1
 191 0011 3C030000 		.4byte	.LASF291
 192 0015 5C000000 		.4byte	.LASF292
 193 0019 00000000 		.4byte	.Ldebug_ranges0+0
 194 001d 00000000 		.4byte	0
 195 0021 00000000 		.4byte	.Ldebug_line0
 196 0025 02       		.uleb128 0x2
 197 0026 04       		.byte	0x4
 198 0027 05       		.byte	0x5
 199 0028 696E7400 		.ascii	"int\000"
 200 002c 03       		.uleb128 0x3
 201 002d 06000000 		.4byte	.LASF2
 202 0031 02       		.byte	0x2
 203 0032 D4       		.byte	0xd4
 204 0033 37000000 		.4byte	0x37
 205 0037 04       		.uleb128 0x4
 206 0038 04       		.byte	0x4
 207 0039 07       		.byte	0x7
 208 003a 84070000 		.4byte	.LASF0
 209 003e 04       		.uleb128 0x4
 210 003f 01       		.byte	0x1
 211 0040 06       		.byte	0x6
 212 0041 38020000 		.4byte	.LASF1
 213 0045 03       		.uleb128 0x3
 214 0046 45010000 		.4byte	.LASF3
 215 004a 03       		.byte	0x3
 216 004b 1C       		.byte	0x1c
 217 004c 50000000 		.4byte	0x50
 218 0050 04       		.uleb128 0x4
 219 0051 01       		.byte	0x1
 220 0052 08       		.byte	0x8
 221 0053 94020000 		.4byte	.LASF4
 222 0057 04       		.uleb128 0x4
 223 0058 02       		.byte	0x2
 224 0059 05       		.byte	0x5
 225 005a FF090000 		.4byte	.LASF5
ARM GAS  /tmp/ccc6RK6s.s 			page 5


 226 005e 03       		.uleb128 0x3
 227 005f 5D030000 		.4byte	.LASF6
 228 0063 03       		.byte	0x3
 229 0064 26       		.byte	0x26
 230 0065 69000000 		.4byte	0x69
 231 0069 04       		.uleb128 0x4
 232 006a 02       		.byte	0x2
 233 006b 07       		.byte	0x7
 234 006c 570B0000 		.4byte	.LASF7
 235 0070 03       		.uleb128 0x3
 236 0071 970B0000 		.4byte	.LASF8
 237 0075 03       		.byte	0x3
 238 0076 37       		.byte	0x37
 239 0077 7B000000 		.4byte	0x7b
 240 007b 04       		.uleb128 0x4
 241 007c 04       		.byte	0x4
 242 007d 05       		.byte	0x5
 243 007e 97010000 		.4byte	.LASF9
 244 0082 03       		.uleb128 0x3
 245 0083 EC050000 		.4byte	.LASF10
 246 0087 03       		.byte	0x3
 247 0088 38       		.byte	0x38
 248 0089 8D000000 		.4byte	0x8d
 249 008d 04       		.uleb128 0x4
 250 008e 04       		.byte	0x4
 251 008f 07       		.byte	0x7
 252 0090 F8040000 		.4byte	.LASF11
 253 0094 04       		.uleb128 0x4
 254 0095 08       		.byte	0x8
 255 0096 05       		.byte	0x5
 256 0097 06060000 		.4byte	.LASF12
 257 009b 03       		.uleb128 0x3
 258 009c E5040000 		.4byte	.LASF13
 259 00a0 03       		.byte	0x3
 260 00a1 4E       		.byte	0x4e
 261 00a2 A6000000 		.4byte	0xa6
 262 00a6 04       		.uleb128 0x4
 263 00a7 08       		.byte	0x8
 264 00a8 07       		.byte	0x7
 265 00a9 A8080000 		.4byte	.LASF14
 266 00ad 03       		.uleb128 0x3
 267 00ae 4E020000 		.4byte	.LASF15
 268 00b2 04       		.byte	0x4
 269 00b3 2A       		.byte	0x2a
 270 00b4 45000000 		.4byte	0x45
 271 00b8 03       		.uleb128 0x3
 272 00b9 D9080000 		.4byte	.LASF16
 273 00bd 04       		.byte	0x4
 274 00be 36       		.byte	0x36
 275 00bf 5E000000 		.4byte	0x5e
 276 00c3 03       		.uleb128 0x3
 277 00c4 46000000 		.4byte	.LASF17
 278 00c8 04       		.byte	0x4
 279 00c9 41       		.byte	0x41
 280 00ca 70000000 		.4byte	0x70
 281 00ce 03       		.uleb128 0x3
 282 00cf 190B0000 		.4byte	.LASF18
ARM GAS  /tmp/ccc6RK6s.s 			page 6


 283 00d3 04       		.byte	0x4
 284 00d4 42       		.byte	0x42
 285 00d5 82000000 		.4byte	0x82
 286 00d9 03       		.uleb128 0x3
 287 00da 110A0000 		.4byte	.LASF19
 288 00de 04       		.byte	0x4
 289 00df 4E       		.byte	0x4e
 290 00e0 9B000000 		.4byte	0x9b
 291 00e4 03       		.uleb128 0x3
 292 00e5 5F0A0000 		.4byte	.LASF20
 293 00e9 05       		.byte	0x5
 294 00ea 2B       		.byte	0x2b
 295 00eb EF000000 		.4byte	0xef
 296 00ef 04       		.uleb128 0x4
 297 00f0 01       		.byte	0x1
 298 00f1 02       		.byte	0x2
 299 00f2 EA020000 		.4byte	.LASF21
 300 00f6 03       		.uleb128 0x3
 301 00f7 B5090000 		.4byte	.LASF22
 302 00fb 05       		.byte	0x5
 303 00fc 2C       		.byte	0x2c
 304 00fd AD000000 		.4byte	0xad
 305 0101 03       		.uleb128 0x3
 306 0102 C7010000 		.4byte	.LASF23
 307 0106 05       		.byte	0x5
 308 0107 2D       		.byte	0x2d
 309 0108 AD000000 		.4byte	0xad
 310 010c 03       		.uleb128 0x3
 311 010d C80A0000 		.4byte	.LASF24
 312 0111 05       		.byte	0x5
 313 0112 2E       		.byte	0x2e
 314 0113 AD000000 		.4byte	0xad
 315 0117 03       		.uleb128 0x3
 316 0118 23090000 		.4byte	.LASF25
 317 011c 05       		.byte	0x5
 318 011d 2F       		.byte	0x2f
 319 011e AD000000 		.4byte	0xad
 320 0122 03       		.uleb128 0x3
 321 0123 26000000 		.4byte	.LASF26
 322 0127 05       		.byte	0x5
 323 0128 30       		.byte	0x30
 324 0129 CE000000 		.4byte	0xce
 325 012d 03       		.uleb128 0x3
 326 012e EF080000 		.4byte	.LASF27
 327 0132 05       		.byte	0x5
 328 0133 31       		.byte	0x31
 329 0134 C3000000 		.4byte	0xc3
 330 0138 03       		.uleb128 0x3
 331 0139 70020000 		.4byte	.LASF28
 332 013d 05       		.byte	0x5
 333 013e 33       		.byte	0x33
 334 013f CE000000 		.4byte	0xce
 335 0143 03       		.uleb128 0x3
 336 0144 16000000 		.4byte	.LASF29
 337 0148 05       		.byte	0x5
 338 0149 35       		.byte	0x35
 339 014a CE000000 		.4byte	0xce
ARM GAS  /tmp/ccc6RK6s.s 			page 7


 340 014e 03       		.uleb128 0x3
 341 014f 910A0000 		.4byte	.LASF30
 342 0153 06       		.byte	0x6
 343 0154 2A       		.byte	0x2a
 344 0155 59010000 		.4byte	0x159
 345 0159 05       		.uleb128 0x5
 346 015a 910A0000 		.4byte	.LASF30
 347 015e 48       		.byte	0x48
 348 015f 07       		.byte	0x7
 349 0160 5E       		.byte	0x5e
 350 0161 56020000 		.4byte	0x256
 351 0165 06       		.uleb128 0x6
 352 0166 A0010000 		.4byte	.LASF31
 353 016a 07       		.byte	0x7
 354 016b 5F       		.byte	0x5f
 355 016c 77020000 		.4byte	0x277
 356 0170 00       		.byte	0
 357 0171 06       		.uleb128 0x6
 358 0172 B5010000 		.4byte	.LASF32
 359 0176 07       		.byte	0x7
 360 0177 61       		.byte	0x61
 361 0178 77020000 		.4byte	0x277
 362 017c 04       		.byte	0x4
 363 017d 06       		.uleb128 0x6
 364 017e 4C030000 		.4byte	.LASF33
 365 0182 07       		.byte	0x7
 366 0183 63       		.byte	0x63
 367 0184 22010000 		.4byte	0x122
 368 0188 08       		.byte	0x8
 369 0189 06       		.uleb128 0x6
 370 018a 20000000 		.4byte	.LASF34
 371 018e 07       		.byte	0x7
 372 018f 64       		.byte	0x64
 373 0190 3C030000 		.4byte	0x33c
 374 0194 0C       		.byte	0xc
 375 0195 06       		.uleb128 0x6
 376 0196 8F010000 		.4byte	.LASF35
 377 019a 07       		.byte	0x7
 378 019b 66       		.byte	0x66
 379 019c 77020000 		.4byte	0x277
 380 01a0 10       		.byte	0x10
 381 01a1 06       		.uleb128 0x6
 382 01a2 D1080000 		.4byte	.LASF36
 383 01a6 07       		.byte	0x7
 384 01a7 67       		.byte	0x67
 385 01a8 77020000 		.4byte	0x277
 386 01ac 14       		.byte	0x14
 387 01ad 06       		.uleb128 0x6
 388 01ae DE0B0000 		.4byte	.LASF37
 389 01b2 07       		.byte	0x7
 390 01b3 6E       		.byte	0x6e
 391 01b4 E5030000 		.4byte	0x3e5
 392 01b8 18       		.byte	0x18
 393 01b9 06       		.uleb128 0x6
 394 01ba 1E0C0000 		.4byte	.LASF38
 395 01be 07       		.byte	0x7
 396 01bf 79       		.byte	0x79
ARM GAS  /tmp/ccc6RK6s.s 			page 8


 397 01c0 01010000 		.4byte	0x101
 398 01c4 1C       		.byte	0x1c
 399 01c5 06       		.uleb128 0x6
 400 01c6 6D070000 		.4byte	.LASF39
 401 01ca 07       		.byte	0x7
 402 01cb 7D       		.byte	0x7d
 403 01cc F6000000 		.4byte	0xf6
 404 01d0 1D       		.byte	0x1d
 405 01d1 06       		.uleb128 0x6
 406 01d2 C2070000 		.4byte	.LASF40
 407 01d6 07       		.byte	0x7
 408 01d7 82       		.byte	0x82
 409 01d8 0C010000 		.4byte	0x10c
 410 01dc 1E       		.byte	0x1e
 411 01dd 06       		.uleb128 0x6
 412 01de 44020000 		.4byte	.LASF41
 413 01e2 07       		.byte	0x7
 414 01e3 88       		.byte	0x88
 415 01e4 17010000 		.4byte	0x117
 416 01e8 1F       		.byte	0x1f
 417 01e9 06       		.uleb128 0x6
 418 01ea 40080000 		.4byte	.LASF42
 419 01ee 07       		.byte	0x7
 420 01ef 8F       		.byte	0x8f
 421 01f0 69030000 		.4byte	0x369
 422 01f4 20       		.byte	0x20
 423 01f5 07       		.uleb128 0x7
 424 01f6 705F7500 		.ascii	"p_u\000"
 425 01fa 07       		.byte	0x7
 426 01fb B4       		.byte	0xb4
 427 01fc B0030000 		.4byte	0x3b0
 428 0200 24       		.byte	0x24
 429 0201 06       		.uleb128 0x6
 430 0202 5D070000 		.4byte	.LASF43
 431 0206 07       		.byte	0x7
 432 0207 B9       		.byte	0xb9
 433 0208 9D020000 		.4byte	0x29d
 434 020c 28       		.byte	0x28
 435 020d 06       		.uleb128 0x6
 436 020e 2E000000 		.4byte	.LASF44
 437 0212 07       		.byte	0x7
 438 0213 BF       		.byte	0xbf
 439 0214 7D020000 		.4byte	0x27d
 440 0218 2C       		.byte	0x2c
 441 0219 06       		.uleb128 0x6
 442 021a 180C0000 		.4byte	.LASF45
 443 021e 07       		.byte	0x7
 444 021f C3       		.byte	0xc3
 445 0220 2D010000 		.4byte	0x12d
 446 0224 34       		.byte	0x34
 447 0225 06       		.uleb128 0x6
 448 0226 6A040000 		.4byte	.LASF46
 449 022a 07       		.byte	0x7
 450 022b C9       		.byte	0xc9
 451 022c 38010000 		.4byte	0x138
 452 0230 38       		.byte	0x38
 453 0231 06       		.uleb128 0x6
ARM GAS  /tmp/ccc6RK6s.s 			page 9


 454 0232 E1010000 		.4byte	.LASF47
 455 0236 07       		.byte	0x7
 456 0237 D0       		.byte	0xd0
 457 0238 F7030000 		.4byte	0x3f7
 458 023c 3C       		.byte	0x3c
 459 023d 06       		.uleb128 0x6
 460 023e 61080000 		.4byte	.LASF48
 461 0242 07       		.byte	0x7
 462 0243 D4       		.byte	0xd4
 463 0244 22010000 		.4byte	0x122
 464 0248 40       		.byte	0x40
 465 0249 06       		.uleb128 0x6
 466 024a A5070000 		.4byte	.LASF49
 467 024e 07       		.byte	0x7
 468 024f DA       		.byte	0xda
 469 0250 B3020000 		.4byte	0x2b3
 470 0254 44       		.byte	0x44
 471 0255 00       		.byte	0
 472 0256 08       		.uleb128 0x8
 473 0257 08       		.byte	0x8
 474 0258 06       		.byte	0x6
 475 0259 61       		.byte	0x61
 476 025a 77020000 		.4byte	0x277
 477 025e 06       		.uleb128 0x6
 478 025f A0010000 		.4byte	.LASF31
 479 0263 06       		.byte	0x6
 480 0264 62       		.byte	0x62
 481 0265 77020000 		.4byte	0x277
 482 0269 00       		.byte	0
 483 026a 06       		.uleb128 0x6
 484 026b B5010000 		.4byte	.LASF32
 485 026f 06       		.byte	0x6
 486 0270 64       		.byte	0x64
 487 0271 77020000 		.4byte	0x277
 488 0275 04       		.byte	0x4
 489 0276 00       		.byte	0
 490 0277 09       		.uleb128 0x9
 491 0278 04       		.byte	0x4
 492 0279 4E010000 		.4byte	0x14e
 493 027d 03       		.uleb128 0x3
 494 027e 2A0B0000 		.4byte	.LASF50
 495 0282 06       		.byte	0x6
 496 0283 66       		.byte	0x66
 497 0284 56020000 		.4byte	0x256
 498 0288 08       		.uleb128 0x8
 499 0289 04       		.byte	0x4
 500 028a 06       		.byte	0x6
 501 028b 6B       		.byte	0x6b
 502 028c 9D020000 		.4byte	0x29d
 503 0290 06       		.uleb128 0x6
 504 0291 A0010000 		.4byte	.LASF31
 505 0295 06       		.byte	0x6
 506 0296 6D       		.byte	0x6d
 507 0297 77020000 		.4byte	0x277
 508 029b 00       		.byte	0
 509 029c 00       		.byte	0
 510 029d 03       		.uleb128 0x3
ARM GAS  /tmp/ccc6RK6s.s 			page 10


 511 029e EB070000 		.4byte	.LASF51
 512 02a2 06       		.byte	0x6
 513 02a3 70       		.byte	0x70
 514 02a4 88020000 		.4byte	0x288
 515 02a8 03       		.uleb128 0x3
 516 02a9 FA010000 		.4byte	.LASF52
 517 02ad 08       		.byte	0x8
 518 02ae E5       		.byte	0xe5
 519 02af B3020000 		.4byte	0x2b3
 520 02b3 0A       		.uleb128 0xa
 521 02b4 04       		.byte	0x4
 522 02b5 03       		.uleb128 0x3
 523 02b6 95030000 		.4byte	.LASF53
 524 02ba 08       		.byte	0x8
 525 02bb EB       		.byte	0xeb
 526 02bc D9000000 		.4byte	0xd9
 527 02c0 0B       		.uleb128 0xb
 528 02c1 63040000 		.4byte	.LASF54
 529 02c5 24       		.byte	0x24
 530 02c6 08       		.byte	0x8
 531 02c7 0C01     		.2byte	0x10c
 532 02c9 3C030000 		.4byte	0x33c
 533 02cd 0C       		.uleb128 0xc
 534 02ce 723400   		.ascii	"r4\000"
 535 02d1 08       		.byte	0x8
 536 02d2 1F01     		.2byte	0x11f
 537 02d4 A8020000 		.4byte	0x2a8
 538 02d8 00       		.byte	0
 539 02d9 0C       		.uleb128 0xc
 540 02da 723500   		.ascii	"r5\000"
 541 02dd 08       		.byte	0x8
 542 02de 2001     		.2byte	0x120
 543 02e0 A8020000 		.4byte	0x2a8
 544 02e4 04       		.byte	0x4
 545 02e5 0C       		.uleb128 0xc
 546 02e6 723600   		.ascii	"r6\000"
 547 02e9 08       		.byte	0x8
 548 02ea 2101     		.2byte	0x121
 549 02ec A8020000 		.4byte	0x2a8
 550 02f0 08       		.byte	0x8
 551 02f1 0C       		.uleb128 0xc
 552 02f2 723700   		.ascii	"r7\000"
 553 02f5 08       		.byte	0x8
 554 02f6 2201     		.2byte	0x122
 555 02f8 A8020000 		.4byte	0x2a8
 556 02fc 0C       		.byte	0xc
 557 02fd 0C       		.uleb128 0xc
 558 02fe 723800   		.ascii	"r8\000"
 559 0301 08       		.byte	0x8
 560 0302 2301     		.2byte	0x123
 561 0304 A8020000 		.4byte	0x2a8
 562 0308 10       		.byte	0x10
 563 0309 0C       		.uleb128 0xc
 564 030a 723900   		.ascii	"r9\000"
 565 030d 08       		.byte	0x8
 566 030e 2401     		.2byte	0x124
 567 0310 A8020000 		.4byte	0x2a8
ARM GAS  /tmp/ccc6RK6s.s 			page 11


 568 0314 14       		.byte	0x14
 569 0315 0C       		.uleb128 0xc
 570 0316 72313000 		.ascii	"r10\000"
 571 031a 08       		.byte	0x8
 572 031b 2501     		.2byte	0x125
 573 031d A8020000 		.4byte	0x2a8
 574 0321 18       		.byte	0x18
 575 0322 0C       		.uleb128 0xc
 576 0323 72313100 		.ascii	"r11\000"
 577 0327 08       		.byte	0x8
 578 0328 2601     		.2byte	0x126
 579 032a A8020000 		.4byte	0x2a8
 580 032e 1C       		.byte	0x1c
 581 032f 0C       		.uleb128 0xc
 582 0330 6C7200   		.ascii	"lr\000"
 583 0333 08       		.byte	0x8
 584 0334 2701     		.2byte	0x127
 585 0336 A8020000 		.4byte	0x2a8
 586 033a 20       		.byte	0x20
 587 033b 00       		.byte	0
 588 033c 0B       		.uleb128 0xb
 589 033d 7C020000 		.4byte	.LASF55
 590 0341 04       		.byte	0x4
 591 0342 08       		.byte	0x8
 592 0343 3101     		.2byte	0x131
 593 0345 57030000 		.4byte	0x357
 594 0349 0C       		.uleb128 0xc
 595 034a 72313300 		.ascii	"r13\000"
 596 034e 08       		.byte	0x8
 597 034f 3201     		.2byte	0x132
 598 0351 57030000 		.4byte	0x357
 599 0355 00       		.byte	0
 600 0356 00       		.byte	0
 601 0357 09       		.uleb128 0x9
 602 0358 04       		.byte	0x4
 603 0359 C0020000 		.4byte	0x2c0
 604 035d 0D       		.uleb128 0xd
 605 035e CE000000 		.4byte	0xce
 606 0362 04       		.uleb128 0x4
 607 0363 04       		.byte	0x4
 608 0364 07       		.byte	0x7
 609 0365 0D000000 		.4byte	.LASF56
 610 0369 0D       		.uleb128 0xd
 611 036a 43010000 		.4byte	0x143
 612 036e 05       		.uleb128 0x5
 613 036f 00060000 		.4byte	.LASF57
 614 0373 10       		.byte	0x10
 615 0374 09       		.byte	0x9
 616 0375 2C       		.byte	0x2c
 617 0376 9F030000 		.4byte	0x39f
 618 037a 06       		.uleb128 0x6
 619 037b 1E060000 		.4byte	.LASF58
 620 037f 09       		.byte	0x9
 621 0380 2D       		.byte	0x2d
 622 0381 7D020000 		.4byte	0x27d
 623 0385 00       		.byte	0
 624 0386 06       		.uleb128 0x6
ARM GAS  /tmp/ccc6RK6s.s 			page 12


 625 0387 21010000 		.4byte	.LASF59
 626 038b 09       		.byte	0x9
 627 038c 2F       		.byte	0x2f
 628 038d 77020000 		.4byte	0x277
 629 0391 08       		.byte	0x8
 630 0392 06       		.uleb128 0x6
 631 0393 E50B0000 		.4byte	.LASF60
 632 0397 09       		.byte	0x9
 633 0398 31       		.byte	0x31
 634 0399 9F030000 		.4byte	0x39f
 635 039d 0C       		.byte	0xc
 636 039e 00       		.byte	0
 637 039f 09       		.uleb128 0x9
 638 03a0 04       		.byte	0x4
 639 03a1 6E030000 		.4byte	0x36e
 640 03a5 03       		.uleb128 0x3
 641 03a6 00060000 		.4byte	.LASF57
 642 03aa 09       		.byte	0x9
 643 03ab 33       		.byte	0x33
 644 03ac 6E030000 		.4byte	0x36e
 645 03b0 0E       		.uleb128 0xe
 646 03b1 04       		.byte	0x4
 647 03b2 07       		.byte	0x7
 648 03b3 96       		.byte	0x96
 649 03b4 E5030000 		.4byte	0x3e5
 650 03b8 0F       		.uleb128 0xf
 651 03b9 500B0000 		.4byte	.LASF61
 652 03bd 07       		.byte	0x7
 653 03be 9D       		.byte	0x9d
 654 03bf 2D010000 		.4byte	0x12d
 655 03c3 0F       		.uleb128 0xf
 656 03c4 29010000 		.4byte	.LASF62
 657 03c8 07       		.byte	0x7
 658 03c9 A4       		.byte	0xa4
 659 03ca 2D010000 		.4byte	0x12d
 660 03ce 0F       		.uleb128 0xf
 661 03cf 75030000 		.4byte	.LASF63
 662 03d3 07       		.byte	0x7
 663 03d4 AB       		.byte	0xab
 664 03d5 B3020000 		.4byte	0x2b3
 665 03d9 0F       		.uleb128 0xf
 666 03da 55010000 		.4byte	.LASF64
 667 03de 07       		.byte	0x7
 668 03df B2       		.byte	0xb2
 669 03e0 38010000 		.4byte	0x138
 670 03e4 00       		.byte	0
 671 03e5 09       		.uleb128 0x9
 672 03e6 04       		.byte	0x4
 673 03e7 EB030000 		.4byte	0x3eb
 674 03eb 10       		.uleb128 0x10
 675 03ec F0030000 		.4byte	0x3f0
 676 03f0 04       		.uleb128 0x4
 677 03f1 01       		.byte	0x1
 678 03f2 08       		.byte	0x8
 679 03f3 21030000 		.4byte	.LASF65
 680 03f7 09       		.uleb128 0x9
 681 03f8 04       		.byte	0x4
ARM GAS  /tmp/ccc6RK6s.s 			page 13


 682 03f9 A5030000 		.4byte	0x3a5
 683 03fd 03       		.uleb128 0x3
 684 03fe 68030000 		.4byte	.LASF66
 685 0402 0A       		.byte	0xa
 686 0403 37       		.byte	0x37
 687 0404 08040000 		.4byte	0x408
 688 0408 05       		.uleb128 0x5
 689 0409 68030000 		.4byte	.LASF66
 690 040d 24       		.byte	0x24
 691 040e 0A       		.byte	0xa
 692 040f 45       		.byte	0x45
 693 0410 75040000 		.4byte	0x475
 694 0414 06       		.uleb128 0x6
 695 0415 AB090000 		.4byte	.LASF67
 696 0419 0A       		.byte	0xa
 697 041a 46       		.byte	0x46
 698 041b 7D020000 		.4byte	0x27d
 699 041f 00       		.byte	0
 700 0420 06       		.uleb128 0x6
 701 0421 D2040000 		.4byte	.LASF68
 702 0425 0A       		.byte	0xa
 703 0426 47       		.byte	0x47
 704 0427 2C000000 		.4byte	0x2c
 705 042b 08       		.byte	0x8
 706 042c 06       		.uleb128 0x6
 707 042d 62010000 		.4byte	.LASF69
 708 0431 0A       		.byte	0xa
 709 0432 48       		.byte	0x48
 710 0433 97040000 		.4byte	0x497
 711 0437 0C       		.byte	0xc
 712 0438 06       		.uleb128 0x6
 713 0439 4F010000 		.4byte	.LASF70
 714 043d 0A       		.byte	0xa
 715 043e 49       		.byte	0x49
 716 043f 97040000 		.4byte	0x497
 717 0443 10       		.byte	0x10
 718 0444 06       		.uleb128 0x6
 719 0445 4B050000 		.4byte	.LASF71
 720 0449 0A       		.byte	0xa
 721 044a 4B       		.byte	0x4b
 722 044b 97040000 		.4byte	0x497
 723 044f 14       		.byte	0x14
 724 0450 06       		.uleb128 0x6
 725 0451 A7010000 		.4byte	.LASF72
 726 0455 0A       		.byte	0xa
 727 0456 4C       		.byte	0x4c
 728 0457 97040000 		.4byte	0x497
 729 045b 18       		.byte	0x18
 730 045c 06       		.uleb128 0x6
 731 045d 86010000 		.4byte	.LASF73
 732 0461 0A       		.byte	0xa
 733 0462 4D       		.byte	0x4d
 734 0463 75040000 		.4byte	0x475
 735 0467 1C       		.byte	0x1c
 736 0468 06       		.uleb128 0x6
 737 0469 B0020000 		.4byte	.LASF74
 738 046d 0A       		.byte	0xa
ARM GAS  /tmp/ccc6RK6s.s 			page 14


 739 046e 4E       		.byte	0x4e
 740 046f B3020000 		.4byte	0x2b3
 741 0473 20       		.byte	0x20
 742 0474 00       		.byte	0
 743 0475 03       		.uleb128 0x3
 744 0476 53070000 		.4byte	.LASF75
 745 047a 0A       		.byte	0xa
 746 047b 3A       		.byte	0x3a
 747 047c 80040000 		.4byte	0x480
 748 0480 09       		.uleb128 0x9
 749 0481 04       		.byte	0x4
 750 0482 86040000 		.4byte	0x486
 751 0486 11       		.uleb128 0x11
 752 0487 91040000 		.4byte	0x491
 753 048b 12       		.uleb128 0x12
 754 048c 91040000 		.4byte	0x491
 755 0490 00       		.byte	0
 756 0491 09       		.uleb128 0x9
 757 0492 04       		.byte	0x4
 758 0493 FD030000 		.4byte	0x3fd
 759 0497 09       		.uleb128 0x9
 760 0498 04       		.byte	0x4
 761 0499 AD000000 		.4byte	0xad
 762 049d 03       		.uleb128 0x3
 763 049e 810B0000 		.4byte	.LASF76
 764 04a2 0A       		.byte	0xa
 765 04a3 82       		.byte	0x82
 766 04a4 FD030000 		.4byte	0x3fd
 767 04a8 03       		.uleb128 0x3
 768 04a9 A0030000 		.4byte	.LASF77
 769 04ad 0A       		.byte	0xa
 770 04ae F5       		.byte	0xf5
 771 04af FD030000 		.4byte	0x3fd
 772 04b3 09       		.uleb128 0x9
 773 04b4 04       		.byte	0x4
 774 04b5 B9040000 		.4byte	0x4b9
 775 04b9 10       		.uleb128 0x10
 776 04ba AD000000 		.4byte	0xad
 777 04be 13       		.uleb128 0x13
 778 04bf CE000000 		.4byte	0xce
 779 04c3 CE040000 		.4byte	0x4ce
 780 04c7 14       		.uleb128 0x14
 781 04c8 62030000 		.4byte	0x362
 782 04cc 03       		.byte	0x3
 783 04cd 00       		.byte	0
 784 04ce 13       		.uleb128 0x13
 785 04cf CE000000 		.4byte	0xce
 786 04d3 DE040000 		.4byte	0x4de
 787 04d7 14       		.uleb128 0x14
 788 04d8 62030000 		.4byte	0x362
 789 04dc 0E       		.byte	0xe
 790 04dd 00       		.byte	0
 791 04de 0D       		.uleb128 0xd
 792 04df C3000000 		.4byte	0xc3
 793 04e3 08       		.uleb128 0x8
 794 04e4 04       		.byte	0x4
 795 04e5 0B       		.byte	0xb
ARM GAS  /tmp/ccc6RK6s.s 			page 15


 796 04e6 96       		.byte	0x96
 797 04e7 04050000 		.4byte	0x504
 798 04eb 07       		.uleb128 0x7
 799 04ec 73657400 		.ascii	"set\000"
 800 04f0 0B       		.byte	0xb
 801 04f1 97       		.byte	0x97
 802 04f2 B8000000 		.4byte	0xb8
 803 04f6 00       		.byte	0
 804 04f7 06       		.uleb128 0x6
 805 04f8 99040000 		.4byte	.LASF78
 806 04fc 0B       		.byte	0xb
 807 04fd 98       		.byte	0x98
 808 04fe B8000000 		.4byte	0xb8
 809 0502 02       		.byte	0x2
 810 0503 00       		.byte	0
 811 0504 0E       		.uleb128 0xe
 812 0505 04       		.byte	0x4
 813 0506 0B       		.byte	0xb
 814 0507 94       		.byte	0x94
 815 0508 1F050000 		.4byte	0x51f
 816 050c 15       		.uleb128 0x15
 817 050d 5700     		.ascii	"W\000"
 818 050f 0B       		.byte	0xb
 819 0510 95       		.byte	0x95
 820 0511 CE000000 		.4byte	0xce
 821 0515 15       		.uleb128 0x15
 822 0516 4800     		.ascii	"H\000"
 823 0518 0B       		.byte	0xb
 824 0519 99       		.byte	0x99
 825 051a E3040000 		.4byte	0x4e3
 826 051e 00       		.byte	0
 827 051f 08       		.uleb128 0x8
 828 0520 28       		.byte	0x28
 829 0521 0B       		.byte	0xb
 830 0522 8C       		.byte	0x8c
 831 0523 A0050000 		.4byte	0x5a0
 832 0527 06       		.uleb128 0x6
 833 0528 67070000 		.4byte	.LASF79
 834 052c 0B       		.byte	0xb
 835 052d 8E       		.byte	0x8e
 836 052e 5D030000 		.4byte	0x35d
 837 0532 00       		.byte	0
 838 0533 06       		.uleb128 0x6
 839 0534 9E090000 		.4byte	.LASF80
 840 0538 0B       		.byte	0xb
 841 0539 8F       		.byte	0x8f
 842 053a 5D030000 		.4byte	0x35d
 843 053e 04       		.byte	0x4
 844 053f 06       		.uleb128 0x6
 845 0540 A4050000 		.4byte	.LASF81
 846 0544 0B       		.byte	0xb
 847 0545 90       		.byte	0x90
 848 0546 5D030000 		.4byte	0x35d
 849 054a 08       		.byte	0x8
 850 054b 06       		.uleb128 0x6
 851 054c 5C010000 		.4byte	.LASF82
 852 0550 0B       		.byte	0xb
ARM GAS  /tmp/ccc6RK6s.s 			page 16


 853 0551 91       		.byte	0x91
 854 0552 5D030000 		.4byte	0x35d
 855 0556 0C       		.byte	0xc
 856 0557 07       		.uleb128 0x7
 857 0558 49445200 		.ascii	"IDR\000"
 858 055c 0B       		.byte	0xb
 859 055d 92       		.byte	0x92
 860 055e 5D030000 		.4byte	0x35d
 861 0562 10       		.byte	0x10
 862 0563 07       		.uleb128 0x7
 863 0564 4F445200 		.ascii	"ODR\000"
 864 0568 0B       		.byte	0xb
 865 0569 93       		.byte	0x93
 866 056a 5D030000 		.4byte	0x35d
 867 056e 14       		.byte	0x14
 868 056f 06       		.uleb128 0x6
 869 0570 7E0A0000 		.4byte	.LASF83
 870 0574 0B       		.byte	0xb
 871 0575 9A       		.byte	0x9a
 872 0576 A0050000 		.4byte	0x5a0
 873 057a 18       		.byte	0x18
 874 057b 06       		.uleb128 0x6
 875 057c 5C050000 		.4byte	.LASF84
 876 0580 0B       		.byte	0xb
 877 0581 9B       		.byte	0x9b
 878 0582 5D030000 		.4byte	0x35d
 879 0586 1C       		.byte	0x1c
 880 0587 06       		.uleb128 0x6
 881 0588 3A090000 		.4byte	.LASF85
 882 058c 0B       		.byte	0xb
 883 058d 9C       		.byte	0x9c
 884 058e 5D030000 		.4byte	0x35d
 885 0592 20       		.byte	0x20
 886 0593 06       		.uleb128 0x6
 887 0594 35090000 		.4byte	.LASF86
 888 0598 0B       		.byte	0xb
 889 0599 9D       		.byte	0x9d
 890 059a 5D030000 		.4byte	0x35d
 891 059e 24       		.byte	0x24
 892 059f 00       		.byte	0
 893 05a0 0D       		.uleb128 0xd
 894 05a1 04050000 		.4byte	0x504
 895 05a5 03       		.uleb128 0x3
 896 05a6 A00A0000 		.4byte	.LASF87
 897 05aa 0B       		.byte	0xb
 898 05ab 9E       		.byte	0x9e
 899 05ac 1F050000 		.4byte	0x51f
 900 05b0 03       		.uleb128 0x3
 901 05b1 FB030000 		.4byte	.LASF88
 902 05b5 0B       		.byte	0xb
 903 05b6 F0       		.byte	0xf0
 904 05b7 CE000000 		.4byte	0xce
 905 05bb 03       		.uleb128 0x3
 906 05bc 02010000 		.4byte	.LASF89
 907 05c0 0B       		.byte	0xb
 908 05c1 F5       		.byte	0xf5
 909 05c2 CE000000 		.4byte	0xce
ARM GAS  /tmp/ccc6RK6s.s 			page 17


 910 05c6 03       		.uleb128 0x3
 911 05c7 BC010000 		.4byte	.LASF90
 912 05cb 0B       		.byte	0xb
 913 05cc FD       		.byte	0xfd
 914 05cd D1050000 		.4byte	0x5d1
 915 05d1 09       		.uleb128 0x9
 916 05d2 04       		.byte	0x4
 917 05d3 A5050000 		.4byte	0x5a5
 918 05d7 13       		.uleb128 0x13
 919 05d8 AD000000 		.4byte	0xad
 920 05dc E7050000 		.4byte	0x5e7
 921 05e0 14       		.uleb128 0x14
 922 05e1 62030000 		.4byte	0x362
 923 05e5 07       		.byte	0x7
 924 05e6 00       		.byte	0
 925 05e7 16       		.uleb128 0x16
 926 05e8 01       		.byte	0x1
 927 05e9 0C       		.byte	0xc
 928 05ea 55       		.byte	0x55
 929 05eb 02060000 		.4byte	0x602
 930 05ef 17       		.uleb128 0x17
 931 05f0 EE000000 		.4byte	.LASF91
 932 05f4 00       		.sleb128 0
 933 05f5 17       		.uleb128 0x17
 934 05f6 C8080000 		.4byte	.LASF92
 935 05fa 01       		.sleb128 1
 936 05fb 17       		.uleb128 0x17
 937 05fc EB090000 		.4byte	.LASF93
 938 0600 02       		.sleb128 2
 939 0601 00       		.byte	0
 940 0602 03       		.uleb128 0x3
 941 0603 FF0A0000 		.4byte	.LASF94
 942 0607 0C       		.byte	0xc
 943 0608 59       		.byte	0x59
 944 0609 E7050000 		.4byte	0x5e7
 945 060d 03       		.uleb128 0x3
 946 060e 00080000 		.4byte	.LASF95
 947 0612 0C       		.byte	0xc
 948 0613 5E       		.byte	0x5e
 949 0614 18060000 		.4byte	0x618
 950 0618 0B       		.uleb128 0xb
 951 0619 00080000 		.4byte	.LASF95
 952 061d 14       		.byte	0x14
 953 061e 0D       		.byte	0xd
 954 061f 6F01     		.2byte	0x16f
 955 0621 67060000 		.4byte	0x667
 956 0625 18       		.uleb128 0x18
 957 0626 BA000000 		.4byte	.LASF96
 958 062a 0D       		.byte	0xd
 959 062b 7301     		.2byte	0x173
 960 062d 02060000 		.4byte	0x602
 961 0631 00       		.byte	0
 962 0632 18       		.uleb128 0x18
 963 0633 B3000000 		.4byte	.LASF97
 964 0637 0D       		.byte	0xd
 965 0638 7701     		.2byte	0x177
 966 063a 6F080000 		.4byte	0x86f
ARM GAS  /tmp/ccc6RK6s.s 			page 18


 967 063e 04       		.byte	0x4
 968 063f 18       		.uleb128 0x18
 969 0640 55090000 		.4byte	.LASF98
 970 0644 0D       		.byte	0xd
 971 0645 7B01     		.2byte	0x17b
 972 0647 BF070000 		.4byte	0x7bf
 973 064b 08       		.byte	0x8
 974 064c 18       		.uleb128 0x18
 975 064d 6D050000 		.4byte	.LASF99
 976 0651 0D       		.byte	0xd
 977 0652 8301     		.2byte	0x183
 978 0654 CE000000 		.4byte	0xce
 979 0658 0C       		.byte	0xc
 980 0659 0C       		.uleb128 0xc
 981 065a 74696D00 		.ascii	"tim\000"
 982 065e 0D       		.byte	0xd
 983 065f 8701     		.2byte	0x187
 984 0661 7A080000 		.4byte	0x87a
 985 0665 10       		.byte	0x10
 986 0666 00       		.byte	0
 987 0667 03       		.uleb128 0x3
 988 0668 DD070000 		.4byte	.LASF100
 989 066c 0C       		.byte	0xc
 990 066d 65       		.byte	0x65
 991 066e 72060000 		.4byte	0x672
 992 0672 09       		.uleb128 0x9
 993 0673 04       		.byte	0x4
 994 0674 78060000 		.4byte	0x678
 995 0678 11       		.uleb128 0x11
 996 0679 83060000 		.4byte	0x683
 997 067d 12       		.uleb128 0x12
 998 067e 83060000 		.4byte	0x683
 999 0682 00       		.byte	0
 1000 0683 09       		.uleb128 0x9
 1001 0684 04       		.byte	0x4
 1002 0685 0D060000 		.4byte	0x60d
 1003 0689 19       		.uleb128 0x19
 1004 068a 60       		.byte	0x60
 1005 068b 0E       		.byte	0xe
 1006 068c 9E01     		.2byte	0x19e
 1007 068e A2070000 		.4byte	0x7a2
 1008 0692 0C       		.uleb128 0xc
 1009 0693 43523100 		.ascii	"CR1\000"
 1010 0697 0E       		.byte	0xe
 1011 0698 9F01     		.2byte	0x19f
 1012 069a 5D030000 		.4byte	0x35d
 1013 069e 00       		.byte	0
 1014 069f 0C       		.uleb128 0xc
 1015 06a0 43523200 		.ascii	"CR2\000"
 1016 06a4 0E       		.byte	0xe
 1017 06a5 A001     		.2byte	0x1a0
 1018 06a7 5D030000 		.4byte	0x35d
 1019 06ab 04       		.byte	0x4
 1020 06ac 18       		.uleb128 0x18
 1021 06ad 50090000 		.4byte	.LASF101
 1022 06b1 0E       		.byte	0xe
 1023 06b2 A101     		.2byte	0x1a1
ARM GAS  /tmp/ccc6RK6s.s 			page 19


 1024 06b4 5D030000 		.4byte	0x35d
 1025 06b8 08       		.byte	0x8
 1026 06b9 18       		.uleb128 0x18
 1027 06ba 11050000 		.4byte	.LASF102
 1028 06be 0E       		.byte	0xe
 1029 06bf A201     		.2byte	0x1a2
 1030 06c1 5D030000 		.4byte	0x35d
 1031 06c5 0C       		.byte	0xc
 1032 06c6 0C       		.uleb128 0xc
 1033 06c7 535200   		.ascii	"SR\000"
 1034 06ca 0E       		.byte	0xe
 1035 06cb A301     		.2byte	0x1a3
 1036 06cd 5D030000 		.4byte	0x35d
 1037 06d1 10       		.byte	0x10
 1038 06d2 0C       		.uleb128 0xc
 1039 06d3 45475200 		.ascii	"EGR\000"
 1040 06d7 0E       		.byte	0xe
 1041 06d8 A401     		.2byte	0x1a4
 1042 06da 5D030000 		.4byte	0x35d
 1043 06de 14       		.byte	0x14
 1044 06df 18       		.uleb128 0x18
 1045 06e0 FC020000 		.4byte	.LASF103
 1046 06e4 0E       		.byte	0xe
 1047 06e5 A501     		.2byte	0x1a5
 1048 06e7 5D030000 		.4byte	0x35d
 1049 06eb 18       		.byte	0x18
 1050 06ec 18       		.uleb128 0x18
 1051 06ed 02030000 		.4byte	.LASF104
 1052 06f1 0E       		.byte	0xe
 1053 06f2 A601     		.2byte	0x1a6
 1054 06f4 5D030000 		.4byte	0x35d
 1055 06f8 1C       		.byte	0x1c
 1056 06f9 18       		.uleb128 0x18
 1057 06fa 15090000 		.4byte	.LASF105
 1058 06fe 0E       		.byte	0xe
 1059 06ff A701     		.2byte	0x1a7
 1060 0701 5D030000 		.4byte	0x35d
 1061 0705 20       		.byte	0x20
 1062 0706 0C       		.uleb128 0xc
 1063 0707 434E5400 		.ascii	"CNT\000"
 1064 070b 0E       		.byte	0xe
 1065 070c A801     		.2byte	0x1a8
 1066 070e 5D030000 		.4byte	0x35d
 1067 0712 24       		.byte	0x24
 1068 0713 0C       		.uleb128 0xc
 1069 0714 50534300 		.ascii	"PSC\000"
 1070 0718 0E       		.byte	0xe
 1071 0719 A901     		.2byte	0x1a9
 1072 071b 5D030000 		.4byte	0x35d
 1073 071f 28       		.byte	0x28
 1074 0720 0C       		.uleb128 0xc
 1075 0721 41525200 		.ascii	"ARR\000"
 1076 0725 0E       		.byte	0xe
 1077 0726 AA01     		.2byte	0x1aa
 1078 0728 5D030000 		.4byte	0x35d
 1079 072c 2C       		.byte	0x2c
 1080 072d 0C       		.uleb128 0xc
ARM GAS  /tmp/ccc6RK6s.s 			page 20


 1081 072e 52435200 		.ascii	"RCR\000"
 1082 0732 0E       		.byte	0xe
 1083 0733 AB01     		.2byte	0x1ab
 1084 0735 5D030000 		.4byte	0x35d
 1085 0739 30       		.byte	0x30
 1086 073a 0C       		.uleb128 0xc
 1087 073b 43435200 		.ascii	"CCR\000"
 1088 073f 0E       		.byte	0xe
 1089 0740 AC01     		.2byte	0x1ac
 1090 0742 A2070000 		.4byte	0x7a2
 1091 0746 34       		.byte	0x34
 1092 0747 18       		.uleb128 0x18
 1093 0748 0A0B0000 		.4byte	.LASF106
 1094 074c 0E       		.byte	0xe
 1095 074d AD01     		.2byte	0x1ad
 1096 074f 5D030000 		.4byte	0x35d
 1097 0753 44       		.byte	0x44
 1098 0754 0C       		.uleb128 0xc
 1099 0755 44435200 		.ascii	"DCR\000"
 1100 0759 0E       		.byte	0xe
 1101 075a AE01     		.2byte	0x1ae
 1102 075c 5D030000 		.4byte	0x35d
 1103 0760 48       		.byte	0x48
 1104 0761 18       		.uleb128 0x18
 1105 0762 E4000000 		.4byte	.LASF107
 1106 0766 0E       		.byte	0xe
 1107 0767 AF01     		.2byte	0x1af
 1108 0769 5D030000 		.4byte	0x35d
 1109 076d 4C       		.byte	0x4c
 1110 076e 0C       		.uleb128 0xc
 1111 076f 4F5200   		.ascii	"OR\000"
 1112 0772 0E       		.byte	0xe
 1113 0773 B001     		.2byte	0x1b0
 1114 0775 5D030000 		.4byte	0x35d
 1115 0779 50       		.byte	0x50
 1116 077a 18       		.uleb128 0x18
 1117 077b 08030000 		.4byte	.LASF108
 1118 077f 0E       		.byte	0xe
 1119 0780 B101     		.2byte	0x1b1
 1120 0782 5D030000 		.4byte	0x35d
 1121 0786 54       		.byte	0x54
 1122 0787 18       		.uleb128 0x18
 1123 0788 32010000 		.4byte	.LASF109
 1124 078c 0E       		.byte	0xe
 1125 078d B201     		.2byte	0x1b2
 1126 078f 5D030000 		.4byte	0x35d
 1127 0793 58       		.byte	0x58
 1128 0794 18       		.uleb128 0x18
 1129 0795 5C080000 		.4byte	.LASF110
 1130 0799 0E       		.byte	0xe
 1131 079a B301     		.2byte	0x1b3
 1132 079c 5D030000 		.4byte	0x35d
 1133 07a0 5C       		.byte	0x5c
 1134 07a1 00       		.byte	0
 1135 07a2 0D       		.uleb128 0xd
 1136 07a3 BE040000 		.4byte	0x4be
 1137 07a7 1A       		.uleb128 0x1a
ARM GAS  /tmp/ccc6RK6s.s 			page 21


 1138 07a8 61050000 		.4byte	.LASF111
 1139 07ac 0E       		.byte	0xe
 1140 07ad B401     		.2byte	0x1b4
 1141 07af 89060000 		.4byte	0x689
 1142 07b3 1A       		.uleb128 0x1a
 1143 07b4 1C040000 		.4byte	.LASF112
 1144 07b8 0D       		.byte	0xd
 1145 07b9 2001     		.2byte	0x120
 1146 07bb CE000000 		.4byte	0xce
 1147 07bf 1A       		.uleb128 0x1a
 1148 07c0 8B020000 		.4byte	.LASF113
 1149 07c4 0D       		.byte	0xd
 1150 07c5 2A01     		.2byte	0x12a
 1151 07c7 B8000000 		.4byte	0xb8
 1152 07cb 19       		.uleb128 0x19
 1153 07cc 08       		.byte	0x8
 1154 07cd 0D       		.byte	0xd
 1155 07ce 2F01     		.2byte	0x12f
 1156 07d0 EF070000 		.4byte	0x7ef
 1157 07d4 18       		.uleb128 0x18
 1158 07d5 1A0A0000 		.4byte	.LASF114
 1159 07d9 0D       		.byte	0xd
 1160 07da 3301     		.2byte	0x133
 1161 07dc B3070000 		.4byte	0x7b3
 1162 07e0 00       		.byte	0
 1163 07e1 18       		.uleb128 0x18
 1164 07e2 F9000000 		.4byte	.LASF115
 1165 07e6 0D       		.byte	0xd
 1166 07e7 3901     		.2byte	0x139
 1167 07e9 67060000 		.4byte	0x667
 1168 07ed 04       		.byte	0x4
 1169 07ee 00       		.byte	0
 1170 07ef 1A       		.uleb128 0x1a
 1171 07f0 C8000000 		.4byte	.LASF116
 1172 07f4 0D       		.byte	0xd
 1173 07f5 3B01     		.2byte	0x13b
 1174 07f7 CB070000 		.4byte	0x7cb
 1175 07fb 19       		.uleb128 0x19
 1176 07fc 34       		.byte	0x34
 1177 07fd 0D       		.byte	0xd
 1178 07fe 4001     		.2byte	0x140
 1179 0800 53080000 		.4byte	0x853
 1180 0804 18       		.uleb128 0x18
 1181 0805 49070000 		.4byte	.LASF117
 1182 0809 0D       		.byte	0xd
 1183 080a 4601     		.2byte	0x146
 1184 080c CE000000 		.4byte	0xce
 1185 0810 00       		.byte	0
 1186 0811 18       		.uleb128 0x18
 1187 0812 55090000 		.4byte	.LASF98
 1188 0816 0D       		.byte	0xd
 1189 0817 4C01     		.2byte	0x14c
 1190 0819 BF070000 		.4byte	0x7bf
 1191 081d 04       		.byte	0x4
 1192 081e 18       		.uleb128 0x18
 1193 081f F9000000 		.4byte	.LASF115
 1194 0823 0D       		.byte	0xd
ARM GAS  /tmp/ccc6RK6s.s 			page 22


 1195 0824 5201     		.2byte	0x152
 1196 0826 67060000 		.4byte	0x667
 1197 082a 08       		.byte	0x8
 1198 082b 18       		.uleb128 0x18
 1199 082c AD070000 		.4byte	.LASF118
 1200 0830 0D       		.byte	0xd
 1201 0831 5601     		.2byte	0x156
 1202 0833 53080000 		.4byte	0x853
 1203 0837 0C       		.byte	0xc
 1204 0838 0C       		.uleb128 0xc
 1205 0839 63723200 		.ascii	"cr2\000"
 1206 083d 0D       		.byte	0xd
 1207 083e 5C01     		.2byte	0x15c
 1208 0840 CE000000 		.4byte	0xce
 1209 0844 2C       		.byte	0x2c
 1210 0845 18       		.uleb128 0x18
 1211 0846 E9000000 		.4byte	.LASF119
 1212 084a 0D       		.byte	0xd
 1213 084b 6901     		.2byte	0x169
 1214 084d CE000000 		.4byte	0xce
 1215 0851 30       		.byte	0x30
 1216 0852 00       		.byte	0
 1217 0853 13       		.uleb128 0x13
 1218 0854 EF070000 		.4byte	0x7ef
 1219 0858 63080000 		.4byte	0x863
 1220 085c 14       		.uleb128 0x14
 1221 085d 62030000 		.4byte	0x362
 1222 0861 03       		.byte	0x3
 1223 0862 00       		.byte	0
 1224 0863 1A       		.uleb128 0x1a
 1225 0864 BE0A0000 		.4byte	.LASF120
 1226 0868 0D       		.byte	0xd
 1227 0869 6A01     		.2byte	0x16a
 1228 086b FB070000 		.4byte	0x7fb
 1229 086f 09       		.uleb128 0x9
 1230 0870 04       		.byte	0x4
 1231 0871 75080000 		.4byte	0x875
 1232 0875 10       		.uleb128 0x10
 1233 0876 63080000 		.4byte	0x863
 1234 087a 09       		.uleb128 0x9
 1235 087b 04       		.byte	0x4
 1236 087c A7070000 		.4byte	0x7a7
 1237 0880 03       		.uleb128 0x3
 1238 0881 11080000 		.4byte	.LASF121
 1239 0885 0F       		.byte	0xf
 1240 0886 E9       		.byte	0xe9
 1241 0887 8B080000 		.4byte	0x88b
 1242 088b 1B       		.uleb128 0x1b
 1243 088c 11080000 		.4byte	.LASF121
 1244 0890 B801     		.2byte	0x1b8
 1245 0892 10       		.byte	0x10
 1246 0893 7201     		.2byte	0x172
 1247 0895 B8090000 		.4byte	0x9b8
 1248 0899 18       		.uleb128 0x18
 1249 089a BA000000 		.4byte	.LASF96
 1250 089e 10       		.byte	0x10
 1251 089f 7601     		.2byte	0x176
ARM GAS  /tmp/ccc6RK6s.s 			page 23


 1252 08a1 EA090000 		.4byte	0x9ea
 1253 08a5 00       		.byte	0
 1254 08a6 18       		.uleb128 0x18
 1255 08a7 B3000000 		.4byte	.LASF97
 1256 08ab 10       		.byte	0x10
 1257 08ac 7A01     		.2byte	0x17a
 1258 08ae 05130000 		.4byte	0x1305
 1259 08b2 04       		.byte	0x4
 1260 08b3 18       		.uleb128 0x18
 1261 08b4 D4030000 		.4byte	.LASF122
 1262 08b8 10       		.byte	0x10
 1263 08b9 7E01     		.2byte	0x17e
 1264 08bb B8000000 		.4byte	0xb8
 1265 08bf 08       		.byte	0x8
 1266 08c0 18       		.uleb128 0x18
 1267 08c1 53030000 		.4byte	.LASF123
 1268 08c5 10       		.byte	0x10
 1269 08c6 8201     		.2byte	0x182
 1270 08c8 B8000000 		.4byte	0xb8
 1271 08cc 0A       		.byte	0xa
 1272 08cd 0C       		.uleb128 0xc
 1273 08ce 65706300 		.ascii	"epc\000"
 1274 08d2 10       		.byte	0x10
 1275 08d3 8601     		.2byte	0x186
 1276 08d5 10130000 		.4byte	0x1310
 1277 08d9 0C       		.byte	0xc
 1278 08da 18       		.uleb128 0x18
 1279 08db D8090000 		.4byte	.LASF124
 1280 08df 10       		.byte	0x10
 1281 08e0 8D01     		.2byte	0x18d
 1282 08e2 2B130000 		.4byte	0x132b
 1283 08e6 1C       		.byte	0x1c
 1284 08e7 18       		.uleb128 0x18
 1285 08e8 8C0B0000 		.4byte	.LASF125
 1286 08ec 10       		.byte	0x10
 1287 08ed 9401     		.2byte	0x194
 1288 08ef 2B130000 		.4byte	0x132b
 1289 08f3 28       		.byte	0x28
 1290 08f4 18       		.uleb128 0x18
 1291 08f5 C2020000 		.4byte	.LASF126
 1292 08f9 10       		.byte	0x10
 1293 08fa 9801     		.2byte	0x198
 1294 08fc 290A0000 		.4byte	0xa29
 1295 0900 34       		.byte	0x34
 1296 0901 18       		.uleb128 0x18
 1297 0902 2F060000 		.4byte	.LASF127
 1298 0906 10       		.byte	0x10
 1299 0907 9C01     		.2byte	0x19c
 1300 0909 97040000 		.4byte	0x497
 1301 090d 38       		.byte	0x38
 1302 090e 18       		.uleb128 0x18
 1303 090f 2E030000 		.4byte	.LASF128
 1304 0913 10       		.byte	0x10
 1305 0914 A001     		.2byte	0x1a0
 1306 0916 2C000000 		.4byte	0x2c
 1307 091a 3C       		.byte	0x3c
 1308 091b 18       		.uleb128 0x18
ARM GAS  /tmp/ccc6RK6s.s 			page 24


 1309 091c 1E050000 		.4byte	.LASF129
 1310 0920 10       		.byte	0x10
 1311 0921 A401     		.2byte	0x1a4
 1312 0923 9F0A0000 		.4byte	0xa9f
 1313 0927 40       		.byte	0x40
 1314 0928 18       		.uleb128 0x18
 1315 0929 5D040000 		.4byte	.LASF130
 1316 092d 10       		.byte	0x10
 1317 092e A801     		.2byte	0x1a8
 1318 0930 D7050000 		.4byte	0x5d7
 1319 0934 44       		.byte	0x44
 1320 0935 18       		.uleb128 0x18
 1321 0936 0A050000 		.4byte	.LASF131
 1322 093a 10       		.byte	0x10
 1323 093b AC01     		.2byte	0x1ac
 1324 093d B8000000 		.4byte	0xb8
 1325 0941 4C       		.byte	0x4c
 1326 0942 18       		.uleb128 0x18
 1327 0943 16050000 		.4byte	.LASF132
 1328 0947 10       		.byte	0x10
 1329 0948 B001     		.2byte	0x1b0
 1330 094a AD000000 		.4byte	0xad
 1331 094e 4E       		.byte	0x4e
 1332 094f 18       		.uleb128 0x18
 1333 0950 BC040000 		.4byte	.LASF133
 1334 0954 10       		.byte	0x10
 1335 0955 B401     		.2byte	0x1b4
 1336 0957 AD000000 		.4byte	0xad
 1337 095b 4F       		.byte	0x4f
 1338 095c 0C       		.uleb128 0xc
 1339 095d 6F746700 		.ascii	"otg\000"
 1340 0961 10       		.byte	0x10
 1341 0962 BC01     		.2byte	0x1bc
 1342 0964 3B130000 		.4byte	0x133b
 1343 0968 50       		.byte	0x50
 1344 0969 18       		.uleb128 0x18
 1345 096a D3070000 		.4byte	.LASF134
 1346 096e 10       		.byte	0x10
 1347 096f C001     		.2byte	0x1c0
 1348 0971 41130000 		.4byte	0x1341
 1349 0975 54       		.byte	0x54
 1350 0976 18       		.uleb128 0x18
 1351 0977 EC0B0000 		.4byte	.LASF135
 1352 097b 10       		.byte	0x10
 1353 097c C401     		.2byte	0x1c4
 1354 097e CE000000 		.4byte	0xce
 1355 0982 58       		.byte	0x58
 1356 0983 18       		.uleb128 0x18
 1357 0984 9B070000 		.4byte	.LASF136
 1358 0988 10       		.byte	0x10
 1359 0989 C801     		.2byte	0x1c8
 1360 098b CE000000 		.4byte	0xce
 1361 098f 5C       		.byte	0x5c
 1362 0990 18       		.uleb128 0x18
 1363 0991 73050000 		.4byte	.LASF137
 1364 0995 10       		.byte	0x10
 1365 0996 CC01     		.2byte	0x1cc
ARM GAS  /tmp/ccc6RK6s.s 			page 25


 1366 0998 77020000 		.4byte	0x277
 1367 099c 60       		.byte	0x60
 1368 099d 18       		.uleb128 0x18
 1369 099e EB010000 		.4byte	.LASF138
 1370 09a2 10       		.byte	0x10
 1371 09a3 D001     		.2byte	0x1d0
 1372 09a5 77020000 		.4byte	0x277
 1373 09a9 64       		.byte	0x64
 1374 09aa 18       		.uleb128 0x18
 1375 09ab D0090000 		.4byte	.LASF139
 1376 09af 10       		.byte	0x10
 1377 09b0 D401     		.2byte	0x1d4
 1378 09b2 4C130000 		.4byte	0x134c
 1379 09b6 68       		.byte	0x68
 1380 09b7 00       		.byte	0
 1381 09b8 03       		.uleb128 0x3
 1382 09b9 220B0000 		.4byte	.LASF140
 1383 09bd 0F       		.byte	0xf
 1384 09be EE       		.byte	0xee
 1385 09bf AD000000 		.4byte	0xad
 1386 09c3 16       		.uleb128 0x16
 1387 09c4 01       		.byte	0x1
 1388 09c5 0F       		.byte	0xf
 1389 09c6 F3       		.byte	0xf3
 1390 09c7 EA090000 		.4byte	0x9ea
 1391 09cb 17       		.uleb128 0x17
 1392 09cc 80080000 		.4byte	.LASF141
 1393 09d0 00       		.sleb128 0
 1394 09d1 17       		.uleb128 0x17
 1395 09d2 24080000 		.4byte	.LASF142
 1396 09d6 01       		.sleb128 1
 1397 09d7 17       		.uleb128 0x17
 1398 09d8 14060000 		.4byte	.LASF143
 1399 09dc 02       		.sleb128 2
 1400 09dd 17       		.uleb128 0x17
 1401 09de AF040000 		.4byte	.LASF144
 1402 09e2 03       		.sleb128 3
 1403 09e3 17       		.uleb128 0x17
 1404 09e4 D9000000 		.4byte	.LASF145
 1405 09e8 04       		.sleb128 4
 1406 09e9 00       		.byte	0
 1407 09ea 03       		.uleb128 0x3
 1408 09eb 89050000 		.4byte	.LASF146
 1409 09ef 0F       		.byte	0xf
 1410 09f0 F9       		.byte	0xf9
 1411 09f1 C3090000 		.4byte	0x9c3
 1412 09f5 1C       		.uleb128 0x1c
 1413 09f6 01       		.byte	0x1
 1414 09f7 0F       		.byte	0xf
 1415 09f8 0701     		.2byte	0x107
 1416 09fa 290A0000 		.4byte	0xa29
 1417 09fe 17       		.uleb128 0x17
 1418 09ff 09020000 		.4byte	.LASF147
 1419 0a03 00       		.sleb128 0
 1420 0a04 17       		.uleb128 0x17
 1421 0a05 9F000000 		.4byte	.LASF148
 1422 0a09 01       		.sleb128 1
ARM GAS  /tmp/ccc6RK6s.s 			page 26


 1423 0a0a 17       		.uleb128 0x17
 1424 0a0b 6C080000 		.4byte	.LASF149
 1425 0a0f 02       		.sleb128 2
 1426 0a10 17       		.uleb128 0x17
 1427 0a11 CA0B0000 		.4byte	.LASF150
 1428 0a15 03       		.sleb128 3
 1429 0a16 17       		.uleb128 0x17
 1430 0a17 040C0000 		.4byte	.LASF151
 1431 0a1b 04       		.sleb128 4
 1432 0a1c 17       		.uleb128 0x17
 1433 0a1d B10B0000 		.4byte	.LASF152
 1434 0a21 05       		.sleb128 5
 1435 0a22 17       		.uleb128 0x17
 1436 0a23 A2020000 		.4byte	.LASF153
 1437 0a27 06       		.sleb128 6
 1438 0a28 00       		.byte	0
 1439 0a29 1A       		.uleb128 0x1a
 1440 0a2a 37010000 		.4byte	.LASF154
 1441 0a2e 0F       		.byte	0xf
 1442 0a2f 0F01     		.2byte	0x10f
 1443 0a31 F5090000 		.4byte	0x9f5
 1444 0a35 1C       		.uleb128 0x1c
 1445 0a36 01       		.byte	0x1
 1446 0a37 0F       		.byte	0xf
 1447 0a38 1401     		.2byte	0x114
 1448 0a3a 630A0000 		.4byte	0xa63
 1449 0a3e 17       		.uleb128 0x17
 1450 0a3f 1F0A0000 		.4byte	.LASF155
 1451 0a43 00       		.sleb128 0
 1452 0a44 17       		.uleb128 0x17
 1453 0a45 6B010000 		.4byte	.LASF156
 1454 0a49 01       		.sleb128 1
 1455 0a4a 17       		.uleb128 0x17
 1456 0a4b 84090000 		.4byte	.LASF157
 1457 0a4f 02       		.sleb128 2
 1458 0a50 17       		.uleb128 0x17
 1459 0a51 370B0000 		.4byte	.LASF158
 1460 0a55 03       		.sleb128 3
 1461 0a56 17       		.uleb128 0x17
 1462 0a57 D3050000 		.4byte	.LASF159
 1463 0a5b 04       		.sleb128 4
 1464 0a5c 17       		.uleb128 0x17
 1465 0a5d 56020000 		.4byte	.LASF160
 1466 0a61 05       		.sleb128 5
 1467 0a62 00       		.byte	0
 1468 0a63 1A       		.uleb128 0x1a
 1469 0a64 7D040000 		.4byte	.LASF161
 1470 0a68 0F       		.byte	0xf
 1471 0a69 1B01     		.2byte	0x11b
 1472 0a6b 350A0000 		.4byte	0xa35
 1473 0a6f 19       		.uleb128 0x19
 1474 0a70 08       		.byte	0x8
 1475 0a71 0F       		.byte	0xf
 1476 0a72 2001     		.2byte	0x120
 1477 0a74 930A0000 		.4byte	0xa93
 1478 0a78 18       		.uleb128 0x18
 1479 0a79 91040000 		.4byte	.LASF162
ARM GAS  /tmp/ccc6RK6s.s 			page 27


 1480 0a7d 0F       		.byte	0xf
 1481 0a7e 2401     		.2byte	0x124
 1482 0a80 2C000000 		.4byte	0x2c
 1483 0a84 00       		.byte	0
 1484 0a85 18       		.uleb128 0x18
 1485 0a86 85030000 		.4byte	.LASF163
 1486 0a8a 0F       		.byte	0xf
 1487 0a8b 2801     		.2byte	0x128
 1488 0a8d B3040000 		.4byte	0x4b3
 1489 0a91 04       		.byte	0x4
 1490 0a92 00       		.byte	0
 1491 0a93 1A       		.uleb128 0x1a
 1492 0a94 3C040000 		.4byte	.LASF164
 1493 0a98 0F       		.byte	0xf
 1494 0a99 2901     		.2byte	0x129
 1495 0a9b 6F0A0000 		.4byte	0xa6f
 1496 0a9f 1A       		.uleb128 0x1a
 1497 0aa0 830A0000 		.4byte	.LASF165
 1498 0aa4 0F       		.byte	0xf
 1499 0aa5 3101     		.2byte	0x131
 1500 0aa7 AB0A0000 		.4byte	0xaab
 1501 0aab 09       		.uleb128 0x9
 1502 0aac 04       		.byte	0x4
 1503 0aad B10A0000 		.4byte	0xab1
 1504 0ab1 11       		.uleb128 0x11
 1505 0ab2 BC0A0000 		.4byte	0xabc
 1506 0ab6 12       		.uleb128 0x12
 1507 0ab7 BC0A0000 		.4byte	0xabc
 1508 0abb 00       		.byte	0
 1509 0abc 09       		.uleb128 0x9
 1510 0abd 04       		.byte	0x4
 1511 0abe 80080000 		.4byte	0x880
 1512 0ac2 1A       		.uleb128 0x1a
 1513 0ac3 1A070000 		.4byte	.LASF166
 1514 0ac7 0F       		.byte	0xf
 1515 0ac8 3A01     		.2byte	0x13a
 1516 0aca CE0A0000 		.4byte	0xace
 1517 0ace 09       		.uleb128 0x9
 1518 0acf 04       		.byte	0x4
 1519 0ad0 D40A0000 		.4byte	0xad4
 1520 0ad4 11       		.uleb128 0x11
 1521 0ad5 E40A0000 		.4byte	0xae4
 1522 0ad9 12       		.uleb128 0x12
 1523 0ada BC0A0000 		.4byte	0xabc
 1524 0ade 12       		.uleb128 0x12
 1525 0adf B8090000 		.4byte	0x9b8
 1526 0ae3 00       		.byte	0
 1527 0ae4 1A       		.uleb128 0x1a
 1528 0ae5 B2030000 		.4byte	.LASF167
 1529 0ae9 0F       		.byte	0xf
 1530 0aea 4301     		.2byte	0x143
 1531 0aec F00A0000 		.4byte	0xaf0
 1532 0af0 09       		.uleb128 0x9
 1533 0af1 04       		.byte	0x4
 1534 0af2 F60A0000 		.4byte	0xaf6
 1535 0af6 11       		.uleb128 0x11
 1536 0af7 060B0000 		.4byte	0xb06
ARM GAS  /tmp/ccc6RK6s.s 			page 28


 1537 0afb 12       		.uleb128 0x12
 1538 0afc BC0A0000 		.4byte	0xabc
 1539 0b00 12       		.uleb128 0x12
 1540 0b01 630A0000 		.4byte	0xa63
 1541 0b05 00       		.byte	0
 1542 0b06 1A       		.uleb128 0x1a
 1543 0b07 6E0A0000 		.4byte	.LASF168
 1544 0b0b 0F       		.byte	0xf
 1545 0b0c 4F01     		.2byte	0x14f
 1546 0b0e 120B0000 		.4byte	0xb12
 1547 0b12 09       		.uleb128 0x9
 1548 0b13 04       		.byte	0x4
 1549 0b14 180B0000 		.4byte	0xb18
 1550 0b18 1D       		.uleb128 0x1d
 1551 0b19 E4000000 		.4byte	0xe4
 1552 0b1d 270B0000 		.4byte	0xb27
 1553 0b21 12       		.uleb128 0x12
 1554 0b22 BC0A0000 		.4byte	0xabc
 1555 0b26 00       		.byte	0
 1556 0b27 1A       		.uleb128 0x1a
 1557 0b28 BD090000 		.4byte	.LASF169
 1558 0b2c 0F       		.byte	0xf
 1559 0b2d 5401     		.2byte	0x154
 1560 0b2f 330B0000 		.4byte	0xb33
 1561 0b33 09       		.uleb128 0x9
 1562 0b34 04       		.byte	0x4
 1563 0b35 390B0000 		.4byte	0xb39
 1564 0b39 1D       		.uleb128 0x1d
 1565 0b3a 570B0000 		.4byte	0xb57
 1566 0b3e 570B0000 		.4byte	0xb57
 1567 0b42 12       		.uleb128 0x12
 1568 0b43 BC0A0000 		.4byte	0xabc
 1569 0b47 12       		.uleb128 0x12
 1570 0b48 AD000000 		.4byte	0xad
 1571 0b4c 12       		.uleb128 0x12
 1572 0b4d AD000000 		.4byte	0xad
 1573 0b51 12       		.uleb128 0x12
 1574 0b52 B8000000 		.4byte	0xb8
 1575 0b56 00       		.byte	0
 1576 0b57 09       		.uleb128 0x9
 1577 0b58 04       		.byte	0x4
 1578 0b59 5D0B0000 		.4byte	0xb5d
 1579 0b5d 10       		.uleb128 0x10
 1580 0b5e 930A0000 		.4byte	0xa93
 1581 0b62 08       		.uleb128 0x8
 1582 0b63 20       		.byte	0x20
 1583 0b64 11       		.byte	0x11
 1584 0b65 35       		.byte	0x35
 1585 0b66 CB0B0000 		.4byte	0xbcb
 1586 0b6a 06       		.uleb128 0x6
 1587 0b6b F5020000 		.4byte	.LASF170
 1588 0b6f 11       		.byte	0x11
 1589 0b70 36       		.byte	0x36
 1590 0b71 5D030000 		.4byte	0x35d
 1591 0b75 00       		.byte	0
 1592 0b76 06       		.uleb128 0x6
 1593 0b77 55000000 		.4byte	.LASF171
ARM GAS  /tmp/ccc6RK6s.s 			page 29


 1594 0b7b 11       		.byte	0x11
 1595 0b7c 38       		.byte	0x38
 1596 0b7d 5D030000 		.4byte	0x35d
 1597 0b81 04       		.byte	0x4
 1598 0b82 06       		.uleb128 0x6
 1599 0b83 E2080000 		.4byte	.LASF172
 1600 0b87 11       		.byte	0x11
 1601 0b88 39       		.byte	0x39
 1602 0b89 5D030000 		.4byte	0x35d
 1603 0b8d 08       		.byte	0x8
 1604 0b8e 06       		.uleb128 0x6
 1605 0b8f 0C090000 		.4byte	.LASF173
 1606 0b93 11       		.byte	0x11
 1607 0b94 3A       		.byte	0x3a
 1608 0b95 5D030000 		.4byte	0x35d
 1609 0b99 0C       		.byte	0xc
 1610 0b9a 06       		.uleb128 0x6
 1611 0b9b E1030000 		.4byte	.LASF174
 1612 0b9f 11       		.byte	0x11
 1613 0ba0 3C       		.byte	0x3c
 1614 0ba1 5D030000 		.4byte	0x35d
 1615 0ba5 10       		.byte	0x10
 1616 0ba6 06       		.uleb128 0x6
 1617 0ba7 2F0A0000 		.4byte	.LASF175
 1618 0bab 11       		.byte	0x11
 1619 0bac 3E       		.byte	0x3e
 1620 0bad 5D030000 		.4byte	0x35d
 1621 0bb1 14       		.byte	0x14
 1622 0bb2 06       		.uleb128 0x6
 1623 0bb3 370A0000 		.4byte	.LASF176
 1624 0bb7 11       		.byte	0x11
 1625 0bb8 3F       		.byte	0x3f
 1626 0bb9 5D030000 		.4byte	0x35d
 1627 0bbd 18       		.byte	0x18
 1628 0bbe 06       		.uleb128 0x6
 1629 0bbf 660A0000 		.4byte	.LASF177
 1630 0bc3 11       		.byte	0x11
 1631 0bc4 40       		.byte	0x40
 1632 0bc5 5D030000 		.4byte	0x35d
 1633 0bc9 1C       		.byte	0x1c
 1634 0bca 00       		.byte	0
 1635 0bcb 03       		.uleb128 0x3
 1636 0bcc BF030000 		.4byte	.LASF178
 1637 0bd0 11       		.byte	0x11
 1638 0bd1 41       		.byte	0x41
 1639 0bd2 620B0000 		.4byte	0xb62
 1640 0bd6 08       		.uleb128 0x8
 1641 0bd7 20       		.byte	0x20
 1642 0bd8 11       		.byte	0x11
 1643 0bd9 46       		.byte	0x46
 1644 0bda 3F0C0000 		.4byte	0xc3f
 1645 0bde 06       		.uleb128 0x6
 1646 0bdf 26030000 		.4byte	.LASF179
 1647 0be3 11       		.byte	0x11
 1648 0be4 47       		.byte	0x47
 1649 0be5 5D030000 		.4byte	0x35d
 1650 0be9 00       		.byte	0
ARM GAS  /tmp/ccc6RK6s.s 			page 30


 1651 0bea 06       		.uleb128 0x6
 1652 0beb 4E000000 		.4byte	.LASF180
 1653 0bef 11       		.byte	0x11
 1654 0bf0 49       		.byte	0x49
 1655 0bf1 5D030000 		.4byte	0x35d
 1656 0bf5 04       		.byte	0x4
 1657 0bf6 06       		.uleb128 0x6
 1658 0bf7 AD0A0000 		.4byte	.LASF181
 1659 0bfb 11       		.byte	0x11
 1660 0bfc 4A       		.byte	0x4a
 1661 0bfd 5D030000 		.4byte	0x35d
 1662 0c01 08       		.byte	0x8
 1663 0c02 06       		.uleb128 0x6
 1664 0c03 98000000 		.4byte	.LASF182
 1665 0c07 11       		.byte	0x11
 1666 0c08 4C       		.byte	0x4c
 1667 0c09 5D030000 		.4byte	0x35d
 1668 0c0d 0C       		.byte	0xc
 1669 0c0e 06       		.uleb128 0x6
 1670 0c0f D0020000 		.4byte	.LASF183
 1671 0c13 11       		.byte	0x11
 1672 0c14 4D       		.byte	0x4d
 1673 0c15 5D030000 		.4byte	0x35d
 1674 0c19 10       		.byte	0x10
 1675 0c1a 06       		.uleb128 0x6
 1676 0c1b 2F0A0000 		.4byte	.LASF175
 1677 0c1f 11       		.byte	0x11
 1678 0c20 4F       		.byte	0x4f
 1679 0c21 5D030000 		.4byte	0x35d
 1680 0c25 14       		.byte	0x14
 1681 0c26 06       		.uleb128 0x6
 1682 0c27 3F0A0000 		.4byte	.LASF184
 1683 0c2b 11       		.byte	0x11
 1684 0c2c 50       		.byte	0x50
 1685 0c2d 5D030000 		.4byte	0x35d
 1686 0c31 18       		.byte	0x18
 1687 0c32 06       		.uleb128 0x6
 1688 0c33 4F0A0000 		.4byte	.LASF185
 1689 0c37 11       		.byte	0x11
 1690 0c38 52       		.byte	0x52
 1691 0c39 5D030000 		.4byte	0x35d
 1692 0c3d 1C       		.byte	0x1c
 1693 0c3e 00       		.byte	0
 1694 0c3f 03       		.uleb128 0x3
 1695 0c40 65090000 		.4byte	.LASF186
 1696 0c44 11       		.byte	0x11
 1697 0c45 53       		.byte	0x53
 1698 0c46 D60B0000 		.4byte	0xbd6
 1699 0c4a 08       		.uleb128 0x8
 1700 0c4b 20       		.byte	0x20
 1701 0c4c 11       		.byte	0x11
 1702 0c4d 58       		.byte	0x58
 1703 0c4e B30C0000 		.4byte	0xcb3
 1704 0c52 06       		.uleb128 0x6
 1705 0c53 30020000 		.4byte	.LASF187
 1706 0c57 11       		.byte	0x11
 1707 0c58 59       		.byte	0x59
ARM GAS  /tmp/ccc6RK6s.s 			page 31


 1708 0c59 5D030000 		.4byte	0x35d
 1709 0c5d 00       		.byte	0
 1710 0c5e 06       		.uleb128 0x6
 1711 0c5f 4E000000 		.4byte	.LASF180
 1712 0c63 11       		.byte	0x11
 1713 0c64 5B       		.byte	0x5b
 1714 0c65 5D030000 		.4byte	0x35d
 1715 0c69 04       		.byte	0x4
 1716 0c6a 06       		.uleb128 0x6
 1717 0c6b 68020000 		.4byte	.LASF188
 1718 0c6f 11       		.byte	0x11
 1719 0c70 5C       		.byte	0x5c
 1720 0c71 5D030000 		.4byte	0x35d
 1721 0c75 08       		.byte	0x8
 1722 0c76 06       		.uleb128 0x6
 1723 0c77 98000000 		.4byte	.LASF182
 1724 0c7b 11       		.byte	0x11
 1725 0c7c 5E       		.byte	0x5e
 1726 0c7d 5D030000 		.4byte	0x35d
 1727 0c81 0C       		.byte	0xc
 1728 0c82 06       		.uleb128 0x6
 1729 0c83 75070000 		.4byte	.LASF189
 1730 0c87 11       		.byte	0x11
 1731 0c88 5F       		.byte	0x5f
 1732 0c89 5D030000 		.4byte	0x35d
 1733 0c8d 10       		.byte	0x10
 1734 0c8e 06       		.uleb128 0x6
 1735 0c8f 2F0A0000 		.4byte	.LASF175
 1736 0c93 11       		.byte	0x11
 1737 0c94 61       		.byte	0x61
 1738 0c95 5D030000 		.4byte	0x35d
 1739 0c99 14       		.byte	0x14
 1740 0c9a 06       		.uleb128 0x6
 1741 0c9b 370A0000 		.4byte	.LASF176
 1742 0c9f 11       		.byte	0x11
 1743 0ca0 62       		.byte	0x62
 1744 0ca1 5D030000 		.4byte	0x35d
 1745 0ca5 18       		.byte	0x18
 1746 0ca6 06       		.uleb128 0x6
 1747 0ca7 4F0A0000 		.4byte	.LASF185
 1748 0cab 11       		.byte	0x11
 1749 0cac 63       		.byte	0x63
 1750 0cad 5D030000 		.4byte	0x35d
 1751 0cb1 1C       		.byte	0x1c
 1752 0cb2 00       		.byte	0
 1753 0cb3 03       		.uleb128 0x3
 1754 0cb4 0E030000 		.4byte	.LASF190
 1755 0cb8 11       		.byte	0x11
 1756 0cb9 64       		.byte	0x64
 1757 0cba 4A0C0000 		.4byte	0xc4a
 1758 0cbe 1E       		.uleb128 0x1e
 1759 0cbf 00100100 		.4byte	0x11000
 1760 0cc3 11       		.byte	0x11
 1761 0cc4 69       		.byte	0x69
 1762 0cc5 9B0F0000 		.4byte	0xf9b
 1763 0cc9 06       		.uleb128 0x6
 1764 0cca AC050000 		.4byte	.LASF191
ARM GAS  /tmp/ccc6RK6s.s 			page 32


 1765 0cce 11       		.byte	0x11
 1766 0ccf 6A       		.byte	0x6a
 1767 0cd0 5D030000 		.4byte	0x35d
 1768 0cd4 00       		.byte	0
 1769 0cd5 06       		.uleb128 0x6
 1770 0cd6 2D090000 		.4byte	.LASF192
 1771 0cda 11       		.byte	0x11
 1772 0cdb 6B       		.byte	0x6b
 1773 0cdc 5D030000 		.4byte	0x35d
 1774 0ce0 04       		.byte	0x4
 1775 0ce1 06       		.uleb128 0x6
 1776 0ce2 27050000 		.4byte	.LASF193
 1777 0ce6 11       		.byte	0x11
 1778 0ce7 6C       		.byte	0x6c
 1779 0ce8 5D030000 		.4byte	0x35d
 1780 0cec 08       		.byte	0x8
 1781 0ced 06       		.uleb128 0x6
 1782 0cee FC0B0000 		.4byte	.LASF194
 1783 0cf2 11       		.byte	0x11
 1784 0cf3 6D       		.byte	0x6d
 1785 0cf4 5D030000 		.4byte	0x35d
 1786 0cf8 0C       		.byte	0xc
 1787 0cf9 06       		.uleb128 0x6
 1788 0cfa 75040000 		.4byte	.LASF195
 1789 0cfe 11       		.byte	0x11
 1790 0cff 6E       		.byte	0x6e
 1791 0d00 5D030000 		.4byte	0x35d
 1792 0d04 10       		.byte	0x10
 1793 0d05 06       		.uleb128 0x6
 1794 0d06 980A0000 		.4byte	.LASF196
 1795 0d0a 11       		.byte	0x11
 1796 0d0b 6F       		.byte	0x6f
 1797 0d0c 5D030000 		.4byte	0x35d
 1798 0d10 14       		.byte	0x14
 1799 0d11 06       		.uleb128 0x6
 1800 0d12 38080000 		.4byte	.LASF197
 1801 0d16 11       		.byte	0x11
 1802 0d17 70       		.byte	0x70
 1803 0d18 5D030000 		.4byte	0x35d
 1804 0d1c 18       		.byte	0x18
 1805 0d1d 06       		.uleb128 0x6
 1806 0d1e CB050000 		.4byte	.LASF198
 1807 0d22 11       		.byte	0x11
 1808 0d23 71       		.byte	0x71
 1809 0d24 5D030000 		.4byte	0x35d
 1810 0d28 1C       		.byte	0x1c
 1811 0d29 06       		.uleb128 0x6
 1812 0d2a BA050000 		.4byte	.LASF199
 1813 0d2e 11       		.byte	0x11
 1814 0d2f 73       		.byte	0x73
 1815 0d30 5D030000 		.4byte	0x35d
 1816 0d34 20       		.byte	0x20
 1817 0d35 06       		.uleb128 0x6
 1818 0d36 CA040000 		.4byte	.LASF200
 1819 0d3a 11       		.byte	0x11
 1820 0d3b 75       		.byte	0x75
 1821 0d3c 5D030000 		.4byte	0x35d
ARM GAS  /tmp/ccc6RK6s.s 			page 33


 1822 0d40 24       		.byte	0x24
 1823 0d41 06       		.uleb128 0x6
 1824 0d42 7D010000 		.4byte	.LASF201
 1825 0d46 11       		.byte	0x11
 1826 0d47 76       		.byte	0x76
 1827 0d48 5D030000 		.4byte	0x35d
 1828 0d4c 28       		.byte	0x28
 1829 0d4d 06       		.uleb128 0x6
 1830 0d4e B50A0000 		.4byte	.LASF202
 1831 0d52 11       		.byte	0x11
 1832 0d53 78       		.byte	0x78
 1833 0d54 5D030000 		.4byte	0x35d
 1834 0d58 2C       		.byte	0x2c
 1835 0d59 06       		.uleb128 0x6
 1836 0d5a E00A0000 		.4byte	.LASF203
 1837 0d5e 11       		.byte	0x11
 1838 0d5f 7A       		.byte	0x7a
 1839 0d60 5D030000 		.4byte	0x35d
 1840 0d64 30       		.byte	0x30
 1841 0d65 06       		.uleb128 0x6
 1842 0d66 F70A0000 		.4byte	.LASF204
 1843 0d6a 11       		.byte	0x11
 1844 0d6b 7B       		.byte	0x7b
 1845 0d6c 5D030000 		.4byte	0x35d
 1846 0d70 34       		.byte	0x34
 1847 0d71 06       		.uleb128 0x6
 1848 0d72 BC020000 		.4byte	.LASF205
 1849 0d76 11       		.byte	0x11
 1850 0d77 7C       		.byte	0x7c
 1851 0d78 5D030000 		.4byte	0x35d
 1852 0d7c 38       		.byte	0x38
 1853 0d7d 07       		.uleb128 0x7
 1854 0d7e 43494400 		.ascii	"CID\000"
 1855 0d82 11       		.byte	0x11
 1856 0d83 7D       		.byte	0x7d
 1857 0d84 5D030000 		.4byte	0x35d
 1858 0d88 3C       		.byte	0x3c
 1859 0d89 06       		.uleb128 0x6
 1860 0d8a A90B0000 		.4byte	.LASF206
 1861 0d8e 11       		.byte	0x11
 1862 0d8f 7E       		.byte	0x7e
 1863 0d90 AB0F0000 		.4byte	0xfab
 1864 0d94 40       		.byte	0x40
 1865 0d95 1F       		.uleb128 0x1f
 1866 0d96 BF080000 		.4byte	.LASF207
 1867 0d9a 11       		.byte	0x11
 1868 0d9b 7F       		.byte	0x7f
 1869 0d9c 5D030000 		.4byte	0x35d
 1870 0da0 0001     		.2byte	0x100
 1871 0da2 1F       		.uleb128 0x1f
 1872 0da3 F0040000 		.4byte	.LASF208
 1873 0da7 11       		.byte	0x11
 1874 0da8 81       		.byte	0x81
 1875 0da9 B00F0000 		.4byte	0xfb0
 1876 0dad 0401     		.2byte	0x104
 1877 0daf 1F       		.uleb128 0x1f
 1878 0db0 0F0C0000 		.4byte	.LASF209
ARM GAS  /tmp/ccc6RK6s.s 			page 34


 1879 0db4 11       		.byte	0x11
 1880 0db5 83       		.byte	0x83
 1881 0db6 C50F0000 		.4byte	0xfc5
 1882 0dba 4001     		.2byte	0x140
 1883 0dbc 1F       		.uleb128 0x1f
 1884 0dbd F0020000 		.4byte	.LASF210
 1885 0dc1 11       		.byte	0x11
 1886 0dc2 84       		.byte	0x84
 1887 0dc3 5D030000 		.4byte	0x35d
 1888 0dc7 0004     		.2byte	0x400
 1889 0dc9 1F       		.uleb128 0x1f
 1890 0dca C50B0000 		.4byte	.LASF211
 1891 0dce 11       		.byte	0x11
 1892 0dcf 85       		.byte	0x85
 1893 0dd0 5D030000 		.4byte	0x35d
 1894 0dd4 0404     		.2byte	0x404
 1895 0dd6 1F       		.uleb128 0x1f
 1896 0dd7 AC030000 		.4byte	.LASF212
 1897 0ddb 11       		.byte	0x11
 1898 0ddc 86       		.byte	0x86
 1899 0ddd 5D030000 		.4byte	0x35d
 1900 0de1 0804     		.2byte	0x408
 1901 0de3 1F       		.uleb128 0x1f
 1902 0de4 9B050000 		.4byte	.LASF213
 1903 0de8 11       		.byte	0x11
 1904 0de9 88       		.byte	0x88
 1905 0dea 5D030000 		.4byte	0x35d
 1906 0dee 0C04     		.2byte	0x40c
 1907 0df0 1F       		.uleb128 0x1f
 1908 0df1 A10B0000 		.4byte	.LASF214
 1909 0df5 11       		.byte	0x11
 1910 0df6 89       		.byte	0x89
 1911 0df7 5D030000 		.4byte	0x35d
 1912 0dfb 1004     		.2byte	0x410
 1913 0dfd 1F       		.uleb128 0x1f
 1914 0dfe 7E070000 		.4byte	.LASF215
 1915 0e02 11       		.byte	0x11
 1916 0e03 8B       		.byte	0x8b
 1917 0e04 5D030000 		.4byte	0x35d
 1918 0e08 1404     		.2byte	0x414
 1919 0e0a 1F       		.uleb128 0x1f
 1920 0e0b 1B080000 		.4byte	.LASF216
 1921 0e0f 11       		.byte	0x11
 1922 0e10 8D       		.byte	0x8d
 1923 0e11 5D030000 		.4byte	0x35d
 1924 0e15 1804     		.2byte	0x418
 1925 0e17 1F       		.uleb128 0x1f
 1926 0e18 26060000 		.4byte	.LASF217
 1927 0e1c 11       		.byte	0x11
 1928 0e1d 8F       		.byte	0x8f
 1929 0e1e DA0F0000 		.4byte	0xfda
 1930 0e22 1C04     		.2byte	0x41c
 1931 0e24 1F       		.uleb128 0x1f
 1932 0e25 47030000 		.4byte	.LASF218
 1933 0e29 11       		.byte	0x11
 1934 0e2a 90       		.byte	0x90
 1935 0e2b 5D030000 		.4byte	0x35d
ARM GAS  /tmp/ccc6RK6s.s 			page 35


 1936 0e2f 4004     		.2byte	0x440
 1937 0e31 1F       		.uleb128 0x1f
 1938 0e32 F7070000 		.4byte	.LASF219
 1939 0e36 11       		.byte	0x11
 1940 0e37 92       		.byte	0x92
 1941 0e38 EF0F0000 		.4byte	0xfef
 1942 0e3c 4404     		.2byte	0x444
 1943 0e3e 20       		.uleb128 0x20
 1944 0e3f 686300   		.ascii	"hc\000"
 1945 0e42 11       		.byte	0x11
 1946 0e43 93       		.byte	0x93
 1947 0e44 F40F0000 		.4byte	0xff4
 1948 0e48 0005     		.2byte	0x500
 1949 0e4a 1F       		.uleb128 0x1f
 1950 0e4b AA000000 		.4byte	.LASF220
 1951 0e4f 11       		.byte	0x11
 1952 0e50 94       		.byte	0x94
 1953 0e51 14100000 		.4byte	0x1014
 1954 0e55 0007     		.2byte	0x700
 1955 0e57 1F       		.uleb128 0x1f
 1956 0e58 B7020000 		.4byte	.LASF221
 1957 0e5c 11       		.byte	0x11
 1958 0e5d 95       		.byte	0x95
 1959 0e5e 5D030000 		.4byte	0x35d
 1960 0e62 0008     		.2byte	0x800
 1961 0e64 1F       		.uleb128 0x1f
 1962 0e65 F5080000 		.4byte	.LASF222
 1963 0e69 11       		.byte	0x11
 1964 0e6a 96       		.byte	0x96
 1965 0e6b 5D030000 		.4byte	0x35d
 1966 0e6f 0408     		.2byte	0x804
 1967 0e71 1F       		.uleb128 0x1f
 1968 0e72 6A0B0000 		.4byte	.LASF223
 1969 0e76 11       		.byte	0x11
 1970 0e77 97       		.byte	0x97
 1971 0e78 5D030000 		.4byte	0x35d
 1972 0e7c 0808     		.2byte	0x808
 1973 0e7e 1F       		.uleb128 0x1f
 1974 0e7f 33030000 		.4byte	.LASF224
 1975 0e83 11       		.byte	0x11
 1976 0e84 98       		.byte	0x98
 1977 0e85 5D030000 		.4byte	0x35d
 1978 0e89 0C08     		.2byte	0x80c
 1979 0e8b 1F       		.uleb128 0x1f
 1980 0e8c 570A0000 		.4byte	.LASF225
 1981 0e90 11       		.byte	0x11
 1982 0e91 99       		.byte	0x99
 1983 0e92 5D030000 		.4byte	0x35d
 1984 0e96 1008     		.2byte	0x810
 1985 0e98 1F       		.uleb128 0x1f
 1986 0e99 1F020000 		.4byte	.LASF226
 1987 0e9d 11       		.byte	0x11
 1988 0e9e 9B       		.byte	0x9b
 1989 0e9f 5D030000 		.4byte	0x35d
 1990 0ea3 1408     		.2byte	0x814
 1991 0ea5 1F       		.uleb128 0x1f
 1992 0ea6 03020000 		.4byte	.LASF227
ARM GAS  /tmp/ccc6RK6s.s 			page 36


 1993 0eaa 11       		.byte	0x11
 1994 0eab 9D       		.byte	0x9d
 1995 0eac 5D030000 		.4byte	0x35d
 1996 0eb0 1808     		.2byte	0x818
 1997 0eb2 1F       		.uleb128 0x1f
 1998 0eb3 47090000 		.4byte	.LASF228
 1999 0eb7 11       		.byte	0x11
 2000 0eb8 9F       		.byte	0x9f
 2001 0eb9 5D030000 		.4byte	0x35d
 2002 0ebd 1C08     		.2byte	0x81c
 2003 0ebf 1F       		.uleb128 0x1f
 2004 0ec0 53050000 		.4byte	.LASF229
 2005 0ec4 11       		.byte	0x11
 2006 0ec5 A1       		.byte	0xa1
 2007 0ec6 5D030000 		.4byte	0x35d
 2008 0eca 2008     		.2byte	0x820
 2009 0ecc 1F       		.uleb128 0x1f
 2010 0ecd 08040000 		.4byte	.LASF230
 2011 0ed1 11       		.byte	0x11
 2012 0ed2 A2       		.byte	0xa2
 2013 0ed3 5D030000 		.4byte	0x35d
 2014 0ed7 2408     		.2byte	0x824
 2015 0ed9 1F       		.uleb128 0x1f
 2016 0eda 5C090000 		.4byte	.LASF231
 2017 0ede 11       		.byte	0x11
 2018 0edf A3       		.byte	0xa3
 2019 0ee0 5D030000 		.4byte	0x35d
 2020 0ee4 2808     		.2byte	0x828
 2021 0ee6 1F       		.uleb128 0x1f
 2022 0ee7 11040000 		.4byte	.LASF232
 2023 0eeb 11       		.byte	0x11
 2024 0eec A5       		.byte	0xa5
 2025 0eed 5D030000 		.4byte	0x35d
 2026 0ef1 2C08     		.2byte	0x82c
 2027 0ef3 1F       		.uleb128 0x1f
 2028 0ef4 37060000 		.4byte	.LASF233
 2029 0ef8 11       		.byte	0x11
 2030 0ef9 A7       		.byte	0xa7
 2031 0efa 5D030000 		.4byte	0x35d
 2032 0efe 3008     		.2byte	0x830
 2033 0f00 1F       		.uleb128 0x1f
 2034 0f01 31040000 		.4byte	.LASF234
 2035 0f05 11       		.byte	0x11
 2036 0f06 A8       		.byte	0xa8
 2037 0f07 5D030000 		.4byte	0x35d
 2038 0f0b 3408     		.2byte	0x834
 2039 0f0d 1F       		.uleb128 0x1f
 2040 0f0e 88040000 		.4byte	.LASF235
 2041 0f12 11       		.byte	0x11
 2042 0f13 AA       		.byte	0xaa
 2043 0f14 5D030000 		.4byte	0x35d
 2044 0f18 3808     		.2byte	0x838
 2045 0f1a 1F       		.uleb128 0x1f
 2046 0f1b 40070000 		.4byte	.LASF236
 2047 0f1f 11       		.byte	0x11
 2048 0f20 AB       		.byte	0xab
 2049 0f21 5D030000 		.4byte	0x35d
ARM GAS  /tmp/ccc6RK6s.s 			page 37


 2050 0f25 3C08     		.2byte	0x83c
 2051 0f27 1F       		.uleb128 0x1f
 2052 0f28 DC040000 		.4byte	.LASF237
 2053 0f2c 11       		.byte	0x11
 2054 0f2d AC       		.byte	0xac
 2055 0f2e 29100000 		.4byte	0x1029
 2056 0f32 4008     		.2byte	0x840
 2057 0f34 1F       		.uleb128 0x1f
 2058 0f35 2A070000 		.4byte	.LASF238
 2059 0f39 11       		.byte	0x11
 2060 0f3a AD       		.byte	0xad
 2061 0f3b 2E100000 		.4byte	0x102e
 2062 0f3f 8008     		.2byte	0x880
 2063 0f41 1F       		.uleb128 0x1f
 2064 0f42 EE0A0000 		.4byte	.LASF239
 2065 0f46 11       		.byte	0x11
 2066 0f47 AE       		.byte	0xae
 2067 0f48 33100000 		.4byte	0x1033
 2068 0f4c C008     		.2byte	0x8c0
 2069 0f4e 20       		.uleb128 0x20
 2070 0f4f 696500   		.ascii	"ie\000"
 2071 0f52 11       		.byte	0x11
 2072 0f53 AF       		.byte	0xaf
 2073 0f54 38100000 		.4byte	0x1038
 2074 0f58 0009     		.2byte	0x900
 2075 0f5a 20       		.uleb128 0x20
 2076 0f5b 6F6500   		.ascii	"oe\000"
 2077 0f5e 11       		.byte	0x11
 2078 0f5f B0       		.byte	0xb0
 2079 0f60 48100000 		.4byte	0x1048
 2080 0f64 000B     		.2byte	0xb00
 2081 0f66 1F       		.uleb128 0x1f
 2082 0f67 9F080000 		.4byte	.LASF240
 2083 0f6b 11       		.byte	0x11
 2084 0f6c B1       		.byte	0xb1
 2085 0f6d 58100000 		.4byte	0x1058
 2086 0f71 000D     		.2byte	0xd00
 2087 0f73 1F       		.uleb128 0x1f
 2088 0f74 E4050000 		.4byte	.LASF241
 2089 0f78 11       		.byte	0x11
 2090 0f79 B2       		.byte	0xb2
 2091 0f7a 5D030000 		.4byte	0x35d
 2092 0f7e 000E     		.2byte	0xe00
 2093 0f80 1F       		.uleb128 0x1f
 2094 0f81 D70A0000 		.4byte	.LASF242
 2095 0f85 11       		.byte	0x11
 2096 0f86 B4       		.byte	0xb4
 2097 0f87 6D100000 		.4byte	0x106d
 2098 0f8b 040E     		.2byte	0xe04
 2099 0f8d 1F       		.uleb128 0x1f
 2100 0f8e 99090000 		.4byte	.LASF243
 2101 0f92 11       		.byte	0x11
 2102 0f93 B5       		.byte	0xb5
 2103 0f94 89100000 		.4byte	0x1089
 2104 0f98 0010     		.2byte	0x1000
 2105 0f9a 00       		.byte	0
 2106 0f9b 13       		.uleb128 0x13
ARM GAS  /tmp/ccc6RK6s.s 			page 38


 2107 0f9c CE000000 		.4byte	0xce
 2108 0fa0 AB0F0000 		.4byte	0xfab
 2109 0fa4 14       		.uleb128 0x14
 2110 0fa5 62030000 		.4byte	0x362
 2111 0fa9 2F       		.byte	0x2f
 2112 0faa 00       		.byte	0
 2113 0fab 0D       		.uleb128 0xd
 2114 0fac 9B0F0000 		.4byte	0xf9b
 2115 0fb0 0D       		.uleb128 0xd
 2116 0fb1 CE040000 		.4byte	0x4ce
 2117 0fb5 13       		.uleb128 0x13
 2118 0fb6 CE000000 		.4byte	0xce
 2119 0fba C50F0000 		.4byte	0xfc5
 2120 0fbe 14       		.uleb128 0x14
 2121 0fbf 62030000 		.4byte	0x362
 2122 0fc3 AF       		.byte	0xaf
 2123 0fc4 00       		.byte	0
 2124 0fc5 0D       		.uleb128 0xd
 2125 0fc6 B50F0000 		.4byte	0xfb5
 2126 0fca 13       		.uleb128 0x13
 2127 0fcb CE000000 		.4byte	0xce
 2128 0fcf DA0F0000 		.4byte	0xfda
 2129 0fd3 14       		.uleb128 0x14
 2130 0fd4 62030000 		.4byte	0x362
 2131 0fd8 08       		.byte	0x8
 2132 0fd9 00       		.byte	0
 2133 0fda 0D       		.uleb128 0xd
 2134 0fdb CA0F0000 		.4byte	0xfca
 2135 0fdf 13       		.uleb128 0x13
 2136 0fe0 CE000000 		.4byte	0xce
 2137 0fe4 EF0F0000 		.4byte	0xfef
 2138 0fe8 14       		.uleb128 0x14
 2139 0fe9 62030000 		.4byte	0x362
 2140 0fed 2E       		.byte	0x2e
 2141 0fee 00       		.byte	0
 2142 0fef 0D       		.uleb128 0xd
 2143 0ff0 DF0F0000 		.4byte	0xfdf
 2144 0ff4 13       		.uleb128 0x13
 2145 0ff5 CB0B0000 		.4byte	0xbcb
 2146 0ff9 04100000 		.4byte	0x1004
 2147 0ffd 14       		.uleb128 0x14
 2148 0ffe 62030000 		.4byte	0x362
 2149 1002 0F       		.byte	0xf
 2150 1003 00       		.byte	0
 2151 1004 13       		.uleb128 0x13
 2152 1005 CE000000 		.4byte	0xce
 2153 1009 14100000 		.4byte	0x1014
 2154 100d 14       		.uleb128 0x14
 2155 100e 62030000 		.4byte	0x362
 2156 1012 3F       		.byte	0x3f
 2157 1013 00       		.byte	0
 2158 1014 0D       		.uleb128 0xd
 2159 1015 04100000 		.4byte	0x1004
 2160 1019 13       		.uleb128 0x13
 2161 101a CE000000 		.4byte	0xce
 2162 101e 29100000 		.4byte	0x1029
 2163 1022 14       		.uleb128 0x14
ARM GAS  /tmp/ccc6RK6s.s 			page 39


 2164 1023 62030000 		.4byte	0x362
 2165 1027 0F       		.byte	0xf
 2166 1028 00       		.byte	0
 2167 1029 0D       		.uleb128 0xd
 2168 102a 19100000 		.4byte	0x1019
 2169 102e 0D       		.uleb128 0xd
 2170 102f 19100000 		.4byte	0x1019
 2171 1033 0D       		.uleb128 0xd
 2172 1034 19100000 		.4byte	0x1019
 2173 1038 13       		.uleb128 0x13
 2174 1039 3F0C0000 		.4byte	0xc3f
 2175 103d 48100000 		.4byte	0x1048
 2176 1041 14       		.uleb128 0x14
 2177 1042 62030000 		.4byte	0x362
 2178 1046 0F       		.byte	0xf
 2179 1047 00       		.byte	0
 2180 1048 13       		.uleb128 0x13
 2181 1049 B30C0000 		.4byte	0xcb3
 2182 104d 58100000 		.4byte	0x1058
 2183 1051 14       		.uleb128 0x14
 2184 1052 62030000 		.4byte	0x362
 2185 1056 0F       		.byte	0xf
 2186 1057 00       		.byte	0
 2187 1058 0D       		.uleb128 0xd
 2188 1059 04100000 		.4byte	0x1004
 2189 105d 13       		.uleb128 0x13
 2190 105e CE000000 		.4byte	0xce
 2191 1062 6D100000 		.4byte	0x106d
 2192 1066 14       		.uleb128 0x14
 2193 1067 62030000 		.4byte	0x362
 2194 106b 7E       		.byte	0x7e
 2195 106c 00       		.byte	0
 2196 106d 0D       		.uleb128 0xd
 2197 106e 5D100000 		.4byte	0x105d
 2198 1072 13       		.uleb128 0x13
 2199 1073 CE000000 		.4byte	0xce
 2200 1077 89100000 		.4byte	0x1089
 2201 107b 14       		.uleb128 0x14
 2202 107c 62030000 		.4byte	0x362
 2203 1080 0F       		.byte	0xf
 2204 1081 21       		.uleb128 0x21
 2205 1082 62030000 		.4byte	0x362
 2206 1086 FF03     		.2byte	0x3ff
 2207 1088 00       		.byte	0
 2208 1089 0D       		.uleb128 0xd
 2209 108a 72100000 		.4byte	0x1072
 2210 108e 03       		.uleb128 0x3
 2211 108f B6070000 		.4byte	.LASF244
 2212 1093 11       		.byte	0x11
 2213 1094 B6       		.byte	0xb6
 2214 1095 BE0C0000 		.4byte	0xcbe
 2215 1099 08       		.uleb128 0x8
 2216 109a 0C       		.byte	0xc
 2217 109b 10       		.byte	0x10
 2218 109c C1       		.byte	0xc1
 2219 109d C6100000 		.4byte	0x10c6
 2220 10a1 06       		.uleb128 0x6
ARM GAS  /tmp/ccc6RK6s.s 			page 40


 2221 10a2 39000000 		.4byte	.LASF245
 2222 10a6 10       		.byte	0x10
 2223 10a7 C2       		.byte	0xc2
 2224 10a8 CE000000 		.4byte	0xce
 2225 10ac 00       		.byte	0
 2226 10ad 06       		.uleb128 0x6
 2227 10ae 77090000 		.4byte	.LASF246
 2228 10b2 10       		.byte	0x10
 2229 10b3 C3       		.byte	0xc3
 2230 10b4 CE000000 		.4byte	0xce
 2231 10b8 04       		.byte	0x4
 2232 10b9 06       		.uleb128 0x6
 2233 10ba 3D050000 		.4byte	.LASF247
 2234 10be 10       		.byte	0x10
 2235 10bf C4       		.byte	0xc4
 2236 10c0 CE000000 		.4byte	0xce
 2237 10c4 08       		.byte	0x8
 2238 10c5 00       		.byte	0
 2239 10c6 03       		.uleb128 0x3
 2240 10c7 4A040000 		.4byte	.LASF248
 2241 10cb 10       		.byte	0x10
 2242 10cc C5       		.byte	0xc5
 2243 10cd 99100000 		.4byte	0x1099
 2244 10d1 08       		.uleb128 0x8
 2245 10d2 04       		.byte	0x4
 2246 10d3 10       		.byte	0x10
 2247 10d4 D8       		.byte	0xd8
 2248 10d5 E6100000 		.4byte	0x10e6
 2249 10d9 06       		.uleb128 0x6
 2250 10da F4010000 		.4byte	.LASF249
 2251 10de 10       		.byte	0x10
 2252 10df DC       		.byte	0xdc
 2253 10e0 B3040000 		.4byte	0x4b3
 2254 10e4 00       		.byte	0
 2255 10e5 00       		.byte	0
 2256 10e6 08       		.uleb128 0x8
 2257 10e7 04       		.byte	0x4
 2258 10e8 10       		.byte	0x10
 2259 10e9 DE       		.byte	0xde
 2260 10ea FB100000 		.4byte	0x10fb
 2261 10ee 06       		.uleb128 0x6
 2262 10ef 470A0000 		.4byte	.LASF250
 2263 10f3 10       		.byte	0x10
 2264 10f4 E2       		.byte	0xe2
 2265 10f5 FB100000 		.4byte	0x10fb
 2266 10f9 00       		.byte	0
 2267 10fa 00       		.byte	0
 2268 10fb 09       		.uleb128 0x9
 2269 10fc 04       		.byte	0x4
 2270 10fd A8040000 		.4byte	0x4a8
 2271 1101 0E       		.uleb128 0xe
 2272 1102 04       		.byte	0x4
 2273 1103 10       		.byte	0x10
 2274 1104 D7       		.byte	0xd7
 2275 1105 20110000 		.4byte	0x1120
 2276 1109 0F       		.uleb128 0xf
 2277 110a E8080000 		.4byte	.LASF251
ARM GAS  /tmp/ccc6RK6s.s 			page 41


 2278 110e 10       		.byte	0x10
 2279 110f DD       		.byte	0xdd
 2280 1110 D1100000 		.4byte	0x10d1
 2281 1114 0F       		.uleb128 0xf
 2282 1115 00000000 		.4byte	.LASF252
 2283 1119 10       		.byte	0x10
 2284 111a E3       		.byte	0xe3
 2285 111b E6100000 		.4byte	0x10e6
 2286 111f 00       		.byte	0
 2287 1120 08       		.uleb128 0x8
 2288 1121 14       		.byte	0x14
 2289 1122 10       		.byte	0x10
 2290 1123 CA       		.byte	0xca
 2291 1124 65110000 		.4byte	0x1165
 2292 1128 06       		.uleb128 0x6
 2293 1129 F30B0000 		.4byte	.LASF253
 2294 112d 10       		.byte	0x10
 2295 112e CE       		.byte	0xce
 2296 112f E4000000 		.4byte	0xe4
 2297 1133 00       		.byte	0
 2298 1134 06       		.uleb128 0x6
 2299 1135 94050000 		.4byte	.LASF254
 2300 1139 10       		.byte	0x10
 2301 113a D2       		.byte	0xd2
 2302 113b 2C000000 		.4byte	0x2c
 2303 113f 04       		.byte	0x4
 2304 1140 06       		.uleb128 0x6
 2305 1141 AF010000 		.4byte	.LASF255
 2306 1145 10       		.byte	0x10
 2307 1146 D6       		.byte	0xd6
 2308 1147 2C000000 		.4byte	0x2c
 2309 114b 08       		.byte	0x8
 2310 114c 06       		.uleb128 0x6
 2311 114d 1A0A0000 		.4byte	.LASF114
 2312 1151 10       		.byte	0x10
 2313 1152 E4       		.byte	0xe4
 2314 1153 01110000 		.4byte	0x1101
 2315 1157 0C       		.byte	0xc
 2316 1158 06       		.uleb128 0x6
 2317 1159 090A0000 		.4byte	.LASF256
 2318 115d 10       		.byte	0x10
 2319 115e E8       		.byte	0xe8
 2320 115f 2C000000 		.4byte	0x2c
 2321 1163 10       		.byte	0x10
 2322 1164 00       		.byte	0
 2323 1165 03       		.uleb128 0x3
 2324 1166 E8030000 		.4byte	.LASF257
 2325 116a 10       		.byte	0x10
 2326 116b E9       		.byte	0xe9
 2327 116c 20110000 		.4byte	0x1120
 2328 1170 08       		.uleb128 0x8
 2329 1171 04       		.byte	0x4
 2330 1172 10       		.byte	0x10
 2331 1173 FC       		.byte	0xfc
 2332 1174 86110000 		.4byte	0x1186
 2333 1178 18       		.uleb128 0x18
 2334 1179 B4050000 		.4byte	.LASF258
ARM GAS  /tmp/ccc6RK6s.s 			page 42


 2335 117d 10       		.byte	0x10
 2336 117e 0001     		.2byte	0x100
 2337 1180 97040000 		.4byte	0x497
 2338 1184 00       		.byte	0
 2339 1185 00       		.byte	0
 2340 1186 19       		.uleb128 0x19
 2341 1187 04       		.byte	0x4
 2342 1188 10       		.byte	0x10
 2343 1189 0201     		.2byte	0x102
 2344 118b 9D110000 		.4byte	0x119d
 2345 118f 18       		.uleb128 0x18
 2346 1190 3F090000 		.4byte	.LASF259
 2347 1194 10       		.byte	0x10
 2348 1195 0601     		.2byte	0x106
 2349 1197 9D110000 		.4byte	0x119d
 2350 119b 00       		.byte	0
 2351 119c 00       		.byte	0
 2352 119d 09       		.uleb128 0x9
 2353 119e 04       		.byte	0x4
 2354 119f 9D040000 		.4byte	0x49d
 2355 11a3 0E       		.uleb128 0xe
 2356 11a4 04       		.byte	0x4
 2357 11a5 10       		.byte	0x10
 2358 11a6 FB       		.byte	0xfb
 2359 11a7 C4110000 		.4byte	0x11c4
 2360 11ab 22       		.uleb128 0x22
 2361 11ac E8080000 		.4byte	.LASF251
 2362 11b0 10       		.byte	0x10
 2363 11b1 0101     		.2byte	0x101
 2364 11b3 70110000 		.4byte	0x1170
 2365 11b7 22       		.uleb128 0x22
 2366 11b8 00000000 		.4byte	.LASF252
 2367 11bc 10       		.byte	0x10
 2368 11bd 0701     		.2byte	0x107
 2369 11bf 86110000 		.4byte	0x1186
 2370 11c3 00       		.byte	0
 2371 11c4 08       		.uleb128 0x8
 2372 11c5 14       		.byte	0x14
 2373 11c6 10       		.byte	0x10
 2374 11c7 EE       		.byte	0xee
 2375 11c8 0B120000 		.4byte	0x120b
 2376 11cc 06       		.uleb128 0x6
 2377 11cd 1A090000 		.4byte	.LASF260
 2378 11d1 10       		.byte	0x10
 2379 11d2 F2       		.byte	0xf2
 2380 11d3 E4000000 		.4byte	0xe4
 2381 11d7 00       		.byte	0
 2382 11d8 06       		.uleb128 0x6
 2383 11d9 84020000 		.4byte	.LASF261
 2384 11dd 10       		.byte	0x10
 2385 11de F6       		.byte	0xf6
 2386 11df 2C000000 		.4byte	0x2c
 2387 11e3 04       		.byte	0x4
 2388 11e4 06       		.uleb128 0x6
 2389 11e5 83050000 		.4byte	.LASF262
 2390 11e9 10       		.byte	0x10
 2391 11ea FA       		.byte	0xfa
ARM GAS  /tmp/ccc6RK6s.s 			page 43


 2392 11eb 2C000000 		.4byte	0x2c
 2393 11ef 08       		.byte	0x8
 2394 11f0 18       		.uleb128 0x18
 2395 11f1 1A0A0000 		.4byte	.LASF114
 2396 11f5 10       		.byte	0x10
 2397 11f6 0801     		.2byte	0x108
 2398 11f8 A3110000 		.4byte	0x11a3
 2399 11fc 0C       		.byte	0xc
 2400 11fd 18       		.uleb128 0x18
 2401 11fe 090A0000 		.4byte	.LASF256
 2402 1202 10       		.byte	0x10
 2403 1203 0C01     		.2byte	0x10c
 2404 1205 2C000000 		.4byte	0x2c
 2405 1209 10       		.byte	0x10
 2406 120a 00       		.byte	0
 2407 120b 1A       		.uleb128 0x1a
 2408 120c 8B080000 		.4byte	.LASF263
 2409 1210 10       		.byte	0x10
 2410 1211 0D01     		.2byte	0x10d
 2411 1213 C4110000 		.4byte	0x11c4
 2412 1217 19       		.uleb128 0x19
 2413 1218 24       		.byte	0x24
 2414 1219 10       		.byte	0x10
 2415 121a 1301     		.2byte	0x113
 2416 121c A3120000 		.4byte	0x12a3
 2417 1220 18       		.uleb128 0x18
 2418 1221 C0000000 		.4byte	.LASF264
 2419 1225 10       		.byte	0x10
 2420 1226 1701     		.2byte	0x117
 2421 1228 CE000000 		.4byte	0xce
 2422 122c 00       		.byte	0
 2423 122d 18       		.uleb128 0x18
 2424 122e 7C030000 		.4byte	.LASF265
 2425 1232 10       		.byte	0x10
 2426 1233 2201     		.2byte	0x122
 2427 1235 C20A0000 		.4byte	0xac2
 2428 1239 04       		.byte	0x4
 2429 123a 18       		.uleb128 0x18
 2430 123b 8F030000 		.4byte	.LASF266
 2431 123f 10       		.byte	0x10
 2432 1240 2801     		.2byte	0x128
 2433 1242 C20A0000 		.4byte	0xac2
 2434 1246 08       		.byte	0x8
 2435 1247 18       		.uleb128 0x18
 2436 1248 0A080000 		.4byte	.LASF267
 2437 124c 10       		.byte	0x10
 2438 124d 2E01     		.2byte	0x12e
 2439 124f C20A0000 		.4byte	0xac2
 2440 1253 0C       		.byte	0xc
 2441 1254 18       		.uleb128 0x18
 2442 1255 2D080000 		.4byte	.LASF268
 2443 1259 10       		.byte	0x10
 2444 125a 3401     		.2byte	0x134
 2445 125c B8000000 		.4byte	0xb8
 2446 1260 10       		.byte	0x10
 2447 1261 18       		.uleb128 0x18
 2448 1262 D5010000 		.4byte	.LASF269
ARM GAS  /tmp/ccc6RK6s.s 			page 44


 2449 1266 10       		.byte	0x10
 2450 1267 3A01     		.2byte	0x13a
 2451 1269 B8000000 		.4byte	0xb8
 2452 126d 12       		.byte	0x12
 2453 126e 18       		.uleb128 0x18
 2454 126f C2050000 		.4byte	.LASF270
 2455 1273 10       		.byte	0x10
 2456 1274 3F01     		.2byte	0x13f
 2457 1276 A3120000 		.4byte	0x12a3
 2458 127a 14       		.byte	0x14
 2459 127b 18       		.uleb128 0x18
 2460 127c 47080000 		.4byte	.LASF271
 2461 1280 10       		.byte	0x10
 2462 1281 4401     		.2byte	0x144
 2463 1283 A9120000 		.4byte	0x12a9
 2464 1287 18       		.byte	0x18
 2465 1288 18       		.uleb128 0x18
 2466 1289 2F050000 		.4byte	.LASF272
 2467 128d 10       		.byte	0x10
 2468 128e 4B01     		.2byte	0x14b
 2469 1290 B8000000 		.4byte	0xb8
 2470 1294 1C       		.byte	0x1c
 2471 1295 18       		.uleb128 0x18
 2472 1296 C9070000 		.4byte	.LASF273
 2473 129a 10       		.byte	0x10
 2474 129b 5101     		.2byte	0x151
 2475 129d 97040000 		.4byte	0x497
 2476 12a1 20       		.byte	0x20
 2477 12a2 00       		.byte	0
 2478 12a3 09       		.uleb128 0x9
 2479 12a4 04       		.byte	0x4
 2480 12a5 65110000 		.4byte	0x1165
 2481 12a9 09       		.uleb128 0x9
 2482 12aa 04       		.byte	0x4
 2483 12ab 0B120000 		.4byte	0x120b
 2484 12af 1A       		.uleb128 0x1a
 2485 12b0 FA080000 		.4byte	.LASF274
 2486 12b4 10       		.byte	0x10
 2487 12b5 5201     		.2byte	0x152
 2488 12b7 17120000 		.4byte	0x1217
 2489 12bb 19       		.uleb128 0x19
 2490 12bc 10       		.byte	0x10
 2491 12bd 10       		.byte	0x10
 2492 12be 5701     		.2byte	0x157
 2493 12c0 F9120000 		.4byte	0x12f9
 2494 12c4 18       		.uleb128 0x18
 2495 12c5 F7050000 		.4byte	.LASF275
 2496 12c9 10       		.byte	0x10
 2497 12ca 5C01     		.2byte	0x15c
 2498 12cc E40A0000 		.4byte	0xae4
 2499 12d0 00       		.byte	0
 2500 12d1 18       		.uleb128 0x18
 2501 12d2 6F0B0000 		.4byte	.LASF276
 2502 12d6 10       		.byte	0x10
 2503 12d7 6101     		.2byte	0x161
 2504 12d9 270B0000 		.4byte	0xb27
 2505 12dd 04       		.byte	0x4
ARM GAS  /tmp/ccc6RK6s.s 			page 45


 2506 12de 18       		.uleb128 0x18
 2507 12df D9020000 		.4byte	.LASF277
 2508 12e3 10       		.byte	0x10
 2509 12e4 6701     		.2byte	0x167
 2510 12e6 060B0000 		.4byte	0xb06
 2511 12ea 08       		.byte	0x8
 2512 12eb 18       		.uleb128 0x18
 2513 12ec D00A0000 		.4byte	.LASF278
 2514 12f0 10       		.byte	0x10
 2515 12f1 6B01     		.2byte	0x16b
 2516 12f3 9F0A0000 		.4byte	0xa9f
 2517 12f7 0C       		.byte	0xc
 2518 12f8 00       		.byte	0
 2519 12f9 1A       		.uleb128 0x1a
 2520 12fa 91070000 		.4byte	.LASF279
 2521 12fe 10       		.byte	0x10
 2522 12ff 6D01     		.2byte	0x16d
 2523 1301 BB120000 		.4byte	0x12bb
 2524 1305 09       		.uleb128 0x9
 2525 1306 04       		.byte	0x4
 2526 1307 0B130000 		.4byte	0x130b
 2527 130b 10       		.uleb128 0x10
 2528 130c F9120000 		.4byte	0x12f9
 2529 1310 13       		.uleb128 0x13
 2530 1311 20130000 		.4byte	0x1320
 2531 1315 20130000 		.4byte	0x1320
 2532 1319 14       		.uleb128 0x14
 2533 131a 62030000 		.4byte	0x362
 2534 131e 03       		.byte	0x3
 2535 131f 00       		.byte	0
 2536 1320 09       		.uleb128 0x9
 2537 1321 04       		.byte	0x4
 2538 1322 26130000 		.4byte	0x1326
 2539 1326 10       		.uleb128 0x10
 2540 1327 AF120000 		.4byte	0x12af
 2541 132b 13       		.uleb128 0x13
 2542 132c B3020000 		.4byte	0x2b3
 2543 1330 3B130000 		.4byte	0x133b
 2544 1334 14       		.uleb128 0x14
 2545 1335 62030000 		.4byte	0x362
 2546 1339 02       		.byte	0x2
 2547 133a 00       		.byte	0
 2548 133b 09       		.uleb128 0x9
 2549 133c 04       		.byte	0x4
 2550 133d 8E100000 		.4byte	0x108e
 2551 1341 09       		.uleb128 0x9
 2552 1342 04       		.byte	0x4
 2553 1343 47130000 		.4byte	0x1347
 2554 1347 10       		.uleb128 0x10
 2555 1348 C6100000 		.4byte	0x10c6
 2556 134c 13       		.uleb128 0x13
 2557 134d B5020000 		.4byte	0x2b5
 2558 1351 5C130000 		.4byte	0x135c
 2559 1355 14       		.uleb128 0x14
 2560 1356 62030000 		.4byte	0x362
 2561 135a 29       		.byte	0x29
 2562 135b 00       		.byte	0
ARM GAS  /tmp/ccc6RK6s.s 			page 46


 2563 135c 23       		.uleb128 0x23
 2564 135d 51080000 		.4byte	.LASF293
 2565 1361 01       		.byte	0x1
 2566 1362 0C       		.byte	0xc
 2567 1363 00000000 		.4byte	.LFB118
 2568 1367 02000000 		.4byte	.LFE118-.LFB118
 2569 136b 01       		.uleb128 0x1
 2570 136c 9C       		.byte	0x9c
 2571 136d 7F130000 		.4byte	0x137f
 2572 1371 24       		.uleb128 0x24
 2573 1372 CB020000 		.4byte	.LASF294
 2574 1376 01       		.byte	0x1
 2575 1377 0C       		.byte	0xc
 2576 1378 83060000 		.4byte	0x683
 2577 137c 01       		.uleb128 0x1
 2578 137d 50       		.byte	0x50
 2579 137e 00       		.byte	0
 2580 137f 25       		.uleb128 0x25
 2581 1380 D0010000 		.4byte	.LASF295
 2582 1384 01       		.byte	0x1
 2583 1385 5E       		.byte	0x5e
 2584 1386 25000000 		.4byte	0x25
 2585 138a 00000000 		.4byte	.LFB122
 2586 138e 8C000000 		.4byte	.LFE122-.LFB122
 2587 1392 01       		.uleb128 0x1
 2588 1393 9C       		.byte	0x9c
 2589 1394 5D140000 		.4byte	0x145d
 2590 1398 26       		.uleb128 0x26
 2591 1399 06000000 		.4byte	.LVL1
 2592 139d 9E140000 		.4byte	0x149e
 2593 13a1 26       		.uleb128 0x26
 2594 13a2 0A000000 		.4byte	.LVL2
 2595 13a6 A5140000 		.4byte	0x14a5
 2596 13aa 26       		.uleb128 0x26
 2597 13ab 2A000000 		.4byte	.LVL3
 2598 13af AC140000 		.4byte	0x14ac
 2599 13b3 27       		.uleb128 0x27
 2600 13b4 36000000 		.4byte	.LVL4
 2601 13b8 B3140000 		.4byte	0x14b3
 2602 13bc C7130000 		.4byte	0x13c7
 2603 13c0 28       		.uleb128 0x28
 2604 13c1 01       		.uleb128 0x1
 2605 13c2 50       		.byte	0x50
 2606 13c3 02       		.uleb128 0x2
 2607 13c4 08       		.byte	0x8
 2608 13c5 C8       		.byte	0xc8
 2609 13c6 00       		.byte	0
 2610 13c7 27       		.uleb128 0x27
 2611 13c8 44000000 		.4byte	.LVL5
 2612 13cc C5140000 		.4byte	0x14c5
 2613 13d0 DE130000 		.4byte	0x13de
 2614 13d4 28       		.uleb128 0x28
 2615 13d5 01       		.uleb128 0x1
 2616 13d6 51       		.byte	0x51
 2617 13d7 05       		.uleb128 0x5
 2618 13d8 03       		.byte	0x3
 2619 13d9 00000000 		.4byte	.LANCHOR0
ARM GAS  /tmp/ccc6RK6s.s 			page 47


 2620 13dd 00       		.byte	0
 2621 13de 27       		.uleb128 0x27
 2622 13df 50000000 		.4byte	.LVL6
 2623 13e3 DB140000 		.4byte	0x14db
 2624 13e7 02140000 		.4byte	0x1402
 2625 13eb 28       		.uleb128 0x28
 2626 13ec 01       		.uleb128 0x1
 2627 13ed 52       		.byte	0x52
 2628 13ee 03       		.uleb128 0x3
 2629 13ef 0A       		.byte	0xa
 2630 13f0 0201     		.2byte	0x102
 2631 13f2 28       		.uleb128 0x28
 2632 13f3 01       		.uleb128 0x1
 2633 13f4 51       		.byte	0x51
 2634 13f5 02       		.uleb128 0x2
 2635 13f6 08       		.byte	0x8
 2636 13f7 40       		.byte	0x40
 2637 13f8 28       		.uleb128 0x28
 2638 13f9 01       		.uleb128 0x1
 2639 13fa 50       		.byte	0x50
 2640 13fb 05       		.uleb128 0x5
 2641 13fc 0C       		.byte	0xc
 2642 13fd 00040240 		.4byte	0x40020400
 2643 1401 00       		.byte	0
 2644 1402 27       		.uleb128 0x27
 2645 1403 5E000000 		.4byte	.LVL7
 2646 1407 DB140000 		.4byte	0x14db
 2647 140b 27140000 		.4byte	0x1427
 2648 140f 28       		.uleb128 0x28
 2649 1410 01       		.uleb128 0x1
 2650 1411 52       		.byte	0x52
 2651 1412 03       		.uleb128 0x3
 2652 1413 0A       		.byte	0xa
 2653 1414 0201     		.2byte	0x102
 2654 1416 28       		.uleb128 0x28
 2655 1417 01       		.uleb128 0x1
 2656 1418 51       		.byte	0x51
 2657 1419 03       		.uleb128 0x3
 2658 141a 0A       		.byte	0xa
 2659 141b 0001     		.2byte	0x100
 2660 141d 28       		.uleb128 0x28
 2661 141e 01       		.uleb128 0x1
 2662 141f 50       		.byte	0x50
 2663 1420 05       		.uleb128 0x5
 2664 1421 0C       		.byte	0xc
 2665 1422 00040240 		.4byte	0x40020400
 2666 1426 00       		.byte	0
 2667 1427 27       		.uleb128 0x27
 2668 1428 6C000000 		.4byte	.LVL8
 2669 142c DB140000 		.4byte	0x14db
 2670 1430 4C140000 		.4byte	0x144c
 2671 1434 28       		.uleb128 0x28
 2672 1435 01       		.uleb128 0x1
 2673 1436 52       		.byte	0x52
 2674 1437 03       		.uleb128 0x3
 2675 1438 0A       		.byte	0xa
 2676 1439 0201     		.2byte	0x102
ARM GAS  /tmp/ccc6RK6s.s 			page 48


 2677 143b 28       		.uleb128 0x28
 2678 143c 01       		.uleb128 0x1
 2679 143d 51       		.byte	0x51
 2680 143e 03       		.uleb128 0x3
 2681 143f 0A       		.byte	0xa
 2682 1440 0002     		.2byte	0x200
 2683 1442 28       		.uleb128 0x28
 2684 1443 01       		.uleb128 0x1
 2685 1444 50       		.byte	0x50
 2686 1445 05       		.uleb128 0x5
 2687 1446 0C       		.byte	0xc
 2688 1447 00040240 		.4byte	0x40020400
 2689 144b 00       		.byte	0
 2690 144c 29       		.uleb128 0x29
 2691 144d 74000000 		.4byte	.LVL9
 2692 1451 F7140000 		.4byte	0x14f7
 2693 1455 28       		.uleb128 0x28
 2694 1456 01       		.uleb128 0x1
 2695 1457 50       		.byte	0x50
 2696 1458 02       		.uleb128 0x2
 2697 1459 09       		.byte	0x9
 2698 145a FF       		.byte	0xff
 2699 145b 00       		.byte	0
 2700 145c 00       		.byte	0
 2701 145d 2A       		.uleb128 0x2a
 2702 145e E2090000 		.4byte	.LASF296
 2703 1462 01       		.byte	0x1
 2704 1463 0A       		.byte	0xa
 2705 1464 B8000000 		.4byte	0xb8
 2706 1468 64       		.byte	0x64
 2707 1469 2B       		.uleb128 0x2b
 2708 146a 33070000 		.4byte	.LASF280
 2709 146e 12       		.byte	0x12
 2710 146f 9806     		.2byte	0x698
 2711 1471 DE040000 		.4byte	0x4de
 2712 1475 2B       		.uleb128 0x2b
 2713 1476 E80A0000 		.4byte	.LASF281
 2714 147a 0D       		.byte	0xd
 2715 147b BF01     		.2byte	0x1bf
 2716 147d 0D060000 		.4byte	0x60d
 2717 1481 2B       		.uleb128 0x2b
 2718 1482 A5090000 		.4byte	.LASF282
 2719 1486 10       		.byte	0x10
 2720 1487 FF01     		.2byte	0x1ff
 2721 1489 80080000 		.4byte	0x880
 2722 148d 2C       		.uleb128 0x2c
 2723 148e 490B0000 		.4byte	.LASF283
 2724 1492 01       		.byte	0x1
 2725 1493 2A       		.byte	0x2a
 2726 1494 63080000 		.4byte	0x863
 2727 1498 05       		.uleb128 0x5
 2728 1499 03       		.byte	0x3
 2729 149a 00000000 		.4byte	pwmcfg
 2730 149e 2D       		.uleb128 0x2d
 2731 149f 7B050000 		.4byte	.LASF284
 2732 14a3 13       		.byte	0x13
 2733 14a4 D0       		.byte	0xd0
ARM GAS  /tmp/ccc6RK6s.s 			page 49


 2734 14a5 2D       		.uleb128 0x2d
 2735 14a6 0F0B0000 		.4byte	.LASF285
 2736 14aa 14       		.byte	0x14
 2737 14ab F6       		.byte	0xf6
 2738 14ac 2D       		.uleb128 0x2d
 2739 14ad 9F040000 		.4byte	.LASF286
 2740 14b1 15       		.byte	0x15
 2741 14b2 38       		.byte	0x38
 2742 14b3 2E       		.uleb128 0x2e
 2743 14b4 26040000 		.4byte	.LASF287
 2744 14b8 07       		.byte	0x7
 2745 14b9 7501     		.2byte	0x175
 2746 14bb C5140000 		.4byte	0x14c5
 2747 14bf 12       		.uleb128 0x12
 2748 14c0 43010000 		.4byte	0x143
 2749 14c4 00       		.byte	0
 2750 14c5 2F       		.uleb128 0x2f
 2751 14c6 27020000 		.4byte	.LASF288
 2752 14ca 0C       		.byte	0xc
 2753 14cb F4       		.byte	0xf4
 2754 14cc DB140000 		.4byte	0x14db
 2755 14d0 12       		.uleb128 0x12
 2756 14d1 83060000 		.4byte	0x683
 2757 14d5 12       		.uleb128 0x12
 2758 14d6 6F080000 		.4byte	0x86f
 2759 14da 00       		.byte	0
 2760 14db 2E       		.uleb128 0x2e
 2761 14dc 0B010000 		.4byte	.LASF289
 2762 14e0 0B       		.byte	0xb
 2763 14e1 C201     		.2byte	0x1c2
 2764 14e3 F7140000 		.4byte	0x14f7
 2765 14e7 12       		.uleb128 0x12
 2766 14e8 C6050000 		.4byte	0x5c6
 2767 14ec 12       		.uleb128 0x12
 2768 14ed B0050000 		.4byte	0x5b0
 2769 14f1 12       		.uleb128 0x12
 2770 14f2 BB050000 		.4byte	0x5bb
 2771 14f6 00       		.byte	0
 2772 14f7 30       		.uleb128 0x30
 2773 14f8 F5090000 		.4byte	.LASF297
 2774 14fc 16       		.byte	0x16
 2775 14fd 05       		.byte	0x5
 2776 14fe 12       		.uleb128 0x12
 2777 14ff 43010000 		.4byte	0x143
 2778 1503 00       		.byte	0
 2779 1504 00       		.byte	0
 2780              		.section	.debug_abbrev,"",%progbits
 2781              	.Ldebug_abbrev0:
 2782 0000 01       		.uleb128 0x1
 2783 0001 11       		.uleb128 0x11
 2784 0002 01       		.byte	0x1
 2785 0003 25       		.uleb128 0x25
 2786 0004 0E       		.uleb128 0xe
 2787 0005 13       		.uleb128 0x13
 2788 0006 0B       		.uleb128 0xb
 2789 0007 03       		.uleb128 0x3
 2790 0008 0E       		.uleb128 0xe
ARM GAS  /tmp/ccc6RK6s.s 			page 50


 2791 0009 1B       		.uleb128 0x1b
 2792 000a 0E       		.uleb128 0xe
 2793 000b 55       		.uleb128 0x55
 2794 000c 17       		.uleb128 0x17
 2795 000d 11       		.uleb128 0x11
 2796 000e 01       		.uleb128 0x1
 2797 000f 10       		.uleb128 0x10
 2798 0010 17       		.uleb128 0x17
 2799 0011 00       		.byte	0
 2800 0012 00       		.byte	0
 2801 0013 02       		.uleb128 0x2
 2802 0014 24       		.uleb128 0x24
 2803 0015 00       		.byte	0
 2804 0016 0B       		.uleb128 0xb
 2805 0017 0B       		.uleb128 0xb
 2806 0018 3E       		.uleb128 0x3e
 2807 0019 0B       		.uleb128 0xb
 2808 001a 03       		.uleb128 0x3
 2809 001b 08       		.uleb128 0x8
 2810 001c 00       		.byte	0
 2811 001d 00       		.byte	0
 2812 001e 03       		.uleb128 0x3
 2813 001f 16       		.uleb128 0x16
 2814 0020 00       		.byte	0
 2815 0021 03       		.uleb128 0x3
 2816 0022 0E       		.uleb128 0xe
 2817 0023 3A       		.uleb128 0x3a
 2818 0024 0B       		.uleb128 0xb
 2819 0025 3B       		.uleb128 0x3b
 2820 0026 0B       		.uleb128 0xb
 2821 0027 49       		.uleb128 0x49
 2822 0028 13       		.uleb128 0x13
 2823 0029 00       		.byte	0
 2824 002a 00       		.byte	0
 2825 002b 04       		.uleb128 0x4
 2826 002c 24       		.uleb128 0x24
 2827 002d 00       		.byte	0
 2828 002e 0B       		.uleb128 0xb
 2829 002f 0B       		.uleb128 0xb
 2830 0030 3E       		.uleb128 0x3e
 2831 0031 0B       		.uleb128 0xb
 2832 0032 03       		.uleb128 0x3
 2833 0033 0E       		.uleb128 0xe
 2834 0034 00       		.byte	0
 2835 0035 00       		.byte	0
 2836 0036 05       		.uleb128 0x5
 2837 0037 13       		.uleb128 0x13
 2838 0038 01       		.byte	0x1
 2839 0039 03       		.uleb128 0x3
 2840 003a 0E       		.uleb128 0xe
 2841 003b 0B       		.uleb128 0xb
 2842 003c 0B       		.uleb128 0xb
 2843 003d 3A       		.uleb128 0x3a
 2844 003e 0B       		.uleb128 0xb
 2845 003f 3B       		.uleb128 0x3b
 2846 0040 0B       		.uleb128 0xb
 2847 0041 01       		.uleb128 0x1
ARM GAS  /tmp/ccc6RK6s.s 			page 51


 2848 0042 13       		.uleb128 0x13
 2849 0043 00       		.byte	0
 2850 0044 00       		.byte	0
 2851 0045 06       		.uleb128 0x6
 2852 0046 0D       		.uleb128 0xd
 2853 0047 00       		.byte	0
 2854 0048 03       		.uleb128 0x3
 2855 0049 0E       		.uleb128 0xe
 2856 004a 3A       		.uleb128 0x3a
 2857 004b 0B       		.uleb128 0xb
 2858 004c 3B       		.uleb128 0x3b
 2859 004d 0B       		.uleb128 0xb
 2860 004e 49       		.uleb128 0x49
 2861 004f 13       		.uleb128 0x13
 2862 0050 38       		.uleb128 0x38
 2863 0051 0B       		.uleb128 0xb
 2864 0052 00       		.byte	0
 2865 0053 00       		.byte	0
 2866 0054 07       		.uleb128 0x7
 2867 0055 0D       		.uleb128 0xd
 2868 0056 00       		.byte	0
 2869 0057 03       		.uleb128 0x3
 2870 0058 08       		.uleb128 0x8
 2871 0059 3A       		.uleb128 0x3a
 2872 005a 0B       		.uleb128 0xb
 2873 005b 3B       		.uleb128 0x3b
 2874 005c 0B       		.uleb128 0xb
 2875 005d 49       		.uleb128 0x49
 2876 005e 13       		.uleb128 0x13
 2877 005f 38       		.uleb128 0x38
 2878 0060 0B       		.uleb128 0xb
 2879 0061 00       		.byte	0
 2880 0062 00       		.byte	0
 2881 0063 08       		.uleb128 0x8
 2882 0064 13       		.uleb128 0x13
 2883 0065 01       		.byte	0x1
 2884 0066 0B       		.uleb128 0xb
 2885 0067 0B       		.uleb128 0xb
 2886 0068 3A       		.uleb128 0x3a
 2887 0069 0B       		.uleb128 0xb
 2888 006a 3B       		.uleb128 0x3b
 2889 006b 0B       		.uleb128 0xb
 2890 006c 01       		.uleb128 0x1
 2891 006d 13       		.uleb128 0x13
 2892 006e 00       		.byte	0
 2893 006f 00       		.byte	0
 2894 0070 09       		.uleb128 0x9
 2895 0071 0F       		.uleb128 0xf
 2896 0072 00       		.byte	0
 2897 0073 0B       		.uleb128 0xb
 2898 0074 0B       		.uleb128 0xb
 2899 0075 49       		.uleb128 0x49
 2900 0076 13       		.uleb128 0x13
 2901 0077 00       		.byte	0
 2902 0078 00       		.byte	0
 2903 0079 0A       		.uleb128 0xa
 2904 007a 0F       		.uleb128 0xf
ARM GAS  /tmp/ccc6RK6s.s 			page 52


 2905 007b 00       		.byte	0
 2906 007c 0B       		.uleb128 0xb
 2907 007d 0B       		.uleb128 0xb
 2908 007e 00       		.byte	0
 2909 007f 00       		.byte	0
 2910 0080 0B       		.uleb128 0xb
 2911 0081 13       		.uleb128 0x13
 2912 0082 01       		.byte	0x1
 2913 0083 03       		.uleb128 0x3
 2914 0084 0E       		.uleb128 0xe
 2915 0085 0B       		.uleb128 0xb
 2916 0086 0B       		.uleb128 0xb
 2917 0087 3A       		.uleb128 0x3a
 2918 0088 0B       		.uleb128 0xb
 2919 0089 3B       		.uleb128 0x3b
 2920 008a 05       		.uleb128 0x5
 2921 008b 01       		.uleb128 0x1
 2922 008c 13       		.uleb128 0x13
 2923 008d 00       		.byte	0
 2924 008e 00       		.byte	0
 2925 008f 0C       		.uleb128 0xc
 2926 0090 0D       		.uleb128 0xd
 2927 0091 00       		.byte	0
 2928 0092 03       		.uleb128 0x3
 2929 0093 08       		.uleb128 0x8
 2930 0094 3A       		.uleb128 0x3a
 2931 0095 0B       		.uleb128 0xb
 2932 0096 3B       		.uleb128 0x3b
 2933 0097 05       		.uleb128 0x5
 2934 0098 49       		.uleb128 0x49
 2935 0099 13       		.uleb128 0x13
 2936 009a 38       		.uleb128 0x38
 2937 009b 0B       		.uleb128 0xb
 2938 009c 00       		.byte	0
 2939 009d 00       		.byte	0
 2940 009e 0D       		.uleb128 0xd
 2941 009f 35       		.uleb128 0x35
 2942 00a0 00       		.byte	0
 2943 00a1 49       		.uleb128 0x49
 2944 00a2 13       		.uleb128 0x13
 2945 00a3 00       		.byte	0
 2946 00a4 00       		.byte	0
 2947 00a5 0E       		.uleb128 0xe
 2948 00a6 17       		.uleb128 0x17
 2949 00a7 01       		.byte	0x1
 2950 00a8 0B       		.uleb128 0xb
 2951 00a9 0B       		.uleb128 0xb
 2952 00aa 3A       		.uleb128 0x3a
 2953 00ab 0B       		.uleb128 0xb
 2954 00ac 3B       		.uleb128 0x3b
 2955 00ad 0B       		.uleb128 0xb
 2956 00ae 01       		.uleb128 0x1
 2957 00af 13       		.uleb128 0x13
 2958 00b0 00       		.byte	0
 2959 00b1 00       		.byte	0
 2960 00b2 0F       		.uleb128 0xf
 2961 00b3 0D       		.uleb128 0xd
ARM GAS  /tmp/ccc6RK6s.s 			page 53


 2962 00b4 00       		.byte	0
 2963 00b5 03       		.uleb128 0x3
 2964 00b6 0E       		.uleb128 0xe
 2965 00b7 3A       		.uleb128 0x3a
 2966 00b8 0B       		.uleb128 0xb
 2967 00b9 3B       		.uleb128 0x3b
 2968 00ba 0B       		.uleb128 0xb
 2969 00bb 49       		.uleb128 0x49
 2970 00bc 13       		.uleb128 0x13
 2971 00bd 00       		.byte	0
 2972 00be 00       		.byte	0
 2973 00bf 10       		.uleb128 0x10
 2974 00c0 26       		.uleb128 0x26
 2975 00c1 00       		.byte	0
 2976 00c2 49       		.uleb128 0x49
 2977 00c3 13       		.uleb128 0x13
 2978 00c4 00       		.byte	0
 2979 00c5 00       		.byte	0
 2980 00c6 11       		.uleb128 0x11
 2981 00c7 15       		.uleb128 0x15
 2982 00c8 01       		.byte	0x1
 2983 00c9 27       		.uleb128 0x27
 2984 00ca 19       		.uleb128 0x19
 2985 00cb 01       		.uleb128 0x1
 2986 00cc 13       		.uleb128 0x13
 2987 00cd 00       		.byte	0
 2988 00ce 00       		.byte	0
 2989 00cf 12       		.uleb128 0x12
 2990 00d0 05       		.uleb128 0x5
 2991 00d1 00       		.byte	0
 2992 00d2 49       		.uleb128 0x49
 2993 00d3 13       		.uleb128 0x13
 2994 00d4 00       		.byte	0
 2995 00d5 00       		.byte	0
 2996 00d6 13       		.uleb128 0x13
 2997 00d7 01       		.uleb128 0x1
 2998 00d8 01       		.byte	0x1
 2999 00d9 49       		.uleb128 0x49
 3000 00da 13       		.uleb128 0x13
 3001 00db 01       		.uleb128 0x1
 3002 00dc 13       		.uleb128 0x13
 3003 00dd 00       		.byte	0
 3004 00de 00       		.byte	0
 3005 00df 14       		.uleb128 0x14
 3006 00e0 21       		.uleb128 0x21
 3007 00e1 00       		.byte	0
 3008 00e2 49       		.uleb128 0x49
 3009 00e3 13       		.uleb128 0x13
 3010 00e4 2F       		.uleb128 0x2f
 3011 00e5 0B       		.uleb128 0xb
 3012 00e6 00       		.byte	0
 3013 00e7 00       		.byte	0
 3014 00e8 15       		.uleb128 0x15
 3015 00e9 0D       		.uleb128 0xd
 3016 00ea 00       		.byte	0
 3017 00eb 03       		.uleb128 0x3
 3018 00ec 08       		.uleb128 0x8
ARM GAS  /tmp/ccc6RK6s.s 			page 54


 3019 00ed 3A       		.uleb128 0x3a
 3020 00ee 0B       		.uleb128 0xb
 3021 00ef 3B       		.uleb128 0x3b
 3022 00f0 0B       		.uleb128 0xb
 3023 00f1 49       		.uleb128 0x49
 3024 00f2 13       		.uleb128 0x13
 3025 00f3 00       		.byte	0
 3026 00f4 00       		.byte	0
 3027 00f5 16       		.uleb128 0x16
 3028 00f6 04       		.uleb128 0x4
 3029 00f7 01       		.byte	0x1
 3030 00f8 0B       		.uleb128 0xb
 3031 00f9 0B       		.uleb128 0xb
 3032 00fa 3A       		.uleb128 0x3a
 3033 00fb 0B       		.uleb128 0xb
 3034 00fc 3B       		.uleb128 0x3b
 3035 00fd 0B       		.uleb128 0xb
 3036 00fe 01       		.uleb128 0x1
 3037 00ff 13       		.uleb128 0x13
 3038 0100 00       		.byte	0
 3039 0101 00       		.byte	0
 3040 0102 17       		.uleb128 0x17
 3041 0103 28       		.uleb128 0x28
 3042 0104 00       		.byte	0
 3043 0105 03       		.uleb128 0x3
 3044 0106 0E       		.uleb128 0xe
 3045 0107 1C       		.uleb128 0x1c
 3046 0108 0D       		.uleb128 0xd
 3047 0109 00       		.byte	0
 3048 010a 00       		.byte	0
 3049 010b 18       		.uleb128 0x18
 3050 010c 0D       		.uleb128 0xd
 3051 010d 00       		.byte	0
 3052 010e 03       		.uleb128 0x3
 3053 010f 0E       		.uleb128 0xe
 3054 0110 3A       		.uleb128 0x3a
 3055 0111 0B       		.uleb128 0xb
 3056 0112 3B       		.uleb128 0x3b
 3057 0113 05       		.uleb128 0x5
 3058 0114 49       		.uleb128 0x49
 3059 0115 13       		.uleb128 0x13
 3060 0116 38       		.uleb128 0x38
 3061 0117 0B       		.uleb128 0xb
 3062 0118 00       		.byte	0
 3063 0119 00       		.byte	0
 3064 011a 19       		.uleb128 0x19
 3065 011b 13       		.uleb128 0x13
 3066 011c 01       		.byte	0x1
 3067 011d 0B       		.uleb128 0xb
 3068 011e 0B       		.uleb128 0xb
 3069 011f 3A       		.uleb128 0x3a
 3070 0120 0B       		.uleb128 0xb
 3071 0121 3B       		.uleb128 0x3b
 3072 0122 05       		.uleb128 0x5
 3073 0123 01       		.uleb128 0x1
 3074 0124 13       		.uleb128 0x13
 3075 0125 00       		.byte	0
ARM GAS  /tmp/ccc6RK6s.s 			page 55


 3076 0126 00       		.byte	0
 3077 0127 1A       		.uleb128 0x1a
 3078 0128 16       		.uleb128 0x16
 3079 0129 00       		.byte	0
 3080 012a 03       		.uleb128 0x3
 3081 012b 0E       		.uleb128 0xe
 3082 012c 3A       		.uleb128 0x3a
 3083 012d 0B       		.uleb128 0xb
 3084 012e 3B       		.uleb128 0x3b
 3085 012f 05       		.uleb128 0x5
 3086 0130 49       		.uleb128 0x49
 3087 0131 13       		.uleb128 0x13
 3088 0132 00       		.byte	0
 3089 0133 00       		.byte	0
 3090 0134 1B       		.uleb128 0x1b
 3091 0135 13       		.uleb128 0x13
 3092 0136 01       		.byte	0x1
 3093 0137 03       		.uleb128 0x3
 3094 0138 0E       		.uleb128 0xe
 3095 0139 0B       		.uleb128 0xb
 3096 013a 05       		.uleb128 0x5
 3097 013b 3A       		.uleb128 0x3a
 3098 013c 0B       		.uleb128 0xb
 3099 013d 3B       		.uleb128 0x3b
 3100 013e 05       		.uleb128 0x5
 3101 013f 01       		.uleb128 0x1
 3102 0140 13       		.uleb128 0x13
 3103 0141 00       		.byte	0
 3104 0142 00       		.byte	0
 3105 0143 1C       		.uleb128 0x1c
 3106 0144 04       		.uleb128 0x4
 3107 0145 01       		.byte	0x1
 3108 0146 0B       		.uleb128 0xb
 3109 0147 0B       		.uleb128 0xb
 3110 0148 3A       		.uleb128 0x3a
 3111 0149 0B       		.uleb128 0xb
 3112 014a 3B       		.uleb128 0x3b
 3113 014b 05       		.uleb128 0x5
 3114 014c 01       		.uleb128 0x1
 3115 014d 13       		.uleb128 0x13
 3116 014e 00       		.byte	0
 3117 014f 00       		.byte	0
 3118 0150 1D       		.uleb128 0x1d
 3119 0151 15       		.uleb128 0x15
 3120 0152 01       		.byte	0x1
 3121 0153 27       		.uleb128 0x27
 3122 0154 19       		.uleb128 0x19
 3123 0155 49       		.uleb128 0x49
 3124 0156 13       		.uleb128 0x13
 3125 0157 01       		.uleb128 0x1
 3126 0158 13       		.uleb128 0x13
 3127 0159 00       		.byte	0
 3128 015a 00       		.byte	0
 3129 015b 1E       		.uleb128 0x1e
 3130 015c 13       		.uleb128 0x13
 3131 015d 01       		.byte	0x1
 3132 015e 0B       		.uleb128 0xb
ARM GAS  /tmp/ccc6RK6s.s 			page 56


 3133 015f 06       		.uleb128 0x6
 3134 0160 3A       		.uleb128 0x3a
 3135 0161 0B       		.uleb128 0xb
 3136 0162 3B       		.uleb128 0x3b
 3137 0163 0B       		.uleb128 0xb
 3138 0164 01       		.uleb128 0x1
 3139 0165 13       		.uleb128 0x13
 3140 0166 00       		.byte	0
 3141 0167 00       		.byte	0
 3142 0168 1F       		.uleb128 0x1f
 3143 0169 0D       		.uleb128 0xd
 3144 016a 00       		.byte	0
 3145 016b 03       		.uleb128 0x3
 3146 016c 0E       		.uleb128 0xe
 3147 016d 3A       		.uleb128 0x3a
 3148 016e 0B       		.uleb128 0xb
 3149 016f 3B       		.uleb128 0x3b
 3150 0170 0B       		.uleb128 0xb
 3151 0171 49       		.uleb128 0x49
 3152 0172 13       		.uleb128 0x13
 3153 0173 38       		.uleb128 0x38
 3154 0174 05       		.uleb128 0x5
 3155 0175 00       		.byte	0
 3156 0176 00       		.byte	0
 3157 0177 20       		.uleb128 0x20
 3158 0178 0D       		.uleb128 0xd
 3159 0179 00       		.byte	0
 3160 017a 03       		.uleb128 0x3
 3161 017b 08       		.uleb128 0x8
 3162 017c 3A       		.uleb128 0x3a
 3163 017d 0B       		.uleb128 0xb
 3164 017e 3B       		.uleb128 0x3b
 3165 017f 0B       		.uleb128 0xb
 3166 0180 49       		.uleb128 0x49
 3167 0181 13       		.uleb128 0x13
 3168 0182 38       		.uleb128 0x38
 3169 0183 05       		.uleb128 0x5
 3170 0184 00       		.byte	0
 3171 0185 00       		.byte	0
 3172 0186 21       		.uleb128 0x21
 3173 0187 21       		.uleb128 0x21
 3174 0188 00       		.byte	0
 3175 0189 49       		.uleb128 0x49
 3176 018a 13       		.uleb128 0x13
 3177 018b 2F       		.uleb128 0x2f
 3178 018c 05       		.uleb128 0x5
 3179 018d 00       		.byte	0
 3180 018e 00       		.byte	0
 3181 018f 22       		.uleb128 0x22
 3182 0190 0D       		.uleb128 0xd
 3183 0191 00       		.byte	0
 3184 0192 03       		.uleb128 0x3
 3185 0193 0E       		.uleb128 0xe
 3186 0194 3A       		.uleb128 0x3a
 3187 0195 0B       		.uleb128 0xb
 3188 0196 3B       		.uleb128 0x3b
 3189 0197 05       		.uleb128 0x5
ARM GAS  /tmp/ccc6RK6s.s 			page 57


 3190 0198 49       		.uleb128 0x49
 3191 0199 13       		.uleb128 0x13
 3192 019a 00       		.byte	0
 3193 019b 00       		.byte	0
 3194 019c 23       		.uleb128 0x23
 3195 019d 2E       		.uleb128 0x2e
 3196 019e 01       		.byte	0x1
 3197 019f 03       		.uleb128 0x3
 3198 01a0 0E       		.uleb128 0xe
 3199 01a1 3A       		.uleb128 0x3a
 3200 01a2 0B       		.uleb128 0xb
 3201 01a3 3B       		.uleb128 0x3b
 3202 01a4 0B       		.uleb128 0xb
 3203 01a5 27       		.uleb128 0x27
 3204 01a6 19       		.uleb128 0x19
 3205 01a7 11       		.uleb128 0x11
 3206 01a8 01       		.uleb128 0x1
 3207 01a9 12       		.uleb128 0x12
 3208 01aa 06       		.uleb128 0x6
 3209 01ab 40       		.uleb128 0x40
 3210 01ac 18       		.uleb128 0x18
 3211 01ad 9742     		.uleb128 0x2117
 3212 01af 19       		.uleb128 0x19
 3213 01b0 01       		.uleb128 0x1
 3214 01b1 13       		.uleb128 0x13
 3215 01b2 00       		.byte	0
 3216 01b3 00       		.byte	0
 3217 01b4 24       		.uleb128 0x24
 3218 01b5 05       		.uleb128 0x5
 3219 01b6 00       		.byte	0
 3220 01b7 03       		.uleb128 0x3
 3221 01b8 0E       		.uleb128 0xe
 3222 01b9 3A       		.uleb128 0x3a
 3223 01ba 0B       		.uleb128 0xb
 3224 01bb 3B       		.uleb128 0x3b
 3225 01bc 0B       		.uleb128 0xb
 3226 01bd 49       		.uleb128 0x49
 3227 01be 13       		.uleb128 0x13
 3228 01bf 02       		.uleb128 0x2
 3229 01c0 18       		.uleb128 0x18
 3230 01c1 00       		.byte	0
 3231 01c2 00       		.byte	0
 3232 01c3 25       		.uleb128 0x25
 3233 01c4 2E       		.uleb128 0x2e
 3234 01c5 01       		.byte	0x1
 3235 01c6 3F       		.uleb128 0x3f
 3236 01c7 19       		.uleb128 0x19
 3237 01c8 03       		.uleb128 0x3
 3238 01c9 0E       		.uleb128 0xe
 3239 01ca 3A       		.uleb128 0x3a
 3240 01cb 0B       		.uleb128 0xb
 3241 01cc 3B       		.uleb128 0x3b
 3242 01cd 0B       		.uleb128 0xb
 3243 01ce 27       		.uleb128 0x27
 3244 01cf 19       		.uleb128 0x19
 3245 01d0 49       		.uleb128 0x49
 3246 01d1 13       		.uleb128 0x13
ARM GAS  /tmp/ccc6RK6s.s 			page 58


 3247 01d2 11       		.uleb128 0x11
 3248 01d3 01       		.uleb128 0x1
 3249 01d4 12       		.uleb128 0x12
 3250 01d5 06       		.uleb128 0x6
 3251 01d6 40       		.uleb128 0x40
 3252 01d7 18       		.uleb128 0x18
 3253 01d8 9742     		.uleb128 0x2117
 3254 01da 19       		.uleb128 0x19
 3255 01db 01       		.uleb128 0x1
 3256 01dc 13       		.uleb128 0x13
 3257 01dd 00       		.byte	0
 3258 01de 00       		.byte	0
 3259 01df 26       		.uleb128 0x26
 3260 01e0 898201   		.uleb128 0x4109
 3261 01e3 00       		.byte	0
 3262 01e4 11       		.uleb128 0x11
 3263 01e5 01       		.uleb128 0x1
 3264 01e6 31       		.uleb128 0x31
 3265 01e7 13       		.uleb128 0x13
 3266 01e8 00       		.byte	0
 3267 01e9 00       		.byte	0
 3268 01ea 27       		.uleb128 0x27
 3269 01eb 898201   		.uleb128 0x4109
 3270 01ee 01       		.byte	0x1
 3271 01ef 11       		.uleb128 0x11
 3272 01f0 01       		.uleb128 0x1
 3273 01f1 31       		.uleb128 0x31
 3274 01f2 13       		.uleb128 0x13
 3275 01f3 01       		.uleb128 0x1
 3276 01f4 13       		.uleb128 0x13
 3277 01f5 00       		.byte	0
 3278 01f6 00       		.byte	0
 3279 01f7 28       		.uleb128 0x28
 3280 01f8 8A8201   		.uleb128 0x410a
 3281 01fb 00       		.byte	0
 3282 01fc 02       		.uleb128 0x2
 3283 01fd 18       		.uleb128 0x18
 3284 01fe 9142     		.uleb128 0x2111
 3285 0200 18       		.uleb128 0x18
 3286 0201 00       		.byte	0
 3287 0202 00       		.byte	0
 3288 0203 29       		.uleb128 0x29
 3289 0204 898201   		.uleb128 0x4109
 3290 0207 01       		.byte	0x1
 3291 0208 11       		.uleb128 0x11
 3292 0209 01       		.uleb128 0x1
 3293 020a 31       		.uleb128 0x31
 3294 020b 13       		.uleb128 0x13
 3295 020c 00       		.byte	0
 3296 020d 00       		.byte	0
 3297 020e 2A       		.uleb128 0x2a
 3298 020f 34       		.uleb128 0x34
 3299 0210 00       		.byte	0
 3300 0211 03       		.uleb128 0x3
 3301 0212 0E       		.uleb128 0xe
 3302 0213 3A       		.uleb128 0x3a
 3303 0214 0B       		.uleb128 0xb
ARM GAS  /tmp/ccc6RK6s.s 			page 59


 3304 0215 3B       		.uleb128 0x3b
 3305 0216 0B       		.uleb128 0xb
 3306 0217 49       		.uleb128 0x49
 3307 0218 13       		.uleb128 0x13
 3308 0219 1C       		.uleb128 0x1c
 3309 021a 0B       		.uleb128 0xb
 3310 021b 00       		.byte	0
 3311 021c 00       		.byte	0
 3312 021d 2B       		.uleb128 0x2b
 3313 021e 34       		.uleb128 0x34
 3314 021f 00       		.byte	0
 3315 0220 03       		.uleb128 0x3
 3316 0221 0E       		.uleb128 0xe
 3317 0222 3A       		.uleb128 0x3a
 3318 0223 0B       		.uleb128 0xb
 3319 0224 3B       		.uleb128 0x3b
 3320 0225 05       		.uleb128 0x5
 3321 0226 49       		.uleb128 0x49
 3322 0227 13       		.uleb128 0x13
 3323 0228 3F       		.uleb128 0x3f
 3324 0229 19       		.uleb128 0x19
 3325 022a 3C       		.uleb128 0x3c
 3326 022b 19       		.uleb128 0x19
 3327 022c 00       		.byte	0
 3328 022d 00       		.byte	0
 3329 022e 2C       		.uleb128 0x2c
 3330 022f 34       		.uleb128 0x34
 3331 0230 00       		.byte	0
 3332 0231 03       		.uleb128 0x3
 3333 0232 0E       		.uleb128 0xe
 3334 0233 3A       		.uleb128 0x3a
 3335 0234 0B       		.uleb128 0xb
 3336 0235 3B       		.uleb128 0x3b
 3337 0236 0B       		.uleb128 0xb
 3338 0237 49       		.uleb128 0x49
 3339 0238 13       		.uleb128 0x13
 3340 0239 3F       		.uleb128 0x3f
 3341 023a 19       		.uleb128 0x19
 3342 023b 02       		.uleb128 0x2
 3343 023c 18       		.uleb128 0x18
 3344 023d 00       		.byte	0
 3345 023e 00       		.byte	0
 3346 023f 2D       		.uleb128 0x2d
 3347 0240 2E       		.uleb128 0x2e
 3348 0241 00       		.byte	0
 3349 0242 3F       		.uleb128 0x3f
 3350 0243 19       		.uleb128 0x19
 3351 0244 03       		.uleb128 0x3
 3352 0245 0E       		.uleb128 0xe
 3353 0246 3A       		.uleb128 0x3a
 3354 0247 0B       		.uleb128 0xb
 3355 0248 3B       		.uleb128 0x3b
 3356 0249 0B       		.uleb128 0xb
 3357 024a 27       		.uleb128 0x27
 3358 024b 19       		.uleb128 0x19
 3359 024c 3C       		.uleb128 0x3c
 3360 024d 19       		.uleb128 0x19
ARM GAS  /tmp/ccc6RK6s.s 			page 60


 3361 024e 00       		.byte	0
 3362 024f 00       		.byte	0
 3363 0250 2E       		.uleb128 0x2e
 3364 0251 2E       		.uleb128 0x2e
 3365 0252 01       		.byte	0x1
 3366 0253 3F       		.uleb128 0x3f
 3367 0254 19       		.uleb128 0x19
 3368 0255 03       		.uleb128 0x3
 3369 0256 0E       		.uleb128 0xe
 3370 0257 3A       		.uleb128 0x3a
 3371 0258 0B       		.uleb128 0xb
 3372 0259 3B       		.uleb128 0x3b
 3373 025a 05       		.uleb128 0x5
 3374 025b 27       		.uleb128 0x27
 3375 025c 19       		.uleb128 0x19
 3376 025d 3C       		.uleb128 0x3c
 3377 025e 19       		.uleb128 0x19
 3378 025f 01       		.uleb128 0x1
 3379 0260 13       		.uleb128 0x13
 3380 0261 00       		.byte	0
 3381 0262 00       		.byte	0
 3382 0263 2F       		.uleb128 0x2f
 3383 0264 2E       		.uleb128 0x2e
 3384 0265 01       		.byte	0x1
 3385 0266 3F       		.uleb128 0x3f
 3386 0267 19       		.uleb128 0x19
 3387 0268 03       		.uleb128 0x3
 3388 0269 0E       		.uleb128 0xe
 3389 026a 3A       		.uleb128 0x3a
 3390 026b 0B       		.uleb128 0xb
 3391 026c 3B       		.uleb128 0x3b
 3392 026d 0B       		.uleb128 0xb
 3393 026e 27       		.uleb128 0x27
 3394 026f 19       		.uleb128 0x19
 3395 0270 3C       		.uleb128 0x3c
 3396 0271 19       		.uleb128 0x19
 3397 0272 01       		.uleb128 0x1
 3398 0273 13       		.uleb128 0x13
 3399 0274 00       		.byte	0
 3400 0275 00       		.byte	0
 3401 0276 30       		.uleb128 0x30
 3402 0277 2E       		.uleb128 0x2e
 3403 0278 01       		.byte	0x1
 3404 0279 3F       		.uleb128 0x3f
 3405 027a 19       		.uleb128 0x19
 3406 027b 03       		.uleb128 0x3
 3407 027c 0E       		.uleb128 0xe
 3408 027d 3A       		.uleb128 0x3a
 3409 027e 0B       		.uleb128 0xb
 3410 027f 3B       		.uleb128 0x3b
 3411 0280 0B       		.uleb128 0xb
 3412 0281 27       		.uleb128 0x27
 3413 0282 19       		.uleb128 0x19
 3414 0283 3C       		.uleb128 0x3c
 3415 0284 19       		.uleb128 0x19
 3416 0285 00       		.byte	0
 3417 0286 00       		.byte	0
ARM GAS  /tmp/ccc6RK6s.s 			page 61


 3418 0287 00       		.byte	0
 3419              		.section	.debug_aranges,"",%progbits
 3420 0000 24000000 		.4byte	0x24
 3421 0004 0200     		.2byte	0x2
 3422 0006 00000000 		.4byte	.Ldebug_info0
 3423 000a 04       		.byte	0x4
 3424 000b 00       		.byte	0
 3425 000c 0000     		.2byte	0
 3426 000e 0000     		.2byte	0
 3427 0010 00000000 		.4byte	.LFB118
 3428 0014 02000000 		.4byte	.LFE118-.LFB118
 3429 0018 00000000 		.4byte	.LFB122
 3430 001c 8C000000 		.4byte	.LFE122-.LFB122
 3431 0020 00000000 		.4byte	0
 3432 0024 00000000 		.4byte	0
 3433              		.section	.debug_ranges,"",%progbits
 3434              	.Ldebug_ranges0:
 3435 0000 00000000 		.4byte	.LFB118
 3436 0004 02000000 		.4byte	.LFE118
 3437 0008 00000000 		.4byte	.LFB122
 3438 000c 8C000000 		.4byte	.LFE122
 3439 0010 00000000 		.4byte	0
 3440 0014 00000000 		.4byte	0
 3441              		.section	.debug_line,"",%progbits
 3442              	.Ldebug_line0:
 3443 0000 17050000 		.section	.debug_str,"MS",%progbits,1
 3443      0200D504 
 3443      00000201 
 3443      FB0E0D00 
 3443      01010101 
 3444              	.LASF252:
 3445 0000 71756575 		.ascii	"queue\000"
 3445      6500
 3446              	.LASF2:
 3447 0006 73697A65 		.ascii	"size_t\000"
 3447      5F7400
 3448              	.LASF56:
 3449 000d 73697A65 		.ascii	"sizetype\000"
 3449      74797065 
 3449      00
 3450              	.LASF29:
 3451 0016 73797374 		.ascii	"systime_t\000"
 3451      696D655F 
 3451      7400
 3452              	.LASF34:
 3453 0020 705F6374 		.ascii	"p_ctx\000"
 3453      7800
 3454              	.LASF26:
 3455 0026 74707269 		.ascii	"tprio_t\000"
 3455      6F5F7400 
 3456              	.LASF44:
 3457 002e 705F6D73 		.ascii	"p_msgqueue\000"
 3457      67717565 
 3457      756500
 3458              	.LASF245:
 3459 0039 72785F66 		.ascii	"rx_fifo_size\000"
 3459      69666F5F 
ARM GAS  /tmp/ccc6RK6s.s 			page 62


 3459      73697A65 
 3459      00
 3460              	.LASF17:
 3461 0046 696E7433 		.ascii	"int32_t\000"
 3461      325F7400 
 3462              	.LASF180:
 3463 004e 72657376 		.ascii	"resvd4\000"
 3463      643400
 3464              	.LASF171:
 3465 0055 72657376 		.ascii	"resvd8\000"
 3465      643800
 3466              	.LASF292:
 3467 005c 2F686F6D 		.ascii	"/home/marco/SoftwareProjects/st-usb/f9xx/firmware/M"
 3467      652F6D61 
 3467      72636F2F 
 3467      536F6674 
 3467      77617265 
 3468 008f 6F6F6F64 		.ascii	"ooodUSB/\000"
 3468      5553422F 
 3468      00
 3469              	.LASF182:
 3470 0098 72657376 		.ascii	"resvdC\000"
 3470      644300
 3471              	.LASF148:
 3472 009f 5553425F 		.ascii	"USB_EP0_TX\000"
 3472      4550305F 
 3472      545800
 3473              	.LASF220:
 3474 00aa 72657376 		.ascii	"resvd700\000"
 3474      64373030 
 3474      00
 3475              	.LASF97:
 3476 00b3 636F6E66 		.ascii	"config\000"
 3476      696700
 3477              	.LASF96:
 3478 00ba 73746174 		.ascii	"state\000"
 3478      6500
 3479              	.LASF264:
 3480 00c0 65705F6D 		.ascii	"ep_mode\000"
 3480      6F646500 
 3481              	.LASF116:
 3482 00c8 50574D43 		.ascii	"PWMChannelConfig\000"
 3482      68616E6E 
 3482      656C436F 
 3482      6E666967 
 3482      00
 3483              	.LASF145:
 3484 00d9 5553425F 		.ascii	"USB_ACTIVE\000"
 3484      41435449 
 3484      564500
 3485              	.LASF107:
 3486 00e4 444D4152 		.ascii	"DMAR\000"
 3486      00
 3487              	.LASF119:
 3488 00e9 64696572 		.ascii	"dier\000"
 3488      00
 3489              	.LASF91:
ARM GAS  /tmp/ccc6RK6s.s 			page 63


 3490 00ee 50574D5F 		.ascii	"PWM_UNINIT\000"
 3490      554E494E 
 3490      495400
 3491              	.LASF115:
 3492 00f9 63616C6C 		.ascii	"callback\000"
 3492      6261636B 
 3492      00
 3493              	.LASF89:
 3494 0102 696F6D6F 		.ascii	"iomode_t\000"
 3494      64655F74 
 3494      00
 3495              	.LASF289:
 3496 010b 5F70616C 		.ascii	"_pal_lld_setgroupmode\000"
 3496      5F6C6C64 
 3496      5F736574 
 3496      67726F75 
 3496      706D6F64 
 3497              	.LASF59:
 3498 0121 6D5F6F77 		.ascii	"m_owner\000"
 3498      6E657200 
 3499              	.LASF62:
 3500 0129 65786974 		.ascii	"exitcode\000"
 3500      636F6465 
 3500      00
 3501              	.LASF109:
 3502 0132 43435235 		.ascii	"CCR5\000"
 3502      00
 3503              	.LASF154:
 3504 0137 75736265 		.ascii	"usbep0state_t\000"
 3504      70307374 
 3504      6174655F 
 3504      7400
 3505              	.LASF3:
 3506 0145 5F5F7569 		.ascii	"__uint8_t\000"
 3506      6E74385F 
 3506      7400
 3507              	.LASF70:
 3508 014f 715F746F 		.ascii	"q_top\000"
 3508      7000
 3509              	.LASF64:
 3510 0155 65776D61 		.ascii	"ewmask\000"
 3510      736B00
 3511              	.LASF82:
 3512 015c 50555044 		.ascii	"PUPDR\000"
 3512      5200
 3513              	.LASF69:
 3514 0162 715F6275 		.ascii	"q_buffer\000"
 3514      66666572 
 3514      00
 3515              	.LASF156:
 3516 016b 5553425F 		.ascii	"USB_EVENT_ADDRESS\000"
 3516      4556454E 
 3516      545F4144 
 3516      44524553 
 3516      5300
 3517              	.LASF201:
 3518 017d 44494550 		.ascii	"DIEPTXF0\000"
ARM GAS  /tmp/ccc6RK6s.s 			page 64


 3518      54584630 
 3518      00
 3519              	.LASF73:
 3520 0186 715F6E6F 		.ascii	"q_notify\000"
 3520      74696679 
 3520      00
 3521              	.LASF35:
 3522 018f 705F6E65 		.ascii	"p_newer\000"
 3522      77657200 
 3523              	.LASF9:
 3524 0197 6C6F6E67 		.ascii	"long int\000"
 3524      20696E74 
 3524      00
 3525              	.LASF31:
 3526 01a0 705F6E65 		.ascii	"p_next\000"
 3526      787400
 3527              	.LASF72:
 3528 01a7 715F7264 		.ascii	"q_rdptr\000"
 3528      70747200 
 3529              	.LASF255:
 3530 01af 7478636E 		.ascii	"txcnt\000"
 3530      7400
 3531              	.LASF32:
 3532 01b5 705F7072 		.ascii	"p_prev\000"
 3532      657600
 3533              	.LASF90:
 3534 01bc 696F706F 		.ascii	"ioportid_t\000"
 3534      72746964 
 3534      5F7400
 3535              	.LASF23:
 3536 01c7 74737461 		.ascii	"tstate_t\000"
 3536      74655F74 
 3536      00
 3537              	.LASF295:
 3538 01d0 6D61696E 		.ascii	"main\000"
 3538      00
 3539              	.LASF269:
 3540 01d5 6F75745F 		.ascii	"out_maxsize\000"
 3540      6D617873 
 3540      697A6500 
 3541              	.LASF47:
 3542 01e1 705F6D74 		.ascii	"p_mtxlist\000"
 3542      786C6973 
 3542      7400
 3543              	.LASF138:
 3544 01eb 7468645F 		.ascii	"thd_wait\000"
 3544      77616974 
 3544      00
 3545              	.LASF249:
 3546 01f4 74786275 		.ascii	"txbuf\000"
 3546      6600
 3547              	.LASF52:
 3548 01fa 72656761 		.ascii	"regarm_t\000"
 3548      726D5F74 
 3548      00
 3549              	.LASF227:
 3550 0203 4441494E 		.ascii	"DAINT\000"
ARM GAS  /tmp/ccc6RK6s.s 			page 65


 3550      5400
 3551              	.LASF147:
 3552 0209 5553425F 		.ascii	"USB_EP0_WAITING_SETUP\000"
 3552      4550305F 
 3552      57414954 
 3552      494E475F 
 3552      53455455 
 3553              	.LASF226:
 3554 021f 444F4550 		.ascii	"DOEPMSK\000"
 3554      4D534B00 
 3555              	.LASF288:
 3556 0227 70776D53 		.ascii	"pwmStart\000"
 3556      74617274 
 3556      00
 3557              	.LASF187:
 3558 0230 444F4550 		.ascii	"DOEPCTL\000"
 3558      43544C00 
 3559              	.LASF1:
 3560 0238 7369676E 		.ascii	"signed char\000"
 3560      65642063 
 3560      68617200 
 3561              	.LASF41:
 3562 0244 705F7072 		.ascii	"p_preempt\000"
 3562      65656D70 
 3562      7400
 3563              	.LASF15:
 3564 024e 75696E74 		.ascii	"uint8_t\000"
 3564      385F7400 
 3565              	.LASF160:
 3566 0256 5553425F 		.ascii	"USB_EVENT_STALLED\000"
 3566      4556454E 
 3566      545F5354 
 3566      414C4C45 
 3566      4400
 3567              	.LASF188:
 3568 0268 444F4550 		.ascii	"DOEPINT\000"
 3568      494E5400 
 3569              	.LASF28:
 3570 0270 6576656E 		.ascii	"eventmask_t\000"
 3570      746D6173 
 3570      6B5F7400 
 3571              	.LASF55:
 3572 027c 636F6E74 		.ascii	"context\000"
 3572      65787400 
 3573              	.LASF261:
 3574 0284 72787369 		.ascii	"rxsize\000"
 3574      7A6500
 3575              	.LASF113:
 3576 028b 70776D63 		.ascii	"pwmcnt_t\000"
 3576      6E745F74 
 3576      00
 3577              	.LASF4:
 3578 0294 756E7369 		.ascii	"unsigned char\000"
 3578      676E6564 
 3578      20636861 
 3578      7200
 3579              	.LASF153:
ARM GAS  /tmp/ccc6RK6s.s 			page 66


 3580 02a2 5553425F 		.ascii	"USB_EP0_ERROR\000"
 3580      4550305F 
 3580      4552524F 
 3580      5200
 3581              	.LASF74:
 3582 02b0 715F6C69 		.ascii	"q_link\000"
 3582      6E6B00
 3583              	.LASF221:
 3584 02b7 44434647 		.ascii	"DCFG\000"
 3584      00
 3585              	.LASF205:
 3586 02bc 47434346 		.ascii	"GCCFG\000"
 3586      4700
 3587              	.LASF126:
 3588 02c2 65703073 		.ascii	"ep0state\000"
 3588      74617465 
 3588      00
 3589              	.LASF294:
 3590 02cb 70776D70 		.ascii	"pwmp\000"
 3590      00
 3591              	.LASF183:
 3592 02d0 44494550 		.ascii	"DIEPTSIZ\000"
 3592      5453495A 
 3592      00
 3593              	.LASF277:
 3594 02d9 72657175 		.ascii	"requests_hook_cb\000"
 3594      65737473 
 3594      5F686F6F 
 3594      6B5F6362 
 3594      00
 3595              	.LASF21:
 3596 02ea 5F426F6F 		.ascii	"_Bool\000"
 3596      6C00
 3597              	.LASF210:
 3598 02f0 48434647 		.ascii	"HCFG\000"
 3598      00
 3599              	.LASF170:
 3600 02f5 48434348 		.ascii	"HCCHAR\000"
 3600      415200
 3601              	.LASF103:
 3602 02fc 43434D52 		.ascii	"CCMR1\000"
 3602      3100
 3603              	.LASF104:
 3604 0302 43434D52 		.ascii	"CCMR2\000"
 3604      3200
 3605              	.LASF108:
 3606 0308 43434D52 		.ascii	"CCMR3\000"
 3606      3300
 3607              	.LASF190:
 3608 030e 73746D33 		.ascii	"stm32_otg_out_ep_t\000"
 3608      325F6F74 
 3608      675F6F75 
 3608      745F6570 
 3608      5F7400
 3609              	.LASF65:
 3610 0321 63686172 		.ascii	"char\000"
 3610      00
ARM GAS  /tmp/ccc6RK6s.s 			page 67


 3611              	.LASF179:
 3612 0326 44494550 		.ascii	"DIEPCTL\000"
 3612      43544C00 
 3613              	.LASF128:
 3614 032e 6570306E 		.ascii	"ep0n\000"
 3614      00
 3615              	.LASF224:
 3616 0333 72657376 		.ascii	"resvd80C\000"
 3616      64383043 
 3616      00
 3617              	.LASF291:
 3618 033c 6170702F 		.ascii	"app/main.c\000"
 3618      6D61696E 
 3618      2E6300
 3619              	.LASF218:
 3620 0347 48505254 		.ascii	"HPRT\000"
 3620      00
 3621              	.LASF33:
 3622 034c 705F7072 		.ascii	"p_prio\000"
 3622      696F00
 3623              	.LASF123:
 3624 0353 72656365 		.ascii	"receiving\000"
 3624      6976696E 
 3624      6700
 3625              	.LASF6:
 3626 035d 5F5F7569 		.ascii	"__uint16_t\000"
 3626      6E743136 
 3626      5F7400
 3627              	.LASF66:
 3628 0368 47656E65 		.ascii	"GenericQueue\000"
 3628      72696351 
 3628      75657565 
 3628      00
 3629              	.LASF63:
 3630 0375 77746F62 		.ascii	"wtobjp\000"
 3630      6A7000
 3631              	.LASF265:
 3632 037c 73657475 		.ascii	"setup_cb\000"
 3632      705F6362 
 3632      00
 3633              	.LASF163:
 3634 0385 75645F73 		.ascii	"ud_string\000"
 3634      7472696E 
 3634      6700
 3635              	.LASF266:
 3636 038f 696E5F63 		.ascii	"in_cb\000"
 3636      6200
 3637              	.LASF53:
 3638 0395 73746B61 		.ascii	"stkalign_t\000"
 3638      6C69676E 
 3638      5F7400
 3639              	.LASF77:
 3640 03a0 4F757470 		.ascii	"OutputQueue\000"
 3640      75745175 
 3640      65756500 
 3641              	.LASF212:
 3642 03ac 48464E55 		.ascii	"HFNUM\000"
ARM GAS  /tmp/ccc6RK6s.s 			page 68


 3642      4D00
 3643              	.LASF167:
 3644 03b2 75736265 		.ascii	"usbeventcb_t\000"
 3644      76656E74 
 3644      63625F74 
 3644      00
 3645              	.LASF178:
 3646 03bf 73746D33 		.ascii	"stm32_otg_host_chn_t\000"
 3646      325F6F74 
 3646      675F686F 
 3646      73745F63 
 3646      686E5F74 
 3647              	.LASF122:
 3648 03d4 7472616E 		.ascii	"transmitting\000"
 3648      736D6974 
 3648      74696E67 
 3648      00
 3649              	.LASF174:
 3650 03e1 48435453 		.ascii	"HCTSIZ\000"
 3650      495A00
 3651              	.LASF257:
 3652 03e8 55534249 		.ascii	"USBInEndpointState\000"
 3652      6E456E64 
 3652      706F696E 
 3652      74537461 
 3652      746500
 3653              	.LASF88:
 3654 03fb 696F706F 		.ascii	"ioportmask_t\000"
 3654      72746D61 
 3654      736B5F74 
 3654      00
 3655              	.LASF230:
 3656 0408 72657376 		.ascii	"resvd824\000"
 3656      64383234 
 3656      00
 3657              	.LASF232:
 3658 0411 44564255 		.ascii	"DVBUSPULSE\000"
 3658      5350554C 
 3658      534500
 3659              	.LASF112:
 3660 041c 70776D6D 		.ascii	"pwmmode_t\000"
 3660      6F64655F 
 3660      7400
 3661              	.LASF287:
 3662 0426 63685468 		.ascii	"chThdSleep\000"
 3662      64536C65 
 3662      657000
 3663              	.LASF234:
 3664 0431 44494550 		.ascii	"DIEPEMPMSK\000"
 3664      454D504D 
 3664      534B00
 3665              	.LASF164:
 3666 043c 55534244 		.ascii	"USBDescriptor\000"
 3666      65736372 
 3666      6970746F 
 3666      7200
 3667              	.LASF248:
ARM GAS  /tmp/ccc6RK6s.s 			page 69


 3668 044a 73746D33 		.ascii	"stm32_otg_params_t\000"
 3668      325F6F74 
 3668      675F7061 
 3668      72616D73 
 3668      5F7400
 3669              	.LASF130:
 3670 045d 73657475 		.ascii	"setup\000"
 3670      7000
 3671              	.LASF54:
 3672 0463 696E7463 		.ascii	"intctx\000"
 3672      747800
 3673              	.LASF46:
 3674 046a 705F6570 		.ascii	"p_epending\000"
 3674      656E6469 
 3674      6E6700
 3675              	.LASF195:
 3676 0475 47525354 		.ascii	"GRSTCTL\000"
 3676      43544C00 
 3677              	.LASF161:
 3678 047d 75736265 		.ascii	"usbevent_t\000"
 3678      76656E74 
 3678      5F7400
 3679              	.LASF235:
 3680 0488 72657376 		.ascii	"resvd838\000"
 3680      64383338 
 3680      00
 3681              	.LASF162:
 3682 0491 75645F73 		.ascii	"ud_size\000"
 3682      697A6500 
 3683              	.LASF78:
 3684 0499 636C6561 		.ascii	"clear\000"
 3684      7200
 3685              	.LASF286:
 3686 049f 696E6974 		.ascii	"init_usb_driver\000"
 3686      5F757362 
 3686      5F647269 
 3686      76657200 
 3687              	.LASF144:
 3688 04af 5553425F 		.ascii	"USB_SELECTED\000"
 3688      53454C45 
 3688      43544544 
 3688      00
 3689              	.LASF133:
 3690 04bc 636F6E66 		.ascii	"configuration\000"
 3690      69677572 
 3690      6174696F 
 3690      6E00
 3691              	.LASF200:
 3692 04ca 47525846 		.ascii	"GRXFSIZ\000"
 3692      53495A00 
 3693              	.LASF68:
 3694 04d2 715F636F 		.ascii	"q_counter\000"
 3694      756E7465 
 3694      7200
 3695              	.LASF237:
 3696 04dc 72657376 		.ascii	"resvd840\000"
 3696      64383430 
ARM GAS  /tmp/ccc6RK6s.s 			page 70


 3696      00
 3697              	.LASF13:
 3698 04e5 5F5F7569 		.ascii	"__uint64_t\000"
 3698      6E743634 
 3698      5F7400
 3699              	.LASF208:
 3700 04f0 44494550 		.ascii	"DIEPTXF\000"
 3700      54584600 
 3701              	.LASF11:
 3702 04f8 6C6F6E67 		.ascii	"long unsigned int\000"
 3702      20756E73 
 3702      69676E65 
 3702      6420696E 
 3702      7400
 3703              	.LASF131:
 3704 050a 73746174 		.ascii	"status\000"
 3704      757300
 3705              	.LASF102:
 3706 0511 44494552 		.ascii	"DIER\000"
 3706      00
 3707              	.LASF132:
 3708 0516 61646472 		.ascii	"address\000"
 3708      65737300 
 3709              	.LASF129:
 3710 051e 65703065 		.ascii	"ep0endcb\000"
 3710      6E646362 
 3710      00
 3711              	.LASF193:
 3712 0527 47414842 		.ascii	"GAHBCFG\000"
 3712      43464700 
 3713              	.LASF272:
 3714 052f 696E5F6D 		.ascii	"in_multiplier\000"
 3714      756C7469 
 3714      706C6965 
 3714      7200
 3715              	.LASF247:
 3716 053d 6E756D5F 		.ascii	"num_endpoints\000"
 3716      656E6470 
 3716      6F696E74 
 3716      7300
 3717              	.LASF71:
 3718 054b 715F7772 		.ascii	"q_wrptr\000"
 3718      70747200 
 3719              	.LASF229:
 3720 0553 72657376 		.ascii	"resvd820\000"
 3720      64383230 
 3720      00
 3721              	.LASF84:
 3722 055c 4C434B52 		.ascii	"LCKR\000"
 3722      00
 3723              	.LASF111:
 3724 0561 73746D33 		.ascii	"stm32_tim_t\000"
 3724      325F7469 
 3724      6D5F7400 
 3725              	.LASF99:
 3726 056d 636C6F63 		.ascii	"clock\000"
 3726      6B00
ARM GAS  /tmp/ccc6RK6s.s 			page 71


 3727              	.LASF137:
 3728 0573 7468645F 		.ascii	"thd_ptr\000"
 3728      70747200 
 3729              	.LASF284:
 3730 057b 68616C49 		.ascii	"halInit\000"
 3730      6E697400 
 3731              	.LASF262:
 3732 0583 7278636E 		.ascii	"rxcnt\000"
 3732      7400
 3733              	.LASF146:
 3734 0589 75736273 		.ascii	"usbstate_t\000"
 3734      74617465 
 3734      5F7400
 3735              	.LASF254:
 3736 0594 74787369 		.ascii	"txsize\000"
 3736      7A6500
 3737              	.LASF213:
 3738 059b 72657376 		.ascii	"resvd40C\000"
 3738      64343043 
 3738      00
 3739              	.LASF81:
 3740 05a4 4F535045 		.ascii	"OSPEEDR\000"
 3740      45445200 
 3741              	.LASF191:
 3742 05ac 474F5447 		.ascii	"GOTGCTL\000"
 3742      43544C00 
 3743              	.LASF258:
 3744 05b4 72786275 		.ascii	"rxbuf\000"
 3744      6600
 3745              	.LASF199:
 3746 05ba 47525853 		.ascii	"GRXSTSP\000"
 3746      54535000 
 3747              	.LASF270:
 3748 05c2 696E5F73 		.ascii	"in_state\000"
 3748      74617465 
 3748      00
 3749              	.LASF198:
 3750 05cb 47525853 		.ascii	"GRXSTSR\000"
 3750      54535200 
 3751              	.LASF159:
 3752 05d3 5553425F 		.ascii	"USB_EVENT_WAKEUP\000"
 3752      4556454E 
 3752      545F5741 
 3752      4B455550 
 3752      00
 3753              	.LASF241:
 3754 05e4 50434743 		.ascii	"PCGCCTL\000"
 3754      43544C00 
 3755              	.LASF10:
 3756 05ec 5F5F7569 		.ascii	"__uint32_t\000"
 3756      6E743332 
 3756      5F7400
 3757              	.LASF275:
 3758 05f7 6576656E 		.ascii	"event_cb\000"
 3758      745F6362 
 3758      00
 3759              	.LASF57:
ARM GAS  /tmp/ccc6RK6s.s 			page 72


 3760 0600 4D757465 		.ascii	"Mutex\000"
 3760      7800
 3761              	.LASF12:
 3762 0606 6C6F6E67 		.ascii	"long long int\000"
 3762      206C6F6E 
 3762      6720696E 
 3762      7400
 3763              	.LASF143:
 3764 0614 5553425F 		.ascii	"USB_READY\000"
 3764      52454144 
 3764      5900
 3765              	.LASF58:
 3766 061e 6D5F7175 		.ascii	"m_queue\000"
 3766      65756500 
 3767              	.LASF217:
 3768 0626 72657376 		.ascii	"resvd41C\000"
 3768      64343143 
 3768      00
 3769              	.LASF127:
 3770 062f 6570306E 		.ascii	"ep0next\000"
 3770      65787400 
 3771              	.LASF233:
 3772 0637 72657376 		.ascii	"resvd830\000"
 3772      64383330 
 3772      00
 3773              	.LASF290:
 3774 0640 474E5520 		.ascii	"GNU C 4.8.4 20140526 (release) [ARM/embedded-4_8-br"
 3774      4320342E 
 3774      382E3420 
 3774      32303134 
 3774      30353236 
 3775 0673 616E6368 		.ascii	"anch revision 211358] -mcpu=cortex-m4 -mno-thumb-in"
 3775      20726576 
 3775      6973696F 
 3775      6E203231 
 3775      31333538 
 3776 06a6 74657277 		.ascii	"terwork -mthumb -ggdb -O2 -fomit-frame-pointer -fal"
 3776      6F726B20 
 3776      2D6D7468 
 3776      756D6220 
 3776      2D676764 
 3777 06d9 69676E2D 		.ascii	"ign-functions=16 -ffunction-sections -fdata-section"
 3777      66756E63 
 3777      74696F6E 
 3777      733D3136 
 3777      202D6666 
 3778 070c 73202D66 		.ascii	"s -fno-common\000"
 3778      6E6F2D63 
 3778      6F6D6D6F 
 3778      6E00
 3779              	.LASF166:
 3780 071a 75736265 		.ascii	"usbepcallback_t\000"
 3780      7063616C 
 3780      6C626163 
 3780      6B5F7400 
 3781              	.LASF238:
 3782 072a 72657376 		.ascii	"resvd880\000"
ARM GAS  /tmp/ccc6RK6s.s 			page 73


 3782      64383830 
 3782      00
 3783              	.LASF280:
 3784 0733 49544D5F 		.ascii	"ITM_RxBuffer\000"
 3784      52784275 
 3784      66666572 
 3784      00
 3785              	.LASF236:
 3786 0740 72657376 		.ascii	"resvd83C\000"
 3786      64383343 
 3786      00
 3787              	.LASF117:
 3788 0749 66726571 		.ascii	"frequency\000"
 3788      75656E63 
 3788      7900
 3789              	.LASF75:
 3790 0753 716E6F74 		.ascii	"qnotify_t\000"
 3790      6966795F 
 3790      7400
 3791              	.LASF43:
 3792 075d 705F7761 		.ascii	"p_waiting\000"
 3792      6974696E 
 3792      6700
 3793              	.LASF79:
 3794 0767 4D4F4445 		.ascii	"MODER\000"
 3794      5200
 3795              	.LASF39:
 3796 076d 705F666C 		.ascii	"p_flags\000"
 3796      61677300 
 3797              	.LASF189:
 3798 0775 444F4550 		.ascii	"DOEPTSIZ\000"
 3798      5453495A 
 3798      00
 3799              	.LASF215:
 3800 077e 4841494E 		.ascii	"HAINT\000"
 3800      5400
 3801              	.LASF0:
 3802 0784 756E7369 		.ascii	"unsigned int\000"
 3802      676E6564 
 3802      20696E74 
 3802      00
 3803              	.LASF279:
 3804 0791 55534243 		.ascii	"USBConfig\000"
 3804      6F6E6669 
 3804      6700
 3805              	.LASF136:
 3806 079b 74787065 		.ascii	"txpending\000"
 3806      6E64696E 
 3806      6700
 3807              	.LASF49:
 3808 07a5 705F6D70 		.ascii	"p_mpool\000"
 3808      6F6F6C00 
 3809              	.LASF118:
 3810 07ad 6368616E 		.ascii	"channels\000"
 3810      6E656C73 
 3810      00
 3811              	.LASF244:
ARM GAS  /tmp/ccc6RK6s.s 			page 74


 3812 07b6 73746D33 		.ascii	"stm32_otg_t\000"
 3812      325F6F74 
 3812      675F7400 
 3813              	.LASF40:
 3814 07c2 705F7265 		.ascii	"p_refs\000"
 3814      667300
 3815              	.LASF273:
 3816 07c9 73657475 		.ascii	"setup_buf\000"
 3816      705F6275 
 3816      6600
 3817              	.LASF134:
 3818 07d3 6F746770 		.ascii	"otgparams\000"
 3818      6172616D 
 3818      7300
 3819              	.LASF100:
 3820 07dd 70776D63 		.ascii	"pwmcallback_t\000"
 3820      616C6C62 
 3820      61636B5F 
 3820      7400
 3821              	.LASF51:
 3822 07eb 54687265 		.ascii	"ThreadsList\000"
 3822      6164734C 
 3822      69737400 
 3823              	.LASF219:
 3824 07f7 72657376 		.ascii	"resvd444\000"
 3824      64343434 
 3824      00
 3825              	.LASF95:
 3826 0800 50574D44 		.ascii	"PWMDriver\000"
 3826      72697665 
 3826      7200
 3827              	.LASF267:
 3828 080a 6F75745F 		.ascii	"out_cb\000"
 3828      636200
 3829              	.LASF121:
 3830 0811 55534244 		.ascii	"USBDriver\000"
 3830      72697665 
 3830      7200
 3831              	.LASF216:
 3832 081b 4841494E 		.ascii	"HAINTMSK\000"
 3832      544D534B 
 3832      00
 3833              	.LASF142:
 3834 0824 5553425F 		.ascii	"USB_STOP\000"
 3834      53544F50 
 3834      00
 3835              	.LASF268:
 3836 082d 696E5F6D 		.ascii	"in_maxsize\000"
 3836      61787369 
 3836      7A6500
 3837              	.LASF197:
 3838 0838 47494E54 		.ascii	"GINTMSK\000"
 3838      4D534B00 
 3839              	.LASF42:
 3840 0840 705F7469 		.ascii	"p_time\000"
 3840      6D6500
 3841              	.LASF271:
ARM GAS  /tmp/ccc6RK6s.s 			page 75


 3842 0847 6F75745F 		.ascii	"out_state\000"
 3842      73746174 
 3842      6500
 3843              	.LASF293:
 3844 0851 70776D70 		.ascii	"pwmp_ARRcb\000"
 3844      5F415252 
 3844      636200
 3845              	.LASF110:
 3846 085c 43435236 		.ascii	"CCR6\000"
 3846      00
 3847              	.LASF48:
 3848 0861 705F7265 		.ascii	"p_realprio\000"
 3848      616C7072 
 3848      696F00
 3849              	.LASF149:
 3850 086c 5553425F 		.ascii	"USB_EP0_WAITING_TX0\000"
 3850      4550305F 
 3850      57414954 
 3850      494E475F 
 3850      54583000 
 3851              	.LASF141:
 3852 0880 5553425F 		.ascii	"USB_UNINIT\000"
 3852      554E494E 
 3852      495400
 3853              	.LASF263:
 3854 088b 5553424F 		.ascii	"USBOutEndpointState\000"
 3854      7574456E 
 3854      64706F69 
 3854      6E745374 
 3854      61746500 
 3855              	.LASF240:
 3856 089f 72657376 		.ascii	"resvdD00\000"
 3856      64443030 
 3856      00
 3857              	.LASF14:
 3858 08a8 6C6F6E67 		.ascii	"long long unsigned int\000"
 3858      206C6F6E 
 3858      6720756E 
 3858      7369676E 
 3858      65642069 
 3859              	.LASF207:
 3860 08bf 48505458 		.ascii	"HPTXFSIZ\000"
 3860      4653495A 
 3860      00
 3861              	.LASF92:
 3862 08c8 50574D5F 		.ascii	"PWM_STOP\000"
 3862      53544F50 
 3862      00
 3863              	.LASF36:
 3864 08d1 705F6F6C 		.ascii	"p_older\000"
 3864      64657200 
 3865              	.LASF16:
 3866 08d9 75696E74 		.ascii	"uint16_t\000"
 3866      31365F74 
 3866      00
 3867              	.LASF172:
 3868 08e2 4843494E 		.ascii	"HCINT\000"
ARM GAS  /tmp/ccc6RK6s.s 			page 76


 3868      5400
 3869              	.LASF251:
 3870 08e8 6C696E65 		.ascii	"linear\000"
 3870      617200
 3871              	.LASF27:
 3872 08ef 6D73675F 		.ascii	"msg_t\000"
 3872      7400
 3873              	.LASF222:
 3874 08f5 4443544C 		.ascii	"DCTL\000"
 3874      00
 3875              	.LASF274:
 3876 08fa 55534245 		.ascii	"USBEndpointConfig\000"
 3876      6E64706F 
 3876      696E7443 
 3876      6F6E6669 
 3876      6700
 3877              	.LASF173:
 3878 090c 4843494E 		.ascii	"HCINTMSK\000"
 3878      544D534B 
 3878      00
 3879              	.LASF105:
 3880 0915 43434552 		.ascii	"CCER\000"
 3880      00
 3881              	.LASF260:
 3882 091a 72787175 		.ascii	"rxqueued\000"
 3882      65756564 
 3882      00
 3883              	.LASF25:
 3884 0923 74736C69 		.ascii	"tslices_t\000"
 3884      6365735F 
 3884      7400
 3885              	.LASF192:
 3886 092d 474F5447 		.ascii	"GOTGINT\000"
 3886      494E5400 
 3887              	.LASF86:
 3888 0935 41465248 		.ascii	"AFRH\000"
 3888      00
 3889              	.LASF85:
 3890 093a 4146524C 		.ascii	"AFRL\000"
 3890      00
 3891              	.LASF259:
 3892 093f 72787175 		.ascii	"rxqueue\000"
 3892      65756500 
 3893              	.LASF228:
 3894 0947 4441494E 		.ascii	"DAINTMSK\000"
 3894      544D534B 
 3894      00
 3895              	.LASF101:
 3896 0950 534D4352 		.ascii	"SMCR\000"
 3896      00
 3897              	.LASF98:
 3898 0955 70657269 		.ascii	"period\000"
 3898      6F6400
 3899              	.LASF231:
 3900 095c 44564255 		.ascii	"DVBUSDIS\000"
 3900      53444953 
 3900      00
ARM GAS  /tmp/ccc6RK6s.s 			page 77


 3901              	.LASF186:
 3902 0965 73746D33 		.ascii	"stm32_otg_in_ep_t\000"
 3902      325F6F74 
 3902      675F696E 
 3902      5F65705F 
 3902      7400
 3903              	.LASF246:
 3904 0977 6F74675F 		.ascii	"otg_ram_size\000"
 3904      72616D5F 
 3904      73697A65 
 3904      00
 3905              	.LASF157:
 3906 0984 5553425F 		.ascii	"USB_EVENT_CONFIGURED\000"
 3906      4556454E 
 3906      545F434F 
 3906      4E464947 
 3906      55524544 
 3907              	.LASF243:
 3908 0999 4649464F 		.ascii	"FIFO\000"
 3908      00
 3909              	.LASF80:
 3910 099e 4F545950 		.ascii	"OTYPER\000"
 3910      455200
 3911              	.LASF282:
 3912 09a5 55534244 		.ascii	"USBD1\000"
 3912      3100
 3913              	.LASF67:
 3914 09ab 715F7761 		.ascii	"q_waiting\000"
 3914      6974696E 
 3914      6700
 3915              	.LASF22:
 3916 09b5 746D6F64 		.ascii	"tmode_t\000"
 3916      655F7400 
 3917              	.LASF169:
 3918 09bd 75736267 		.ascii	"usbgetdescriptor_t\000"
 3918      65746465 
 3918      73637269 
 3918      70746F72 
 3918      5F7400
 3919              	.LASF139:
 3920 09d0 77615F70 		.ascii	"wa_pump\000"
 3920      756D7000 
 3921              	.LASF124:
 3922 09d8 696E5F70 		.ascii	"in_params\000"
 3922      6172616D 
 3922      7300
 3923              	.LASF296:
 3924 09e2 696E7465 		.ascii	"interval\000"
 3924      7276616C 
 3924      00
 3925              	.LASF93:
 3926 09eb 50574D5F 		.ascii	"PWM_READY\000"
 3926      52454144 
 3926      5900
 3927              	.LASF297:
 3928 09f5 6C6F6F70 		.ascii	"loop_tick\000"
 3928      5F746963 
ARM GAS  /tmp/ccc6RK6s.s 			page 78


 3928      6B00
 3929              	.LASF5:
 3930 09ff 73686F72 		.ascii	"short int\000"
 3930      7420696E 
 3930      7400
 3931              	.LASF256:
 3932 0a09 746F7473 		.ascii	"totsize\000"
 3932      697A6500 
 3933              	.LASF19:
 3934 0a11 75696E74 		.ascii	"uint64_t\000"
 3934      36345F74 
 3934      00
 3935              	.LASF114:
 3936 0a1a 6D6F6465 		.ascii	"mode\000"
 3936      00
 3937              	.LASF155:
 3938 0a1f 5553425F 		.ascii	"USB_EVENT_RESET\000"
 3938      4556454E 
 3938      545F5245 
 3938      53455400 
 3939              	.LASF175:
 3940 0a2f 72657376 		.ascii	"resvd14\000"
 3940      64313400 
 3941              	.LASF176:
 3942 0a37 72657376 		.ascii	"resvd18\000"
 3942      64313800 
 3943              	.LASF184:
 3944 0a3f 44545846 		.ascii	"DTXFSTS\000"
 3944      53545300 
 3945              	.LASF250:
 3946 0a47 74787175 		.ascii	"txqueue\000"
 3946      65756500 
 3947              	.LASF185:
 3948 0a4f 72657376 		.ascii	"resvd1C\000"
 3948      64314300 
 3949              	.LASF225:
 3950 0a57 44494550 		.ascii	"DIEPMSK\000"
 3950      4D534B00 
 3951              	.LASF20:
 3952 0a5f 626F6F6C 		.ascii	"bool_t\000"
 3952      5F7400
 3953              	.LASF177:
 3954 0a66 72657376 		.ascii	"resvd1c\000"
 3954      64316300 
 3955              	.LASF168:
 3956 0a6e 75736272 		.ascii	"usbreqhandler_t\000"
 3956      65716861 
 3956      6E646C65 
 3956      725F7400 
 3957              	.LASF83:
 3958 0a7e 42535252 		.ascii	"BSRR\000"
 3958      00
 3959              	.LASF165:
 3960 0a83 75736263 		.ascii	"usbcallback_t\000"
 3960      616C6C62 
 3960      61636B5F 
 3960      7400
ARM GAS  /tmp/ccc6RK6s.s 			page 79


 3961              	.LASF30:
 3962 0a91 54687265 		.ascii	"Thread\000"
 3962      616400
 3963              	.LASF196:
 3964 0a98 47494E54 		.ascii	"GINTSTS\000"
 3964      53545300 
 3965              	.LASF87:
 3966 0aa0 4750494F 		.ascii	"GPIO_TypeDef\000"
 3966      5F547970 
 3966      65446566 
 3966      00
 3967              	.LASF181:
 3968 0aad 44494550 		.ascii	"DIEPINT\000"
 3968      494E5400 
 3969              	.LASF202:
 3970 0ab5 484E5054 		.ascii	"HNPTXSTS\000"
 3970      58535453 
 3970      00
 3971              	.LASF120:
 3972 0abe 50574D43 		.ascii	"PWMConfig\000"
 3972      6F6E6669 
 3972      6700
 3973              	.LASF24:
 3974 0ac8 74726566 		.ascii	"trefs_t\000"
 3974      735F7400 
 3975              	.LASF278:
 3976 0ad0 736F665F 		.ascii	"sof_cb\000"
 3976      636200
 3977              	.LASF242:
 3978 0ad7 72657376 		.ascii	"resvdE04\000"
 3978      64453034 
 3978      00
 3979              	.LASF203:
 3980 0ae0 72657376 		.ascii	"resvd30\000"
 3980      64333000 
 3981              	.LASF281:
 3982 0ae8 50574D44 		.ascii	"PWMD4\000"
 3982      3400
 3983              	.LASF239:
 3984 0aee 72657376 		.ascii	"resvd8C0\000"
 3984      64384330 
 3984      00
 3985              	.LASF204:
 3986 0af7 72657376 		.ascii	"resvd34\000"
 3986      64333400 
 3987              	.LASF94:
 3988 0aff 70776D73 		.ascii	"pwmstate_t\000"
 3988      74617465 
 3988      5F7400
 3989              	.LASF106:
 3990 0b0a 42445452 		.ascii	"BDTR\000"
 3990      00
 3991              	.LASF285:
 3992 0b0f 63685379 		.ascii	"chSysInit\000"
 3992      73496E69 
 3992      7400
 3993              	.LASF18:
ARM GAS  /tmp/ccc6RK6s.s 			page 80


 3994 0b19 75696E74 		.ascii	"uint32_t\000"
 3994      33325F74 
 3994      00
 3995              	.LASF140:
 3996 0b22 75736265 		.ascii	"usbep_t\000"
 3996      705F7400 
 3997              	.LASF50:
 3998 0b2a 54687265 		.ascii	"ThreadsQueue\000"
 3998      61647351 
 3998      75657565 
 3998      00
 3999              	.LASF158:
 4000 0b37 5553425F 		.ascii	"USB_EVENT_SUSPEND\000"
 4000      4556454E 
 4000      545F5355 
 4000      5350454E 
 4000      4400
 4001              	.LASF283:
 4002 0b49 70776D63 		.ascii	"pwmcfg\000"
 4002      666700
 4003              	.LASF61:
 4004 0b50 7264796D 		.ascii	"rdymsg\000"
 4004      736700
 4005              	.LASF7:
 4006 0b57 73686F72 		.ascii	"short unsigned int\000"
 4006      7420756E 
 4006      7369676E 
 4006      65642069 
 4006      6E7400
 4007              	.LASF223:
 4008 0b6a 44535453 		.ascii	"DSTS\000"
 4008      00
 4009              	.LASF276:
 4010 0b6f 6765745F 		.ascii	"get_descriptor_cb\000"
 4010      64657363 
 4010      72697074 
 4010      6F725F63 
 4010      6200
 4011              	.LASF76:
 4012 0b81 496E7075 		.ascii	"InputQueue\000"
 4012      74517565 
 4012      756500
 4013              	.LASF125:
 4014 0b8c 6F75745F 		.ascii	"out_params\000"
 4014      70617261 
 4014      6D7300
 4015              	.LASF8:
 4016 0b97 5F5F696E 		.ascii	"__int32_t\000"
 4016      7433325F 
 4016      7400
 4017              	.LASF214:
 4018 0ba1 48505458 		.ascii	"HPTXSTS\000"
 4018      53545300 
 4019              	.LASF206:
 4020 0ba9 72657376 		.ascii	"resvd58\000"
 4020      64353800 
 4021              	.LASF152:
ARM GAS  /tmp/ccc6RK6s.s 			page 81


 4022 0bb1 5553425F 		.ascii	"USB_EP0_SENDING_STS\000"
 4022      4550305F 
 4022      53454E44 
 4022      494E475F 
 4022      53545300 
 4023              	.LASF211:
 4024 0bc5 48464952 		.ascii	"HFIR\000"
 4024      00
 4025              	.LASF150:
 4026 0bca 5553425F 		.ascii	"USB_EP0_WAITING_STS\000"
 4026      4550305F 
 4026      57414954 
 4026      494E475F 
 4026      53545300 
 4027              	.LASF37:
 4028 0bde 705F6E61 		.ascii	"p_name\000"
 4028      6D6500
 4029              	.LASF60:
 4030 0be5 6D5F6E65 		.ascii	"m_next\000"
 4030      787400
 4031              	.LASF135:
 4032 0bec 706D6E65 		.ascii	"pmnext\000"
 4032      787400
 4033              	.LASF253:
 4034 0bf3 74787175 		.ascii	"txqueued\000"
 4034      65756564 
 4034      00
 4035              	.LASF194:
 4036 0bfc 47555342 		.ascii	"GUSBCFG\000"
 4036      43464700 
 4037              	.LASF151:
 4038 0c04 5553425F 		.ascii	"USB_EP0_RX\000"
 4038      4550305F 
 4038      525800
 4039              	.LASF209:
 4040 0c0f 72657376 		.ascii	"resvd140\000"
 4040      64313430 
 4040      00
 4041              	.LASF45:
 4042 0c18 705F6D73 		.ascii	"p_msg\000"
 4042      6700
 4043              	.LASF38:
 4044 0c1e 705F7374 		.ascii	"p_state\000"
 4044      61746500 
 4045              		.ident	"GCC: (GNU Tools for ARM Embedded Processors) 4.8.4 20140526 (release) [ARM/embedded-4_8-br
ARM GAS  /tmp/ccc6RK6s.s 			page 82


DEFINED SYMBOLS
                            *ABS*:00000000 main.c
     /tmp/ccc6RK6s.s:19     .text.pwmp_ARRcb:00000000 $t
     /tmp/ccc6RK6s.s:24     .text.pwmp_ARRcb:00000000 pwmp_ARRcb
     /tmp/ccc6RK6s.s:38     .text.startup.main:00000000 $t
     /tmp/ccc6RK6s.s:44     .text.startup.main:00000000 main
     /tmp/ccc6RK6s.s:130    .text.startup.main:00000078 $d
     /tmp/ccc6RK6s.s:144    .data.pwmcfg:00000000 pwmcfg
     /tmp/ccc6RK6s.s:140    .data.pwmcfg:00000000 $d
                     .debug_frame:00000010 $d
     /tmp/ccc6RK6s.s:139    .text.startup.main:0000008c $t

UNDEFINED SYMBOLS
halInit
chSysInit
init_usb_driver
chThdSleep
pwmStart
_pal_lld_setgroupmode
loop_tick
USBD1
PWMD4
