ARM GAS  /tmp/ccBAFLVT.s 			page 1


   1              		.syntax unified
   2              		.cpu cortex-m4
   3              		.fpu softvfp
   4              		.eabi_attribute 20, 1
   5              		.eabi_attribute 21, 1
   6              		.eabi_attribute 23, 3
   7              		.eabi_attribute 24, 1
   8              		.eabi_attribute 25, 1
   9              		.eabi_attribute 26, 1
  10              		.eabi_attribute 30, 2
  11              		.eabi_attribute 34, 1
  12              		.eabi_attribute 18, 4
  13              		.thumb
  14              		.file	"proto.c"
  15              		.text
  16              	.Ltext0:
  17              		.cfi_sections	.debug_frame
  18              		.section	.text.set_duty_cycle,"ax",%progbits
  19              		.align	2
  20              		.p2align 4,,15
  21              		.global	set_duty_cycle
  22              		.thumb
  23              		.thumb_func
  24              		.type	set_duty_cycle, %function
  25              	set_duty_cycle:
  26              	.LFB118:
  27              		.file 1 "app/proto.c"
  28              		.loc 1 12 0
  29              		.cfi_startproc
  30              		@ args = 0, pretend = 0, frame = 0
  31              		@ frame_needed = 0, uses_anonymous_args = 0
  32              	.LVL0:
  33 0000 70B5     		push	{r4, r5, r6, lr}
  34              		.cfi_def_cfa_offset 16
  35              		.cfi_offset 4, -16
  36              		.cfi_offset 5, -12
  37              		.cfi_offset 6, -8
  38              		.cfi_offset 14, -4
  39              		.loc 1 18 0
  40 0002 0E4C     		ldr	r4, .L2
  41              		.loc 1 12 0
  42 0004 0546     		mov	r5, r0
  43              	.LVL1:
  44              		.loc 1 15 0
  45 0006 05EB8505 		add	r5, r5, r5, lsl #2
  46              		.loc 1 18 0
  47 000a 2046     		mov	r0, r4
  48              	.LVL2:
  49              		.loc 1 15 0
  50 000c 05EB8505 		add	r5, r5, r5, lsl #2
  51              		.loc 1 12 0
  52 0010 0E46     		mov	r6, r1
  53              		.loc 1 18 0
  54 0012 FFF7FEFF 		bl	pwmDisableChannel
  55              	.LVL3:
  56              		.loc 1 19 0
  57 0016 2189     		ldrh	r1, [r4, #8]
ARM GAS  /tmp/ccBAFLVT.s 			page 2


  58 0018 094A     		ldr	r2, .L2+4
  59              		.loc 1 15 0
  60 001a AB00     		lsls	r3, r5, #2
  61              		.loc 1 19 0
  62 001c 9BB2     		uxth	r3, r3
  63 001e 03FB01F3 		mul	r3, r3, r1
  64 0022 82FB0312 		smull	r1, r2, r2, r3
  65 0026 DB17     		asrs	r3, r3, #31
  66 0028 C3EB2232 		rsb	r2, r3, r2, asr #12
  67 002c 3146     		mov	r1, r6
  68 002e 2046     		mov	r0, r4
  69 0030 92B2     		uxth	r2, r2
  70              		.loc 1 20 0
  71 0032 BDE87040 		pop	{r4, r5, r6, lr}
  72              		.loc 1 19 0
  73 0036 FFF7FEBF 		b	pwmEnableChannel
  74              	.LVL4:
  75              	.L3:
  76 003a 00BF     		.align	2
  77              	.L2:
  78 003c 00000000 		.word	PWMD4
  79 0040 AD8BDB68 		.word	1759218605
  80              		.cfi_endproc
  81              	.LFE118:
  82              		.size	set_duty_cycle, .-set_duty_cycle
  83 0044 AFF30080 		.section	.text.LED_set_duty_cycle,"ax",%progbits
  83      AFF30080 
  83      AFF30080 
  84              		.align	2
  85              		.p2align 4,,15
  86              		.global	LED_set_duty_cycle
  87              		.thumb
  88              		.thumb_func
  89              		.type	LED_set_duty_cycle, %function
  90              	LED_set_duty_cycle:
  91              	.LFB119:
  92              		.loc 1 24 0
  93              		.cfi_startproc
  94              		@ args = 0, pretend = 0, frame = 0
  95              		@ frame_needed = 0, uses_anonymous_args = 0
  96              	.LVL5:
  97 0000 38B5     		push	{r3, r4, r5, lr}
  98              		.cfi_def_cfa_offset 16
  99              		.cfi_offset 3, -16
 100              		.cfi_offset 4, -12
 101              		.cfi_offset 5, -8
 102              		.cfi_offset 14, -4
 103              		.loc 1 24 0
 104 0002 0446     		mov	r4, r0
 105              		.loc 1 25 0
 106 0004 0846     		mov	r0, r1
 107              	.LVL6:
 108 0006 0021     		movs	r1, #0
 109              	.LVL7:
 110              		.loc 1 24 0
 111 0008 1546     		mov	r5, r2
 112              		.loc 1 25 0
ARM GAS  /tmp/ccBAFLVT.s 			page 3


 113 000a FFF7FEFF 		bl	set_duty_cycle
 114              	.LVL8:
 115              		.loc 1 27 0
 116 000e 2046     		mov	r0, r4
 117 0010 0221     		movs	r1, #2
 118 0012 FFF7FEFF 		bl	set_duty_cycle
 119              	.LVL9:
 120              		.loc 1 28 0
 121 0016 2846     		mov	r0, r5
 122 0018 0321     		movs	r1, #3
 123              		.loc 1 29 0
 124 001a BDE83840 		pop	{r3, r4, r5, lr}
 125              		.loc 1 28 0
 126 001e FFF7FEBF 		b	set_duty_cycle
 127              	.LVL10:
 128              		.cfi_endproc
 129              	.LFE119:
 130              		.size	LED_set_duty_cycle, .-LED_set_duty_cycle
 131 0022 00BFAFF3 		.section	.text.LED_switch_OFF,"ax",%progbits
 131      0080AFF3 
 131      0080AFF3 
 131      0080
 132              		.align	2
 133              		.p2align 4,,15
 134              		.global	LED_switch_OFF
 135              		.thumb
 136              		.thumb_func
 137              		.type	LED_switch_OFF, %function
 138              	LED_switch_OFF:
 139              	.LFB120:
 140              		.loc 1 33 0
 141              		.cfi_startproc
 142              		@ args = 0, pretend = 0, frame = 0
 143              		@ frame_needed = 0, uses_anonymous_args = 0
 144 0000 10B5     		push	{r4, lr}
 145              		.cfi_def_cfa_offset 8
 146              		.cfi_offset 4, -8
 147              		.cfi_offset 14, -4
 148              		.loc 1 34 0
 149 0002 074C     		ldr	r4, .L6
 150 0004 0021     		movs	r1, #0
 151 0006 2046     		mov	r0, r4
 152 0008 FFF7FEFF 		bl	pwmDisableChannel
 153              	.LVL11:
 154              		.loc 1 36 0
 155 000c 2046     		mov	r0, r4
 156 000e 0221     		movs	r1, #2
 157 0010 FFF7FEFF 		bl	pwmDisableChannel
 158              	.LVL12:
 159              		.loc 1 37 0
 160 0014 2046     		mov	r0, r4
 161 0016 0321     		movs	r1, #3
 162              		.loc 1 38 0
 163 0018 BDE81040 		pop	{r4, lr}
 164              		.loc 1 37 0
 165 001c FFF7FEBF 		b	pwmDisableChannel
 166              	.LVL13:
ARM GAS  /tmp/ccBAFLVT.s 			page 4


 167              	.L7:
 168              		.align	2
 169              	.L6:
 170 0020 00000000 		.word	PWMD4
 171              		.cfi_endproc
 172              	.LFE120:
 173              		.size	LED_switch_OFF, .-LED_switch_OFF
 174 0024 AFF30080 		.section	.text.LED_switch_ON,"ax",%progbits
 174      AFF30080 
 174      AFF30080 
 175              		.align	2
 176              		.p2align 4,,15
 177              		.global	LED_switch_ON
 178              		.thumb
 179              		.thumb_func
 180              		.type	LED_switch_ON, %function
 181              	LED_switch_ON:
 182              	.LFB121:
 183              		.loc 1 42 0
 184              		.cfi_startproc
 185              		@ args = 0, pretend = 0, frame = 0
 186              		@ frame_needed = 0, uses_anonymous_args = 0
 187 0000 38B5     		push	{r3, r4, r5, lr}
 188              		.cfi_def_cfa_offset 16
 189              		.cfi_offset 3, -16
 190              		.cfi_offset 4, -12
 191              		.cfi_offset 5, -8
 192              		.cfi_offset 14, -4
 193              		.loc 1 43 0
 194 0002 0F4C     		ldr	r4, .L9
 195              		.loc 1 44 0
 196 0004 0F4D     		ldr	r5, .L9+4
 197              		.loc 1 43 0
 198 0006 2046     		mov	r0, r4
 199 0008 0021     		movs	r1, #0
 200 000a FFF7FEFF 		bl	pwmDisableChannel
 201              	.LVL14:
 202              		.loc 1 44 0
 203 000e AA88     		ldrh	r2, [r5, #4]
 204 0010 2046     		mov	r0, r4
 205 0012 0021     		movs	r1, #0
 206 0014 FFF7FEFF 		bl	pwmEnableChannel
 207              	.LVL15:
 208              		.loc 1 49 0
 209 0018 2046     		mov	r0, r4
 210 001a 0221     		movs	r1, #2
 211 001c FFF7FEFF 		bl	pwmDisableChannel
 212              	.LVL16:
 213              		.loc 1 50 0
 214 0020 AA88     		ldrh	r2, [r5, #4]
 215 0022 2046     		mov	r0, r4
 216 0024 0221     		movs	r1, #2
 217 0026 FFF7FEFF 		bl	pwmEnableChannel
 218              	.LVL17:
 219              		.loc 1 52 0
 220 002a 2046     		mov	r0, r4
 221 002c 0321     		movs	r1, #3
ARM GAS  /tmp/ccBAFLVT.s 			page 5


 222 002e FFF7FEFF 		bl	pwmDisableChannel
 223              	.LVL18:
 224              		.loc 1 53 0
 225 0032 2046     		mov	r0, r4
 226 0034 AA88     		ldrh	r2, [r5, #4]
 227 0036 0321     		movs	r1, #3
 228              		.loc 1 55 0
 229 0038 BDE83840 		pop	{r3, r4, r5, lr}
 230              		.loc 1 53 0
 231 003c FFF7FEBF 		b	pwmEnableChannel
 232              	.LVL19:
 233              	.L10:
 234              		.align	2
 235              	.L9:
 236 0040 00000000 		.word	PWMD4
 237 0044 00000000 		.word	pwmcfg
 238              		.cfi_endproc
 239              	.LFE121:
 240              		.size	LED_switch_ON, .-LED_switch_ON
 241 0048 AFF30080 		.section	.text.eval_pkt,"ax",%progbits
 241      AFF30080 
 242              		.align	2
 243              		.p2align 4,,15
 244              		.global	eval_pkt
 245              		.thumb
 246              		.thumb_func
 247              		.type	eval_pkt, %function
 248              	eval_pkt:
 249              	.LFB122:
 250              		.loc 1 58 0
 251              		.cfi_startproc
 252              		@ args = 0, pretend = 0, frame = 0
 253              		@ frame_needed = 0, uses_anonymous_args = 0
 254              		@ link register save eliminated.
 255              	.LVL20:
 256              		.loc 1 63 0
 257 0000 0278     		ldrb	r2, [r0]	@ zero_extendqisi2
 258 0002 012A     		cmp	r2, #1
 259              		.loc 1 58 0
 260 0004 0346     		mov	r3, r0
 261              	.LVL21:
 262              		.loc 1 63 0
 263 0006 09D0     		beq	.L13
 264 0008 06D3     		bcc	.L16
 265 000a 022A     		cmp	r2, #2
 266 000c 04D1     		bne	.L16
 267              		.loc 1 66 0
 268 000e 8088     		ldrh	r0, [r0, #4]
 269              	.LVL22:
 270 0010 1989     		ldrh	r1, [r3, #8]
 271 0012 9A89     		ldrh	r2, [r3, #12]
 272 0014 FFF7FEBF 		b	LED_set_duty_cycle
 273              	.LVL23:
 274              	.L16:
 275              		.loc 1 81 0
 276 0018 FFF7FEBF 		b	LED_switch_OFF
 277              	.LVL24:
ARM GAS  /tmp/ccBAFLVT.s 			page 6


 278              	.L13:
 279              		.loc 1 76 0
 280 001c FFF7FEBF 		b	LED_switch_ON
 281              	.LVL25:
 282              		.cfi_endproc
 283              	.LFE122:
 284              		.size	eval_pkt, .-eval_pkt
 285              		.section	.text.loop_tick,"ax",%progbits
 286              		.align	2
 287              		.p2align 4,,15
 288              		.global	loop_tick
 289              		.thumb
 290              		.thumb_func
 291              		.type	loop_tick, %function
 292              	loop_tick:
 293              	.LFB125:
 294              		.loc 1 98 0
 295              		.cfi_startproc
 296              		@ args = 0, pretend = 0, frame = 0
 297              		@ frame_needed = 0, uses_anonymous_args = 0
 298              	.LVL26:
 299 0000 0246     		mov	r2, r0
 300              	.LVL27:
 301 0002 38B5     		push	{r3, r4, r5, lr}
 302              		.cfi_def_cfa_offset 16
 303              		.cfi_offset 3, -16
 304              		.cfi_offset 4, -12
 305              		.cfi_offset 5, -8
 306              		.cfi_offset 14, -4
 307              	.LBB6:
 308              	.LBB7:
 309              		.loc 1 94 0
 310 0004 0E48     		ldr	r0, .L20
 311              	.LVL28:
 312 0006 4021     		movs	r1, #64
 313 0008 FFF7FEFF 		bl	usb_read_data
 314              	.LVL29:
 315              	.LBE7:
 316              	.LBE6:
 317              		.loc 1 101 0
 318 000c 0028     		cmp	r0, #0
 319 000e 15DD     		ble	.L18
 320              		.loc 1 108 0
 321 0010 0B4D     		ldr	r5, .L20
 322              		.loc 1 104 0
 323 0012 0B48     		ldr	r0, .L20
 324              		.loc 1 108 0
 325 0014 0B4C     		ldr	r4, .L20+4
 326              		.loc 1 104 0
 327 0016 FFF7FEFF 		bl	eval_pkt
 328              	.LVL30:
 329              		.loc 1 108 0
 330 001a 0FCD     		ldmia	r5!, {r0, r1, r2, r3}
 331 001c 0FC4     		stmia	r4!, {r0, r1, r2, r3}
 332 001e 0FCD     		ldmia	r5!, {r0, r1, r2, r3}
 333 0020 0FC4     		stmia	r4!, {r0, r1, r2, r3}
 334 0022 0FCD     		ldmia	r5!, {r0, r1, r2, r3}
ARM GAS  /tmp/ccBAFLVT.s 			page 7


 335 0024 0FC4     		stmia	r4!, {r0, r1, r2, r3}
 336 0026 95E80F00 		ldmia	r5, {r0, r1, r2, r3}
 337 002a 84E80F00 		stmia	r4, {r0, r1, r2, r3}
 338              	.LVL31:
 339              	.LBB8:
 340              	.LBB9:
 341              		.loc 1 89 0
 342 002e A4F13000 		sub	r0, r4, #48
 343 0032 4021     		movs	r1, #64
 344              	.LBE9:
 345              	.LBE8:
 346              		.loc 1 113 0
 347 0034 BDE83840 		pop	{r3, r4, r5, lr}
 348              	.LBB11:
 349              	.LBB10:
 350              		.loc 1 89 0
 351 0038 FFF7FEBF 		b	usb_send_data
 352              	.LVL32:
 353              	.L18:
 354 003c 38BD     		pop	{r3, r4, r5, pc}
 355              	.L21:
 356 003e 00BF     		.align	2
 357              	.L20:
 358 0040 00000000 		.word	.LANCHOR0
 359 0044 00000000 		.word	.LANCHOR1
 360              	.LBE10:
 361              	.LBE11:
 362              		.cfi_endproc
 363              	.LFE125:
 364              		.size	loop_tick, .-loop_tick
 365 0048 AFF30080 		.section	.text.usb_send_packet,"ax",%progbits
 365      AFF30080 
 366              		.align	2
 367              		.p2align 4,,15
 368              		.global	usb_send_packet
 369              		.thumb
 370              		.thumb_func
 371              		.type	usb_send_packet, %function
 372              	usb_send_packet:
 373              	.LFB126:
 374              		.loc 1 116 0
 375              		.cfi_startproc
 376              		@ args = 0, pretend = 0, frame = 0
 377              		@ frame_needed = 0, uses_anonymous_args = 0
 378              	.LVL33:
 379 0000 10B5     		push	{r4, lr}
 380              		.cfi_def_cfa_offset 8
 381              		.cfi_offset 4, -8
 382              		.cfi_offset 14, -4
 383              	.LBB12:
 384              		.loc 1 117 0
 385 0002 2023     		movs	r3, #32
 386              	@ 117 "app/proto.c" 1
 387 0004 83F31188 		msr     BASEPRI, r3
 388              	@ 0 "" 2
 389              		.thumb
 390              	.LBE12:
ARM GAS  /tmp/ccBAFLVT.s 			page 8


 391              		.loc 1 118 0
 392 0008 0D4C     		ldr	r4, .L28
 393 000a 2378     		ldrb	r3, [r4]	@ zero_extendqisi2
 394 000c 042B     		cmp	r3, #4
 395 000e 04D0     		beq	.L23
 396              	.LBB13:
 397              		.loc 1 120 0
 398 0010 0023     		movs	r3, #0
 399              	@ 120 "app/proto.c" 1
 400 0012 83F31188 		msr     BASEPRI, r3
 401              	@ 0 "" 2
 402              	.LVL34:
 403              		.thumb
 404              	.L24:
 405              	.LBE13:
 406              		.loc 1 135 0
 407 0016 0020     		movs	r0, #0
 408 0018 10BD     		pop	{r4, pc}
 409              	.LVL35:
 410              	.L23:
 411              		.loc 1 124 0
 412 001a 0246     		mov	r2, r0
 413 001c 4023     		movs	r3, #64
 414 001e 2046     		mov	r0, r4
 415              	.LVL36:
 416 0020 0121     		movs	r1, #1
 417 0022 FFF7FEFF 		bl	usbPrepareTransmit
 418              	.LVL37:
 419              		.loc 1 125 0
 420 0026 2046     		mov	r0, r4
 421 0028 0121     		movs	r1, #1
 422 002a FFF7FEFF 		bl	usbStartTransmitI
 423              	.LVL38:
 424              	.LBB14:
 425              		.loc 1 126 0
 426 002e 0023     		movs	r3, #0
 427              	@ 126 "app/proto.c" 1
 428 0030 83F31188 		msr     BASEPRI, r3
 429              	@ 0 "" 2
 430              		.thumb
 431              	.LBE14:
 432              		.loc 1 128 0
 433 0034 0028     		cmp	r0, #0
 434 0036 EED0     		beq	.L24
 435              		.loc 1 130 0
 436 0038 C820     		movs	r0, #200
 437              	.LVL39:
 438 003a FFF7FEFF 		bl	chThdSleep
 439              	.LVL40:
 440 003e EAE7     		b	.L24
 441              	.L29:
 442              		.align	2
 443              	.L28:
 444 0040 00000000 		.word	USBD1
 445              		.cfi_endproc
 446              	.LFE126:
 447              		.size	usb_send_packet, .-usb_send_packet
ARM GAS  /tmp/ccBAFLVT.s 			page 9


 448 0044 AFF30080 		.section	.bss.req_pkt.7719,"aw",%nobits
 448      AFF30080 
 448      AFF30080 
 449              		.align	2
 450              		.set	.LANCHOR0,. + 0
 451              		.type	req_pkt.7719, %object
 452              		.size	req_pkt.7719, 64
 453              	req_pkt.7719:
 454 0000 00000000 		.space	64
 454      00000000 
 454      00000000 
 454      00000000 
 454      00000000 
 455              		.section	.bss.ans_pkt.7720,"aw",%nobits
 456              		.align	2
 457              		.set	.LANCHOR1,. + 0
 458              		.type	ans_pkt.7720, %object
 459              		.size	ans_pkt.7720, 64
 460              	ans_pkt.7720:
 461 0000 00000000 		.space	64
 461      00000000 
 461      00000000 
 461      00000000 
 461      00000000 
 462              		.text
 463              	.Letext0:
 464              		.file 2 "/home/marco/SoftwareProjects/st-usb/tools/gcc-arm-none-eabi-4_8-2014q2/lib/gcc/arm-none-e
 465              		.file 3 "/home/marco/SoftwareProjects/st-usb/tools/gcc-arm-none-eabi-4_8-2014q2/arm-none-eabi/incl
 466              		.file 4 "/home/marco/SoftwareProjects/st-usb/tools/gcc-arm-none-eabi-4_8-2014q2/arm-none-eabi/incl
 467              		.file 5 "/home/marco/SoftwareProjects/st-usb/f9xx/firmware/ext/ChibiOS-RT/os/ports/GCC/ARMCMx/chty
 468              		.file 6 "/home/marco/SoftwareProjects/st-usb/f9xx/firmware/ext/ChibiOS-RT/os/kernel/include/chlist
 469              		.file 7 "/home/marco/SoftwareProjects/st-usb/f9xx/firmware/ext/ChibiOS-RT/os/kernel/include/chthre
 470              		.file 8 "/home/marco/SoftwareProjects/st-usb/f9xx/firmware/ext/ChibiOS-RT/os/ports/GCC/ARMCMx/chco
 471              		.file 9 "/home/marco/SoftwareProjects/st-usb/f9xx/firmware/ext/ChibiOS-RT/os/kernel/include/chmtx.
 472              		.file 10 "/home/marco/SoftwareProjects/st-usb/f9xx/firmware/ext/ChibiOS-RT/os/kernel/include/chque
 473              		.file 11 "/home/marco/SoftwareProjects/st-usb/f9xx/firmware/ext/ChibiOS-RT/os/hal/include/pwm.h"
 474              		.file 12 "/home/marco/SoftwareProjects/st-usb/f9xx/firmware/ext/ChibiOS-RT/os/hal/platforms/STM32/
 475              		.file 13 "/home/marco/SoftwareProjects/st-usb/f9xx/firmware/ext/ChibiOS-RT/os/hal/platforms/STM32/
 476              		.file 14 "/home/marco/SoftwareProjects/st-usb/f9xx/firmware/ext/ChibiOS-RT/os/hal/include/usb.h"
 477              		.file 15 "/home/marco/SoftwareProjects/st-usb/f9xx/firmware/ext/ChibiOS-RT/os/hal/platforms/STM32/
 478              		.file 16 "/home/marco/SoftwareProjects/st-usb/f9xx/firmware/ext/ChibiOS-RT/os/hal/platforms/STM32/
 479              		.file 17 "app/proto.h"
 480              		.file 18 "/home/marco/SoftwareProjects/st-usb/f9xx/firmware/ext/ChibiOS-RT/os/ports/common/ARMCMx/
 481              		.file 19 "app/usbcfg.h"