ARM GAS  /tmp/cc5U6GsV.s 			page 1


   1              		.syntax unified
   2              		.cpu cortex-m4
   3              		.fpu softvfp
   4              		.eabi_attribute 20, 1
   5              		.eabi_attribute 21, 1
   6              		.eabi_attribute 23, 3
   7              		.eabi_attribute 24, 1
   8              		.eabi_attribute 25, 1
   9              		.eabi_attribute 26, 1
  10              		.eabi_attribute 30, 2
  11              		.eabi_attribute 34, 1
  12              		.eabi_attribute 18, 4
  13              		.thumb
  14              		.file	"pwm.c"
  15              		.text
  16              	.Ltext0:
  17              		.cfi_sections	.debug_frame
  18              		.section	.text.pwmInit,"ax",%progbits
  19              		.align	2
  20              		.p2align 4,,15
  21              		.global	pwmInit
  22              		.thumb
  23              		.thumb_func
  24              		.type	pwmInit, %function
  25              	pwmInit:
  26              	.LFB118:
  27              		.file 1 "/home/marco/SoftwareProjects/st-usb/f9xx/firmware/ext/ChibiOS-RT/os/hal/src/pwm.c"
  28              		.loc 1 68 0
  29              		.cfi_startproc
  30              		@ args = 0, pretend = 0, frame = 0
  31              		@ frame_needed = 0, uses_anonymous_args = 0
  32              		@ link register save eliminated.
  33              		.loc 1 70 0
  34 0000 FFF7FEBF 		b	pwm_lld_init
  35              	.LVL0:
  36              		.cfi_endproc
  37              	.LFE118:
  38              		.size	pwmInit, .-pwmInit
  39 0004 AFF30080 		.section	.text.pwmObjectInit,"ax",%progbits
  39      AFF30080 
  39      AFF30080 
  40              		.align	2
  41              		.p2align 4,,15
  42              		.global	pwmObjectInit
  43              		.thumb
  44              		.thumb_func
  45              		.type	pwmObjectInit, %function
  46              	pwmObjectInit:
  47              	.LFB119:
  48              		.loc 1 80 0
  49              		.cfi_startproc
  50              		@ args = 0, pretend = 0, frame = 0
  51              		@ frame_needed = 0, uses_anonymous_args = 0
  52              		@ link register save eliminated.
  53              	.LVL1:
  54              		.loc 1 82 0
  55 0000 0122     		movs	r2, #1
ARM GAS  /tmp/cc5U6GsV.s 			page 2


  56              		.loc 1 83 0
  57 0002 0023     		movs	r3, #0
  58              		.loc 1 82 0
  59 0004 0270     		strb	r2, [r0]
  60              		.loc 1 83 0
  61 0006 4360     		str	r3, [r0, #4]
  62 0008 7047     		bx	lr
  63              		.cfi_endproc
  64              	.LFE119:
  65              		.size	pwmObjectInit, .-pwmObjectInit
  66 000a 00BFAFF3 		.section	.text.pwmStart,"ax",%progbits
  66      0080
  67              		.align	2
  68              		.p2align 4,,15
  69              		.global	pwmStart
  70              		.thumb
  71              		.thumb_func
  72              		.type	pwmStart, %function
  73              	pwmStart:
  74              	.LFB120:
  75              		.loc 1 99 0
  76              		.cfi_startproc
  77              		@ args = 0, pretend = 0, frame = 0
  78              		@ frame_needed = 0, uses_anonymous_args = 0
  79              	.LVL2:
  80 0000 10B5     		push	{r4, lr}
  81              		.cfi_def_cfa_offset 8
  82              		.cfi_offset 4, -8
  83              		.cfi_offset 14, -4
  84              	.LBB2:
  85              		.loc 1 103 0
  86 0002 2023     		movs	r3, #32
  87              	.LBE2:
  88              		.loc 1 99 0
  89 0004 0446     		mov	r4, r0
  90              	.LBB3:
  91              		.loc 1 103 0
  92              	@ 103 "/home/marco/SoftwareProjects/st-usb/f9xx/firmware/ext/ChibiOS-RT/os/hal/src/pwm.c" 1
  93 0006 83F31188 		msr     BASEPRI, r3
  94              	@ 0 "" 2
  95              		.thumb
  96              	.LBE3:
  97              		.loc 1 107 0
  98 000a 8B88     		ldrh	r3, [r1, #4]
  99 000c 0381     		strh	r3, [r0, #8]	@ movhi
 100              		.loc 1 106 0
 101 000e 4160     		str	r1, [r0, #4]
 102              		.loc 1 108 0
 103 0010 FFF7FEFF 		bl	pwm_lld_start
 104              	.LVL3:
 105              		.loc 1 109 0
 106 0014 0223     		movs	r3, #2
 107 0016 2370     		strb	r3, [r4]
 108              	.LBB4:
 109              		.loc 1 110 0
 110 0018 0023     		movs	r3, #0
 111              	@ 110 "/home/marco/SoftwareProjects/st-usb/f9xx/firmware/ext/ChibiOS-RT/os/hal/src/pwm.c" 1
ARM GAS  /tmp/cc5U6GsV.s 			page 3


 112 001a 83F31188 		msr     BASEPRI, r3
 113              	@ 0 "" 2
 114              		.thumb
 115 001e 10BD     		pop	{r4, pc}
 116              	.LBE4:
 117              		.cfi_endproc
 118              	.LFE120:
 119              		.size	pwmStart, .-pwmStart
 120              		.section	.text.pwmStop,"ax",%progbits
 121              		.align	2
 122              		.p2align 4,,15
 123              		.global	pwmStop
 124              		.thumb
 125              		.thumb_func
 126              		.type	pwmStop, %function
 127              	pwmStop:
 128              	.LFB121:
 129              		.loc 1 120 0
 130              		.cfi_startproc
 131              		@ args = 0, pretend = 0, frame = 0
 132              		@ frame_needed = 0, uses_anonymous_args = 0
 133              	.LVL4:
 134 0000 10B5     		push	{r4, lr}
 135              		.cfi_def_cfa_offset 8
 136              		.cfi_offset 4, -8
 137              		.cfi_offset 14, -4
 138              	.LBB5:
 139              		.loc 1 124 0
 140 0002 2023     		movs	r3, #32
 141              	.LBE5:
 142              		.loc 1 120 0
 143 0004 0446     		mov	r4, r0
 144              	.LBB6:
 145              		.loc 1 124 0
 146              	@ 124 "/home/marco/SoftwareProjects/st-usb/f9xx/firmware/ext/ChibiOS-RT/os/hal/src/pwm.c" 1
 147 0006 83F31188 		msr     BASEPRI, r3
 148              	@ 0 "" 2
 149              		.thumb
 150              	.LBE6:
 151              		.loc 1 127 0
 152 000a FFF7FEFF 		bl	pwm_lld_stop
 153              	.LVL5:
 154              		.loc 1 128 0
 155 000e 0123     		movs	r3, #1
 156 0010 2370     		strb	r3, [r4]
 157              	.LBB7:
 158              		.loc 1 129 0
 159 0012 0023     		movs	r3, #0
 160              	@ 129 "/home/marco/SoftwareProjects/st-usb/f9xx/firmware/ext/ChibiOS-RT/os/hal/src/pwm.c" 1
 161 0014 83F31188 		msr     BASEPRI, r3
 162              	@ 0 "" 2
 163              		.thumb
 164 0018 10BD     		pop	{r4, pc}
 165              	.LBE7:
 166              		.cfi_endproc
 167              	.LFE121:
 168              		.size	pwmStop, .-pwmStop
ARM GAS  /tmp/cc5U6GsV.s 			page 4


 169 001a 00BFAFF3 		.section	.text.pwmChangePeriod,"ax",%progbits
 169      0080
 170              		.align	2
 171              		.p2align 4,,15
 172              		.global	pwmChangePeriod
 173              		.thumb
 174              		.thumb_func
 175              		.type	pwmChangePeriod, %function
 176              	pwmChangePeriod:
 177              	.LFB122:
 178              		.loc 1 147 0
 179              		.cfi_startproc
 180              		@ args = 0, pretend = 0, frame = 0
 181              		@ frame_needed = 0, uses_anonymous_args = 0
 182              		@ link register save eliminated.
 183              	.LVL6:
 184              	.LBB8:
 185              		.loc 1 151 0
 186 0000 2023     		movs	r3, #32
 187              	@ 151 "/home/marco/SoftwareProjects/st-usb/f9xx/firmware/ext/ChibiOS-RT/os/hal/src/pwm.c" 1
 188 0002 83F31188 		msr     BASEPRI, r3
 189              	@ 0 "" 2
 190              		.thumb
 191              	.LBE8:
 192              		.loc 1 154 0
 193 0006 0369     		ldr	r3, [r0, #16]
 194 0008 0181     		strh	r1, [r0, #8]	@ movhi
 195 000a 4A1E     		subs	r2, r1, #1
 196 000c 92B2     		uxth	r2, r2
 197 000e DA62     		str	r2, [r3, #44]
 198              	.LBB9:
 199              		.loc 1 155 0
 200 0010 0023     		movs	r3, #0
 201              	@ 155 "/home/marco/SoftwareProjects/st-usb/f9xx/firmware/ext/ChibiOS-RT/os/hal/src/pwm.c" 1
 202 0012 83F31188 		msr     BASEPRI, r3
 203              	@ 0 "" 2
 204              		.thumb
 205 0016 7047     		bx	lr
 206              	.LBE9:
 207              		.cfi_endproc
 208              	.LFE122:
 209              		.size	pwmChangePeriod, .-pwmChangePeriod
 210 0018 AFF30080 		.section	.text.pwmEnableChannel,"ax",%progbits
 210      AFF30080 
 211              		.align	2
 212              		.p2align 4,,15
 213              		.global	pwmEnableChannel
 214              		.thumb
 215              		.thumb_func
 216              		.type	pwmEnableChannel, %function
 217              	pwmEnableChannel:
 218              	.LFB123:
 219              		.loc 1 174 0
 220              		.cfi_startproc
 221              		@ args = 0, pretend = 0, frame = 0
 222              		@ frame_needed = 0, uses_anonymous_args = 0
 223              	.LVL7:
ARM GAS  /tmp/cc5U6GsV.s 			page 5


 224 0000 08B5     		push	{r3, lr}
 225              		.cfi_def_cfa_offset 8
 226              		.cfi_offset 3, -8
 227              		.cfi_offset 14, -4
 228              	.LBB10:
 229              		.loc 1 179 0
 230 0002 2023     		movs	r3, #32
 231              	@ 179 "/home/marco/SoftwareProjects/st-usb/f9xx/firmware/ext/ChibiOS-RT/os/hal/src/pwm.c" 1
 232 0004 83F31188 		msr     BASEPRI, r3
 233              	@ 0 "" 2
 234              		.thumb
 235              	.LBE10:
 236              		.loc 1 182 0
 237 0008 FFF7FEFF 		bl	pwm_lld_enable_channel
 238              	.LVL8:
 239              	.LBB11:
 240              		.loc 1 183 0
 241 000c 0023     		movs	r3, #0
 242              	@ 183 "/home/marco/SoftwareProjects/st-usb/f9xx/firmware/ext/ChibiOS-RT/os/hal/src/pwm.c" 1
 243 000e 83F31188 		msr     BASEPRI, r3
 244              	@ 0 "" 2
 245              		.thumb
 246 0012 08BD     		pop	{r3, pc}
 247              	.LBE11:
 248              		.cfi_endproc
 249              	.LFE123:
 250              		.size	pwmEnableChannel, .-pwmEnableChannel
 251 0014 AFF30080 		.section	.text.pwmDisableChannel,"ax",%progbits
 251      AFF30080 
 251      AFF30080 
 252              		.align	2
 253              		.p2align 4,,15
 254              		.global	pwmDisableChannel
 255              		.thumb
 256              		.thumb_func
 257              		.type	pwmDisableChannel, %function
 258              	pwmDisableChannel:
 259              	.LFB124:
 260              		.loc 1 200 0
 261              		.cfi_startproc
 262              		@ args = 0, pretend = 0, frame = 0
 263              		@ frame_needed = 0, uses_anonymous_args = 0
 264              	.LVL9:
 265 0000 08B5     		push	{r3, lr}
 266              		.cfi_def_cfa_offset 8
 267              		.cfi_offset 3, -8
 268              		.cfi_offset 14, -4
 269              	.LBB12:
 270              		.loc 1 205 0
 271 0002 2023     		movs	r3, #32
 272              	@ 205 "/home/marco/SoftwareProjects/st-usb/f9xx/firmware/ext/ChibiOS-RT/os/hal/src/pwm.c" 1
 273 0004 83F31188 		msr     BASEPRI, r3
 274              	@ 0 "" 2
 275              		.thumb
 276              	.LBE12:
 277              		.loc 1 208 0
 278 0008 FFF7FEFF 		bl	pwm_lld_disable_channel
ARM GAS  /tmp/cc5U6GsV.s 			page 6


 279              	.LVL10:
 280              	.LBB13:
 281              		.loc 1 209 0
 282 000c 0023     		movs	r3, #0
 283              	@ 209 "/home/marco/SoftwareProjects/st-usb/f9xx/firmware/ext/ChibiOS-RT/os/hal/src/pwm.c" 1
 284 000e 83F31188 		msr     BASEPRI, r3
 285              	@ 0 "" 2
 286              		.thumb
 287 0012 08BD     		pop	{r3, pc}
 288              	.LBE13:
 289              		.cfi_endproc
 290              	.LFE124:
 291              		.size	pwmDisableChannel, .-pwmDisableChannel
 292 0014 AFF30080 		.text
 292      AFF30080 
 292      AFF30080 
 293              	.Letext0:
 294              		.file 2 "/home/marco/SoftwareProjects/st-usb/tools/gcc-arm-none-eabi-4_8-2014q2/arm-none-eabi/incl
 295              		.file 3 "/home/marco/SoftwareProjects/st-usb/tools/gcc-arm-none-eabi-4_8-2014q2/arm-none-eabi/incl
 296              		.file 4 "/home/marco/SoftwareProjects/st-usb/f9xx/firmware/ext/ChibiOS-RT/os/hal/include/pwm.h"
 297              		.file 5 "/home/marco/SoftwareProjects/st-usb/f9xx/firmware/ext/ChibiOS-RT/os/hal/platforms/STM32/T
 298              		.file 6 "/home/marco/SoftwareProjects/st-usb/f9xx/firmware/ext/ChibiOS-RT/os/hal/platforms/STM32/T
 299              		.file 7 "/home/marco/SoftwareProjects/st-usb/f9xx/firmware/ext/ChibiOS-RT/os/ports/common/ARMCMx/C
 300              		.section	.debug_info,"",%progbits
 301              	.Ldebug_info0:
 302 0000 7D060000 		.4byte	0x67d
 303 0004 0400     		.2byte	0x4
 304 0006 00000000 		.4byte	.Ldebug_abbrev0
 305 000a 04       		.byte	0x4
 306 000b 01       		.uleb128 0x1
 307 000c 3C000000 		.4byte	.LASF64
 308 0010 01       		.byte	0x1
 309 0011 6F010000 		.4byte	.LASF65
 310 0015 30000000 		.4byte	.Ldebug_ranges0+0x30
 311 0019 00000000 		.4byte	0
 312 001d 00000000 		.4byte	.Ldebug_line0
 313 0021 02       		.uleb128 0x2
 314 0022 04       		.byte	0x4
 315 0023 05       		.byte	0x5
 316 0024 696E7400 		.ascii	"int\000"
 317 0028 03       		.uleb128 0x3
 318 0029 04       		.byte	0x4
 319 002a 07       		.byte	0x7
 320 002b C7020000 		.4byte	.LASF0
 321 002f 03       		.uleb128 0x3
 322 0030 01       		.byte	0x1
 323 0031 06       		.byte	0x6
 324 0032 9B020000 		.4byte	.LASF1
 325 0036 04       		.uleb128 0x4
 326 0037 27020000 		.4byte	.LASF4
 327 003b 02       		.byte	0x2
 328 003c 1C       		.byte	0x1c
 329 003d 41000000 		.4byte	0x41
 330 0041 03       		.uleb128 0x3
 331 0042 01       		.byte	0x1
 332 0043 08       		.byte	0x8
 333 0044 64020000 		.4byte	.LASF2
ARM GAS  /tmp/cc5U6GsV.s 			page 7


 334 0048 03       		.uleb128 0x3
 335 0049 02       		.byte	0x2
 336 004a 05       		.byte	0x5
 337 004b 29000000 		.4byte	.LASF3
 338 004f 04       		.uleb128 0x4
 339 0050 54010000 		.4byte	.LASF5
 340 0054 02       		.byte	0x2
 341 0055 26       		.byte	0x26
 342 0056 5A000000 		.4byte	0x5a
 343 005a 03       		.uleb128 0x3
 344 005b 02       		.byte	0x2
 345 005c 07       		.byte	0x7
 346 005d E7020000 		.4byte	.LASF6
 347 0061 04       		.uleb128 0x4
 348 0062 60030000 		.4byte	.LASF7
 349 0066 02       		.byte	0x2
 350 0067 37       		.byte	0x37
 351 0068 6C000000 		.4byte	0x6c
 352 006c 03       		.uleb128 0x3
 353 006d 04       		.byte	0x4
 354 006e 05       		.byte	0x5
 355 006f 05020000 		.4byte	.LASF8
 356 0073 04       		.uleb128 0x4
 357 0074 44010000 		.4byte	.LASF9
 358 0078 02       		.byte	0x2
 359 0079 38       		.byte	0x38
 360 007a 7E000000 		.4byte	0x7e
 361 007e 03       		.uleb128 0x3
 362 007f 04       		.byte	0x4
 363 0080 07       		.byte	0x7
 364 0081 48030000 		.4byte	.LASF10
 365 0085 03       		.uleb128 0x3
 366 0086 08       		.byte	0x8
 367 0087 05       		.byte	0x5
 368 0088 F7010000 		.4byte	.LASF11
 369 008c 03       		.uleb128 0x3
 370 008d 08       		.byte	0x8
 371 008e 07       		.byte	0x7
 372 008f A7020000 		.4byte	.LASF12
 373 0093 04       		.uleb128 0x4
 374 0094 CF010000 		.4byte	.LASF13
 375 0098 03       		.byte	0x3
 376 0099 2A       		.byte	0x2a
 377 009a 36000000 		.4byte	0x36
 378 009e 04       		.uleb128 0x4
 379 009f D4020000 		.4byte	.LASF14
 380 00a3 03       		.byte	0x3
 381 00a4 36       		.byte	0x36
 382 00a5 4F000000 		.4byte	0x4f
 383 00a9 04       		.uleb128 0x4
 384 00aa 22030000 		.4byte	.LASF15
 385 00ae 03       		.byte	0x3
 386 00af 41       		.byte	0x41
 387 00b0 61000000 		.4byte	0x61
 388 00b4 04       		.uleb128 0x4
 389 00b5 BE020000 		.4byte	.LASF16
 390 00b9 03       		.byte	0x3
ARM GAS  /tmp/cc5U6GsV.s 			page 8


 391 00ba 42       		.byte	0x42
 392 00bb 73000000 		.4byte	0x73
 393 00bf 03       		.uleb128 0x3
 394 00c0 01       		.byte	0x1
 395 00c1 02       		.byte	0x2
 396 00c2 2A030000 		.4byte	.LASF17
 397 00c6 05       		.uleb128 0x5
 398 00c7 B4000000 		.4byte	0xb4
 399 00cb 03       		.uleb128 0x3
 400 00cc 04       		.byte	0x4
 401 00cd 07       		.byte	0x7
 402 00ce 16010000 		.4byte	.LASF18
 403 00d2 03       		.uleb128 0x3
 404 00d3 01       		.byte	0x1
 405 00d4 08       		.byte	0x8
 406 00d5 07030000 		.4byte	.LASF19
 407 00d9 06       		.uleb128 0x6
 408 00da B4000000 		.4byte	0xb4
 409 00de E9000000 		.4byte	0xe9
 410 00e2 07       		.uleb128 0x7
 411 00e3 CB000000 		.4byte	0xcb
 412 00e7 03       		.byte	0x3
 413 00e8 00       		.byte	0
 414 00e9 05       		.uleb128 0x5
 415 00ea A9000000 		.4byte	0xa9
 416 00ee 08       		.uleb128 0x8
 417 00ef 01       		.byte	0x1
 418 00f0 04       		.byte	0x4
 419 00f1 55       		.byte	0x55
 420 00f2 09010000 		.4byte	0x109
 421 00f6 09       		.uleb128 0x9
 422 00f7 59020000 		.4byte	.LASF20
 423 00fb 00       		.sleb128 0
 424 00fc 09       		.uleb128 0x9
 425 00fd 74030000 		.4byte	.LASF21
 426 0101 01       		.sleb128 1
 427 0102 09       		.uleb128 0x9
 428 0103 6A030000 		.4byte	.LASF22
 429 0107 02       		.sleb128 2
 430 0108 00       		.byte	0
 431 0109 04       		.uleb128 0x4
 432 010a BC030000 		.4byte	.LASF23
 433 010e 04       		.byte	0x4
 434 010f 59       		.byte	0x59
 435 0110 EE000000 		.4byte	0xee
 436 0114 04       		.uleb128 0x4
 437 0115 18030000 		.4byte	.LASF24
 438 0119 04       		.byte	0x4
 439 011a 5E       		.byte	0x5e
 440 011b 1F010000 		.4byte	0x11f
 441 011f 0A       		.uleb128 0xa
 442 0120 18030000 		.4byte	.LASF24
 443 0124 14       		.byte	0x14
 444 0125 05       		.byte	0x5
 445 0126 6F01     		.2byte	0x16f
 446 0128 6E010000 		.4byte	0x16e
 447 012c 0B       		.uleb128 0xb
ARM GAS  /tmp/cc5U6GsV.s 			page 9


 448 012d 17000000 		.4byte	.LASF25
 449 0131 05       		.byte	0x5
 450 0132 7301     		.2byte	0x173
 451 0134 09010000 		.4byte	0x109
 452 0138 00       		.byte	0
 453 0139 0B       		.uleb128 0xb
 454 013a 68010000 		.4byte	.LASF26
 455 013e 05       		.byte	0x5
 456 013f 7701     		.2byte	0x177
 457 0141 82030000 		.4byte	0x382
 458 0145 04       		.byte	0x4
 459 0146 0B       		.uleb128 0xb
 460 0147 20020000 		.4byte	.LASF27
 461 014b 05       		.byte	0x5
 462 014c 7B01     		.2byte	0x17b
 463 014e D2020000 		.4byte	0x2d2
 464 0152 08       		.byte	0x8
 465 0153 0B       		.uleb128 0xb
 466 0154 5A030000 		.4byte	.LASF28
 467 0158 05       		.byte	0x5
 468 0159 8301     		.2byte	0x183
 469 015b B4000000 		.4byte	0xb4
 470 015f 0C       		.byte	0xc
 471 0160 0C       		.uleb128 0xc
 472 0161 74696D00 		.ascii	"tim\000"
 473 0165 05       		.byte	0x5
 474 0166 8701     		.2byte	0x187
 475 0168 8D030000 		.4byte	0x38d
 476 016c 10       		.byte	0x10
 477 016d 00       		.byte	0
 478 016e 04       		.uleb128 0x4
 479 016f C7030000 		.4byte	.LASF29
 480 0173 04       		.byte	0x4
 481 0174 65       		.byte	0x65
 482 0175 79010000 		.4byte	0x179
 483 0179 0D       		.uleb128 0xd
 484 017a 04       		.byte	0x4
 485 017b 7F010000 		.4byte	0x17f
 486 017f 0E       		.uleb128 0xe
 487 0180 8A010000 		.4byte	0x18a
 488 0184 0F       		.uleb128 0xf
 489 0185 8A010000 		.4byte	0x18a
 490 0189 00       		.byte	0
 491 018a 0D       		.uleb128 0xd
 492 018b 04       		.byte	0x4
 493 018c 14010000 		.4byte	0x114
 494 0190 10       		.uleb128 0x10
 495 0191 60       		.byte	0x60
 496 0192 06       		.byte	0x6
 497 0193 9E01     		.2byte	0x19e
 498 0195 A9020000 		.4byte	0x2a9
 499 0199 0C       		.uleb128 0xc
 500 019a 43523100 		.ascii	"CR1\000"
 501 019e 06       		.byte	0x6
 502 019f 9F01     		.2byte	0x19f
 503 01a1 C6000000 		.4byte	0xc6
 504 01a5 00       		.byte	0
ARM GAS  /tmp/cc5U6GsV.s 			page 10


 505 01a6 0C       		.uleb128 0xc
 506 01a7 43523200 		.ascii	"CR2\000"
 507 01ab 06       		.byte	0x6
 508 01ac A001     		.2byte	0x1a0
 509 01ae C6000000 		.4byte	0xc6
 510 01b2 04       		.byte	0x4
 511 01b3 0B       		.uleb128 0xb
 512 01b4 54020000 		.4byte	.LASF30
 513 01b8 06       		.byte	0x6
 514 01b9 A101     		.2byte	0x1a1
 515 01bb C6000000 		.4byte	0xc6
 516 01bf 08       		.byte	0x8
 517 01c0 0B       		.uleb128 0xb
 518 01c1 E2020000 		.4byte	.LASF31
 519 01c5 06       		.byte	0x6
 520 01c6 A201     		.2byte	0x1a2
 521 01c8 C6000000 		.4byte	0xc6
 522 01cc 0C       		.byte	0xc
 523 01cd 0C       		.uleb128 0xc
 524 01ce 535200   		.ascii	"SR\000"
 525 01d1 06       		.byte	0x6
 526 01d2 A301     		.2byte	0x1a3
 527 01d4 C6000000 		.4byte	0xc6
 528 01d8 10       		.byte	0x10
 529 01d9 0C       		.uleb128 0xc
 530 01da 45475200 		.ascii	"EGR\000"
 531 01de 06       		.byte	0x6
 532 01df A401     		.2byte	0x1a4
 533 01e1 C6000000 		.4byte	0xc6
 534 01e5 14       		.byte	0x14
 535 01e6 0B       		.uleb128 0xb
 536 01e7 31020000 		.4byte	.LASF32
 537 01eb 06       		.byte	0x6
 538 01ec A501     		.2byte	0x1a5
 539 01ee C6000000 		.4byte	0xc6
 540 01f2 18       		.byte	0x18
 541 01f3 0B       		.uleb128 0xb
 542 01f4 1D000000 		.4byte	.LASF33
 543 01f8 06       		.byte	0x6
 544 01f9 A601     		.2byte	0x1a6
 545 01fb C6000000 		.4byte	0xc6
 546 01ff 1C       		.byte	0x1c
 547 0200 0B       		.uleb128 0xb
 548 0201 00000000 		.4byte	.LASF34
 549 0205 06       		.byte	0x6
 550 0206 A701     		.2byte	0x1a7
 551 0208 C6000000 		.4byte	0xc6
 552 020c 20       		.byte	0x20
 553 020d 0C       		.uleb128 0xc
 554 020e 434E5400 		.ascii	"CNT\000"
 555 0212 06       		.byte	0x6
 556 0213 A801     		.2byte	0x1a8
 557 0215 C6000000 		.4byte	0xc6
 558 0219 24       		.byte	0x24
 559 021a 0C       		.uleb128 0xc
 560 021b 50534300 		.ascii	"PSC\000"
 561 021f 06       		.byte	0x6
ARM GAS  /tmp/cc5U6GsV.s 			page 11


 562 0220 A901     		.2byte	0x1a9
 563 0222 C6000000 		.4byte	0xc6
 564 0226 28       		.byte	0x28
 565 0227 0C       		.uleb128 0xc
 566 0228 41525200 		.ascii	"ARR\000"
 567 022c 06       		.byte	0x6
 568 022d AA01     		.2byte	0x1aa
 569 022f C6000000 		.4byte	0xc6
 570 0233 2C       		.byte	0x2c
 571 0234 0C       		.uleb128 0xc
 572 0235 52435200 		.ascii	"RCR\000"
 573 0239 06       		.byte	0x6
 574 023a AB01     		.2byte	0x1ab
 575 023c C6000000 		.4byte	0xc6
 576 0240 30       		.byte	0x30
 577 0241 0C       		.uleb128 0xc
 578 0242 43435200 		.ascii	"CCR\000"
 579 0246 06       		.byte	0x6
 580 0247 AC01     		.2byte	0x1ac
 581 0249 A9020000 		.4byte	0x2a9
 582 024d 34       		.byte	0x34
 583 024e 0B       		.uleb128 0xb
 584 024f DD020000 		.4byte	.LASF35
 585 0253 06       		.byte	0x6
 586 0254 AD01     		.2byte	0x1ad
 587 0256 C6000000 		.4byte	0xc6
 588 025a 44       		.byte	0x44
 589 025b 0C       		.uleb128 0xc
 590 025c 44435200 		.ascii	"DCR\000"
 591 0260 06       		.byte	0x6
 592 0261 AE01     		.2byte	0x1ae
 593 0263 C6000000 		.4byte	0xc6
 594 0267 48       		.byte	0x48
 595 0268 0B       		.uleb128 0xb
 596 0269 12000000 		.4byte	.LASF36
 597 026d 06       		.byte	0x6
 598 026e AF01     		.2byte	0x1af
 599 0270 C6000000 		.4byte	0xc6
 600 0274 4C       		.byte	0x4c
 601 0275 0C       		.uleb128 0xc
 602 0276 4F5200   		.ascii	"OR\000"
 603 0279 06       		.byte	0x6
 604 027a B001     		.2byte	0x1b0
 605 027c C6000000 		.4byte	0xc6
 606 0280 50       		.byte	0x50
 607 0281 0B       		.uleb128 0xb
 608 0282 23000000 		.4byte	.LASF37
 609 0286 06       		.byte	0x6
 610 0287 B101     		.2byte	0x1b1
 611 0289 C6000000 		.4byte	0xc6
 612 028d 54       		.byte	0x54
 613 028e 0B       		.uleb128 0xb
 614 028f 16020000 		.4byte	.LASF38
 615 0293 06       		.byte	0x6
 616 0294 B201     		.2byte	0x1b2
 617 0296 C6000000 		.4byte	0xc6
 618 029a 58       		.byte	0x58
ARM GAS  /tmp/cc5U6GsV.s 			page 12


 619 029b 0B       		.uleb128 0xb
 620 029c 1B020000 		.4byte	.LASF39
 621 02a0 06       		.byte	0x6
 622 02a1 B301     		.2byte	0x1b3
 623 02a3 C6000000 		.4byte	0xc6
 624 02a7 5C       		.byte	0x5c
 625 02a8 00       		.byte	0
 626 02a9 05       		.uleb128 0x5
 627 02aa D9000000 		.4byte	0xd9
 628 02ae 11       		.uleb128 0x11
 629 02af 0C030000 		.4byte	.LASF40
 630 02b3 06       		.byte	0x6
 631 02b4 B401     		.2byte	0x1b4
 632 02b6 90010000 		.4byte	0x190
 633 02ba 11       		.uleb128 0x11
 634 02bb A5030000 		.4byte	.LASF41
 635 02bf 05       		.byte	0x5
 636 02c0 2001     		.2byte	0x120
 637 02c2 B4000000 		.4byte	0xb4
 638 02c6 11       		.uleb128 0x11
 639 02c7 37010000 		.4byte	.LASF42
 640 02cb 05       		.byte	0x5
 641 02cc 2501     		.2byte	0x125
 642 02ce 93000000 		.4byte	0x93
 643 02d2 11       		.uleb128 0x11
 644 02d3 33000000 		.4byte	.LASF43
 645 02d7 05       		.byte	0x5
 646 02d8 2A01     		.2byte	0x12a
 647 02da 9E000000 		.4byte	0x9e
 648 02de 10       		.uleb128 0x10
 649 02df 08       		.byte	0x8
 650 02e0 05       		.byte	0x5
 651 02e1 2F01     		.2byte	0x12f
 652 02e3 02030000 		.4byte	0x302
 653 02e7 0B       		.uleb128 0xb
 654 02e8 4F010000 		.4byte	.LASF44
 655 02ec 05       		.byte	0x5
 656 02ed 3301     		.2byte	0x133
 657 02ef BA020000 		.4byte	0x2ba
 658 02f3 00       		.byte	0
 659 02f4 0B       		.uleb128 0xb
 660 02f5 D5030000 		.4byte	.LASF45
 661 02f9 05       		.byte	0x5
 662 02fa 3901     		.2byte	0x139
 663 02fc 6E010000 		.4byte	0x16e
 664 0300 04       		.byte	0x4
 665 0301 00       		.byte	0
 666 0302 11       		.uleb128 0x11
 667 0303 94030000 		.4byte	.LASF46
 668 0307 05       		.byte	0x5
 669 0308 3B01     		.2byte	0x13b
 670 030a DE020000 		.4byte	0x2de
 671 030e 10       		.uleb128 0x10
 672 030f 34       		.byte	0x34
 673 0310 05       		.byte	0x5
 674 0311 4001     		.2byte	0x140
 675 0313 66030000 		.4byte	0x366
ARM GAS  /tmp/cc5U6GsV.s 			page 13


 676 0317 0B       		.uleb128 0xb
 677 0318 8A030000 		.4byte	.LASF47
 678 031c 05       		.byte	0x5
 679 031d 4601     		.2byte	0x146
 680 031f B4000000 		.4byte	0xb4
 681 0323 00       		.byte	0
 682 0324 0B       		.uleb128 0xb
 683 0325 20020000 		.4byte	.LASF27
 684 0329 05       		.byte	0x5
 685 032a 4C01     		.2byte	0x14c
 686 032c D2020000 		.4byte	0x2d2
 687 0330 04       		.byte	0x4
 688 0331 0B       		.uleb128 0xb
 689 0332 D5030000 		.4byte	.LASF45
 690 0336 05       		.byte	0x5
 691 0337 5201     		.2byte	0x152
 692 0339 6E010000 		.4byte	0x16e
 693 033d 08       		.byte	0x8
 694 033e 0B       		.uleb128 0xb
 695 033f 5F010000 		.4byte	.LASF48
 696 0343 05       		.byte	0x5
 697 0344 5601     		.2byte	0x156
 698 0346 66030000 		.4byte	0x366
 699 034a 0C       		.byte	0xc
 700 034b 0C       		.uleb128 0xc
 701 034c 63723200 		.ascii	"cr2\000"
 702 0350 05       		.byte	0x5
 703 0351 5C01     		.2byte	0x15c
 704 0353 B4000000 		.4byte	0xb4
 705 0357 2C       		.byte	0x2c
 706 0358 0B       		.uleb128 0xb
 707 0359 7D030000 		.4byte	.LASF49
 708 035d 05       		.byte	0x5
 709 035e 6901     		.2byte	0x169
 710 0360 B4000000 		.4byte	0xb4
 711 0364 30       		.byte	0x30
 712 0365 00       		.byte	0
 713 0366 06       		.uleb128 0x6
 714 0367 02030000 		.4byte	0x302
 715 036b 76030000 		.4byte	0x376
 716 036f 07       		.uleb128 0x7
 717 0370 CB000000 		.4byte	0xcb
 718 0374 03       		.byte	0x3
 719 0375 00       		.byte	0
 720 0376 11       		.uleb128 0x11
 721 0377 45020000 		.4byte	.LASF50
 722 037b 05       		.byte	0x5
 723 037c 6A01     		.2byte	0x16a
 724 037e 0E030000 		.4byte	0x30e
 725 0382 0D       		.uleb128 0xd
 726 0383 04       		.byte	0x4
 727 0384 88030000 		.4byte	0x388
 728 0388 12       		.uleb128 0x12
 729 0389 76030000 		.4byte	0x376
 730 038d 0D       		.uleb128 0xd
 731 038e 04       		.byte	0x4
 732 038f AE020000 		.4byte	0x2ae
ARM GAS  /tmp/cc5U6GsV.s 			page 14


 733 0393 13       		.uleb128 0x13
 734 0394 0E020000 		.4byte	.LASF51
 735 0398 01       		.byte	0x1
 736 0399 44       		.byte	0x44
 737 039a 00000000 		.4byte	.LFB118
 738 039e 04000000 		.4byte	.LFE118-.LFB118
 739 03a2 01       		.uleb128 0x1
 740 03a3 9C       		.byte	0x9c
 741 03a4 B2030000 		.4byte	0x3b2
 742 03a8 14       		.uleb128 0x14
 743 03a9 04000000 		.4byte	.LVL0
 744 03ad 25060000 		.4byte	0x625
 745 03b1 00       		.byte	0
 746 03b2 13       		.uleb128 0x13
 747 03b3 C1010000 		.4byte	.LASF52
 748 03b7 01       		.byte	0x1
 749 03b8 50       		.byte	0x50
 750 03b9 00000000 		.4byte	.LFB119
 751 03bd 0A000000 		.4byte	.LFE119-.LFB119
 752 03c1 01       		.uleb128 0x1
 753 03c2 9C       		.byte	0x9c
 754 03c3 D5030000 		.4byte	0x3d5
 755 03c7 15       		.uleb128 0x15
 756 03c8 4F020000 		.4byte	.LASF54
 757 03cc 01       		.byte	0x1
 758 03cd 50       		.byte	0x50
 759 03ce 8A010000 		.4byte	0x18a
 760 03d2 01       		.uleb128 0x1
 761 03d3 50       		.byte	0x50
 762 03d4 00       		.byte	0
 763 03d5 13       		.uleb128 0x13
 764 03d6 EE010000 		.4byte	.LASF53
 765 03da 01       		.byte	0x1
 766 03db 63       		.byte	0x63
 767 03dc 00000000 		.4byte	.LFB120
 768 03e0 20000000 		.4byte	.LFE120-.LFB120
 769 03e4 01       		.uleb128 0x1
 770 03e5 9C       		.byte	0x9c
 771 03e6 4B040000 		.4byte	0x44b
 772 03ea 16       		.uleb128 0x16
 773 03eb 4F020000 		.4byte	.LASF54
 774 03ef 01       		.byte	0x1
 775 03f0 63       		.byte	0x63
 776 03f1 8A010000 		.4byte	0x18a
 777 03f5 00000000 		.4byte	.LLST0
 778 03f9 16       		.uleb128 0x16
 779 03fa 68010000 		.4byte	.LASF26
 780 03fe 01       		.byte	0x1
 781 03ff 63       		.byte	0x63
 782 0400 82030000 		.4byte	0x382
 783 0404 1E000000 		.4byte	.LLST1
 784 0408 17       		.uleb128 0x17
 785 0409 00000000 		.4byte	.Ldebug_ranges0+0
 786 040d 1F040000 		.4byte	0x41f
 787 0411 18       		.uleb128 0x18
 788 0412 746D7000 		.ascii	"tmp\000"
 789 0416 01       		.byte	0x1
ARM GAS  /tmp/cc5U6GsV.s 			page 15


 790 0417 67       		.byte	0x67
 791 0418 B4000000 		.4byte	0xb4
 792 041c 01       		.uleb128 0x1
 793 041d 53       		.byte	0x53
 794 041e 00       		.byte	0
 795 041f 19       		.uleb128 0x19
 796 0420 18000000 		.4byte	.LBB4
 797 0424 08000000 		.4byte	.LBE4-.LBB4
 798 0428 3A040000 		.4byte	0x43a
 799 042c 18       		.uleb128 0x18
 800 042d 746D7000 		.ascii	"tmp\000"
 801 0431 01       		.byte	0x1
 802 0432 6E       		.byte	0x6e
 803 0433 B4000000 		.4byte	0xb4
 804 0437 01       		.uleb128 0x1
 805 0438 53       		.byte	0x53
 806 0439 00       		.byte	0
 807 043a 1A       		.uleb128 0x1a
 808 043b 14000000 		.4byte	.LVL3
 809 043f 2D060000 		.4byte	0x62d
 810 0443 1B       		.uleb128 0x1b
 811 0444 01       		.uleb128 0x1
 812 0445 50       		.byte	0x50
 813 0446 02       		.uleb128 0x2
 814 0447 74       		.byte	0x74
 815 0448 00       		.sleb128 0
 816 0449 00       		.byte	0
 817 044a 00       		.byte	0
 818 044b 13       		.uleb128 0x13
 819 044c 82030000 		.4byte	.LASF55
 820 0450 01       		.byte	0x1
 821 0451 78       		.byte	0x78
 822 0452 00000000 		.4byte	.LFB121
 823 0456 1A000000 		.4byte	.LFE121-.LFB121
 824 045a 01       		.uleb128 0x1
 825 045b 9C       		.byte	0x9c
 826 045c B2040000 		.4byte	0x4b2
 827 0460 16       		.uleb128 0x16
 828 0461 4F020000 		.4byte	.LASF54
 829 0465 01       		.byte	0x1
 830 0466 78       		.byte	0x78
 831 0467 8A010000 		.4byte	0x18a
 832 046b 3F000000 		.4byte	.LLST2
 833 046f 17       		.uleb128 0x17
 834 0470 18000000 		.4byte	.Ldebug_ranges0+0x18
 835 0474 86040000 		.4byte	0x486
 836 0478 18       		.uleb128 0x18
 837 0479 746D7000 		.ascii	"tmp\000"
 838 047d 01       		.byte	0x1
 839 047e 7C       		.byte	0x7c
 840 047f B4000000 		.4byte	0xb4
 841 0483 01       		.uleb128 0x1
 842 0484 53       		.byte	0x53
 843 0485 00       		.byte	0
 844 0486 19       		.uleb128 0x19
 845 0487 12000000 		.4byte	.LBB7
 846 048b 08000000 		.4byte	.LBE7-.LBB7
ARM GAS  /tmp/cc5U6GsV.s 			page 16


 847 048f A1040000 		.4byte	0x4a1
 848 0493 18       		.uleb128 0x18
 849 0494 746D7000 		.ascii	"tmp\000"
 850 0498 01       		.byte	0x1
 851 0499 81       		.byte	0x81
 852 049a B4000000 		.4byte	0xb4
 853 049e 01       		.uleb128 0x1
 854 049f 53       		.byte	0x53
 855 04a0 00       		.byte	0
 856 04a1 1A       		.uleb128 0x1a
 857 04a2 0E000000 		.4byte	.LVL5
 858 04a6 3F060000 		.4byte	0x63f
 859 04aa 1B       		.uleb128 0x1b
 860 04ab 01       		.uleb128 0x1
 861 04ac 50       		.byte	0x50
 862 04ad 02       		.uleb128 0x2
 863 04ae 74       		.byte	0x74
 864 04af 00       		.sleb128 0
 865 04b0 00       		.byte	0
 866 04b1 00       		.byte	0
 867 04b2 13       		.uleb128 0x13
 868 04b3 38030000 		.4byte	.LASF56
 869 04b7 01       		.byte	0x1
 870 04b8 93       		.byte	0x93
 871 04b9 00000000 		.4byte	.LFB122
 872 04bd 18000000 		.4byte	.LFE122-.LFB122
 873 04c1 01       		.uleb128 0x1
 874 04c2 9C       		.byte	0x9c
 875 04c3 14050000 		.4byte	0x514
 876 04c7 15       		.uleb128 0x15
 877 04c8 4F020000 		.4byte	.LASF54
 878 04cc 01       		.byte	0x1
 879 04cd 93       		.byte	0x93
 880 04ce 8A010000 		.4byte	0x18a
 881 04d2 01       		.uleb128 0x1
 882 04d3 50       		.byte	0x50
 883 04d4 15       		.uleb128 0x15
 884 04d5 20020000 		.4byte	.LASF27
 885 04d9 01       		.byte	0x1
 886 04da 93       		.byte	0x93
 887 04db D2020000 		.4byte	0x2d2
 888 04df 01       		.uleb128 0x1
 889 04e0 51       		.byte	0x51
 890 04e1 19       		.uleb128 0x19
 891 04e2 00000000 		.4byte	.LBB8
 892 04e6 06000000 		.4byte	.LBE8-.LBB8
 893 04ea FC040000 		.4byte	0x4fc
 894 04ee 18       		.uleb128 0x18
 895 04ef 746D7000 		.ascii	"tmp\000"
 896 04f3 01       		.byte	0x1
 897 04f4 97       		.byte	0x97
 898 04f5 B4000000 		.4byte	0xb4
 899 04f9 01       		.uleb128 0x1
 900 04fa 53       		.byte	0x53
 901 04fb 00       		.byte	0
 902 04fc 1C       		.uleb128 0x1c
 903 04fd 10000000 		.4byte	.LBB9
ARM GAS  /tmp/cc5U6GsV.s 			page 17


 904 0501 08000000 		.4byte	.LBE9-.LBB9
 905 0505 18       		.uleb128 0x18
 906 0506 746D7000 		.ascii	"tmp\000"
 907 050a 01       		.byte	0x1
 908 050b 9B       		.byte	0x9b
 909 050c B4000000 		.4byte	0xb4
 910 0510 01       		.uleb128 0x1
 911 0511 53       		.byte	0x53
 912 0512 00       		.byte	0
 913 0513 00       		.byte	0
 914 0514 13       		.uleb128 0x13
 915 0515 D7010000 		.4byte	.LASF57
 916 0519 01       		.byte	0x1
 917 051a AC       		.byte	0xac
 918 051b 00000000 		.4byte	.LFB123
 919 051f 14000000 		.4byte	.LFE123-.LFB123
 920 0523 01       		.uleb128 0x1
 921 0524 9C       		.byte	0x9c
 922 0525 9E050000 		.4byte	0x59e
 923 0529 16       		.uleb128 0x16
 924 052a 4F020000 		.4byte	.LASF54
 925 052e 01       		.byte	0x1
 926 052f AC       		.byte	0xac
 927 0530 8A010000 		.4byte	0x18a
 928 0534 5D000000 		.4byte	.LLST3
 929 0538 16       		.uleb128 0x16
 930 0539 30030000 		.4byte	.LASF58
 931 053d 01       		.byte	0x1
 932 053e AD       		.byte	0xad
 933 053f C6020000 		.4byte	0x2c6
 934 0543 7E000000 		.4byte	.LLST4
 935 0547 16       		.uleb128 0x16
 936 0548 E8010000 		.4byte	.LASF59
 937 054c 01       		.byte	0x1
 938 054d AE       		.byte	0xae
 939 054e D2020000 		.4byte	0x2d2
 940 0552 9F000000 		.4byte	.LLST5
 941 0556 19       		.uleb128 0x19
 942 0557 02000000 		.4byte	.LBB10
 943 055b 06000000 		.4byte	.LBE10-.LBB10
 944 055f 71050000 		.4byte	0x571
 945 0563 18       		.uleb128 0x18
 946 0564 746D7000 		.ascii	"tmp\000"
 947 0568 01       		.byte	0x1
 948 0569 B3       		.byte	0xb3
 949 056a B4000000 		.4byte	0xb4
 950 056e 01       		.uleb128 0x1
 951 056f 53       		.byte	0x53
 952 0570 00       		.byte	0
 953 0571 19       		.uleb128 0x19
 954 0572 0C000000 		.4byte	.LBB11
 955 0576 08000000 		.4byte	.LBE11-.LBB11
 956 057a 8C050000 		.4byte	0x58c
 957 057e 18       		.uleb128 0x18
 958 057f 746D7000 		.ascii	"tmp\000"
 959 0583 01       		.byte	0x1
 960 0584 B7       		.byte	0xb7
ARM GAS  /tmp/cc5U6GsV.s 			page 18


 961 0585 B4000000 		.4byte	0xb4
 962 0589 01       		.uleb128 0x1
 963 058a 53       		.byte	0x53
 964 058b 00       		.byte	0
 965 058c 1A       		.uleb128 0x1a
 966 058d 0C000000 		.4byte	.LVL8
 967 0591 51060000 		.4byte	0x651
 968 0595 1B       		.uleb128 0x1b
 969 0596 01       		.uleb128 0x1
 970 0597 50       		.byte	0x50
 971 0598 03       		.uleb128 0x3
 972 0599 F3       		.byte	0xf3
 973 059a 01       		.uleb128 0x1
 974 059b 50       		.byte	0x50
 975 059c 00       		.byte	0
 976 059d 00       		.byte	0
 977 059e 13       		.uleb128 0x13
 978 059f 89020000 		.4byte	.LASF60
 979 05a3 01       		.byte	0x1
 980 05a4 C8       		.byte	0xc8
 981 05a5 00000000 		.4byte	.LFB124
 982 05a9 14000000 		.4byte	.LFE124-.LFB124
 983 05ad 01       		.uleb128 0x1
 984 05ae 9C       		.byte	0x9c
 985 05af 19060000 		.4byte	0x619
 986 05b3 16       		.uleb128 0x16
 987 05b4 4F020000 		.4byte	.LASF54
 988 05b8 01       		.byte	0x1
 989 05b9 C8       		.byte	0xc8
 990 05ba 8A010000 		.4byte	0x18a
 991 05be C0000000 		.4byte	.LLST6
 992 05c2 16       		.uleb128 0x16
 993 05c3 30030000 		.4byte	.LASF58
 994 05c7 01       		.byte	0x1
 995 05c8 C8       		.byte	0xc8
 996 05c9 C6020000 		.4byte	0x2c6
 997 05cd E1000000 		.4byte	.LLST7
 998 05d1 19       		.uleb128 0x19
 999 05d2 02000000 		.4byte	.LBB12
 1000 05d6 06000000 		.4byte	.LBE12-.LBB12
 1001 05da EC050000 		.4byte	0x5ec
 1002 05de 18       		.uleb128 0x18
 1003 05df 746D7000 		.ascii	"tmp\000"
 1004 05e3 01       		.byte	0x1
 1005 05e4 CD       		.byte	0xcd
 1006 05e5 B4000000 		.4byte	0xb4
 1007 05e9 01       		.uleb128 0x1
 1008 05ea 53       		.byte	0x53
 1009 05eb 00       		.byte	0
 1010 05ec 19       		.uleb128 0x19
 1011 05ed 0C000000 		.4byte	.LBB13
 1012 05f1 08000000 		.4byte	.LBE13-.LBB13
 1013 05f5 07060000 		.4byte	0x607
 1014 05f9 18       		.uleb128 0x18
 1015 05fa 746D7000 		.ascii	"tmp\000"
 1016 05fe 01       		.byte	0x1
 1017 05ff D1       		.byte	0xd1
ARM GAS  /tmp/cc5U6GsV.s 			page 19


 1018 0600 B4000000 		.4byte	0xb4
 1019 0604 01       		.uleb128 0x1
 1020 0605 53       		.byte	0x53
 1021 0606 00       		.byte	0
 1022 0607 1A       		.uleb128 0x1a
 1023 0608 0C000000 		.4byte	.LVL10
 1024 060c 6D060000 		.4byte	0x66d
 1025 0610 1B       		.uleb128 0x1b
 1026 0611 01       		.uleb128 0x1
 1027 0612 50       		.byte	0x50
 1028 0613 03       		.uleb128 0x3
 1029 0614 F3       		.byte	0xf3
 1030 0615 01       		.uleb128 0x1
 1031 0616 50       		.byte	0x50
 1032 0617 00       		.byte	0
 1033 0618 00       		.byte	0
 1034 0619 1D       		.uleb128 0x1d
 1035 061a AF030000 		.4byte	.LASF66
 1036 061e 07       		.byte	0x7
 1037 061f 9806     		.2byte	0x698
 1038 0621 E9000000 		.4byte	0xe9
 1039 0625 1E       		.uleb128 0x1e
 1040 0626 FA020000 		.4byte	.LASF67
 1041 062a 05       		.byte	0x5
 1042 062b D101     		.2byte	0x1d1
 1043 062d 1F       		.uleb128 0x1f
 1044 062e 37020000 		.4byte	.LASF61
 1045 0632 05       		.byte	0x5
 1046 0633 D201     		.2byte	0x1d2
 1047 0635 3F060000 		.4byte	0x63f
 1048 0639 0F       		.uleb128 0xf
 1049 063a 8A010000 		.4byte	0x18a
 1050 063e 00       		.byte	0
 1051 063f 1F       		.uleb128 0x1f
 1052 0640 05000000 		.4byte	.LASF62
 1053 0644 05       		.byte	0x5
 1054 0645 D301     		.2byte	0x1d3
 1055 0647 51060000 		.4byte	0x651
 1056 064b 0F       		.uleb128 0xf
 1057 064c 8A010000 		.4byte	0x18a
 1058 0650 00       		.byte	0
 1059 0651 1F       		.uleb128 0x1f
 1060 0652 72020000 		.4byte	.LASF63
 1061 0656 05       		.byte	0x5
 1062 0657 D401     		.2byte	0x1d4
 1063 0659 6D060000 		.4byte	0x66d
 1064 065d 0F       		.uleb128 0xf
 1065 065e 8A010000 		.4byte	0x18a
 1066 0662 0F       		.uleb128 0xf
 1067 0663 C6020000 		.4byte	0x2c6
 1068 0667 0F       		.uleb128 0xf
 1069 0668 D2020000 		.4byte	0x2d2
 1070 066c 00       		.byte	0
 1071 066d 20       		.uleb128 0x20
 1072 066e 1F010000 		.4byte	.LASF68
 1073 0672 05       		.byte	0x5
 1074 0673 D701     		.2byte	0x1d7
ARM GAS  /tmp/cc5U6GsV.s 			page 20


 1075 0675 0F       		.uleb128 0xf
 1076 0676 8A010000 		.4byte	0x18a
 1077 067a 0F       		.uleb128 0xf
 1078 067b C6020000 		.4byte	0x2c6
 1079 067f 00       		.byte	0
 1080 0680 00       		.byte	0
 1081              		.section	.debug_abbrev,"",%progbits
 1082              	.Ldebug_abbrev0:
 1083 0000 01       		.uleb128 0x1
 1084 0001 11       		.uleb128 0x11
 1085 0002 01       		.byte	0x1
 1086 0003 25       		.uleb128 0x25
 1087 0004 0E       		.uleb128 0xe
 1088 0005 13       		.uleb128 0x13
 1089 0006 0B       		.uleb128 0xb
 1090 0007 03       		.uleb128 0x3
 1091 0008 0E       		.uleb128 0xe
 1092 0009 55       		.uleb128 0x55
 1093 000a 17       		.uleb128 0x17
 1094 000b 11       		.uleb128 0x11
 1095 000c 01       		.uleb128 0x1
 1096 000d 10       		.uleb128 0x10
 1097 000e 17       		.uleb128 0x17
 1098 000f 00       		.byte	0
 1099 0010 00       		.byte	0
 1100 0011 02       		.uleb128 0x2
 1101 0012 24       		.uleb128 0x24
 1102 0013 00       		.byte	0
 1103 0014 0B       		.uleb128 0xb
 1104 0015 0B       		.uleb128 0xb
 1105 0016 3E       		.uleb128 0x3e
 1106 0017 0B       		.uleb128 0xb
 1107 0018 03       		.uleb128 0x3
 1108 0019 08       		.uleb128 0x8
 1109 001a 00       		.byte	0
 1110 001b 00       		.byte	0
 1111 001c 03       		.uleb128 0x3
 1112 001d 24       		.uleb128 0x24
 1113 001e 00       		.byte	0
 1114 001f 0B       		.uleb128 0xb
 1115 0020 0B       		.uleb128 0xb
 1116 0021 3E       		.uleb128 0x3e
 1117 0022 0B       		.uleb128 0xb
 1118 0023 03       		.uleb128 0x3
 1119 0024 0E       		.uleb128 0xe
 1120 0025 00       		.byte	0
 1121 0026 00       		.byte	0
 1122 0027 04       		.uleb128 0x4
 1123 0028 16       		.uleb128 0x16
 1124 0029 00       		.byte	0
 1125 002a 03       		.uleb128 0x3
 1126 002b 0E       		.uleb128 0xe
 1127 002c 3A       		.uleb128 0x3a
 1128 002d 0B       		.uleb128 0xb
 1129 002e 3B       		.uleb128 0x3b
 1130 002f 0B       		.uleb128 0xb
 1131 0030 49       		.uleb128 0x49
ARM GAS  /tmp/cc5U6GsV.s 			page 21


 1132 0031 13       		.uleb128 0x13
 1133 0032 00       		.byte	0
 1134 0033 00       		.byte	0
 1135 0034 05       		.uleb128 0x5
 1136 0035 35       		.uleb128 0x35
 1137 0036 00       		.byte	0
 1138 0037 49       		.uleb128 0x49
 1139 0038 13       		.uleb128 0x13
 1140 0039 00       		.byte	0
 1141 003a 00       		.byte	0
 1142 003b 06       		.uleb128 0x6
 1143 003c 01       		.uleb128 0x1
 1144 003d 01       		.byte	0x1
 1145 003e 49       		.uleb128 0x49
 1146 003f 13       		.uleb128 0x13
 1147 0040 01       		.uleb128 0x1
 1148 0041 13       		.uleb128 0x13
 1149 0042 00       		.byte	0
 1150 0043 00       		.byte	0
 1151 0044 07       		.uleb128 0x7
 1152 0045 21       		.uleb128 0x21
 1153 0046 00       		.byte	0
 1154 0047 49       		.uleb128 0x49
 1155 0048 13       		.uleb128 0x13
 1156 0049 2F       		.uleb128 0x2f
 1157 004a 0B       		.uleb128 0xb
 1158 004b 00       		.byte	0
 1159 004c 00       		.byte	0
 1160 004d 08       		.uleb128 0x8
 1161 004e 04       		.uleb128 0x4
 1162 004f 01       		.byte	0x1
 1163 0050 0B       		.uleb128 0xb
 1164 0051 0B       		.uleb128 0xb
 1165 0052 3A       		.uleb128 0x3a
 1166 0053 0B       		.uleb128 0xb
 1167 0054 3B       		.uleb128 0x3b
 1168 0055 0B       		.uleb128 0xb
 1169 0056 01       		.uleb128 0x1
 1170 0057 13       		.uleb128 0x13
 1171 0058 00       		.byte	0
 1172 0059 00       		.byte	0
 1173 005a 09       		.uleb128 0x9
 1174 005b 28       		.uleb128 0x28
 1175 005c 00       		.byte	0
 1176 005d 03       		.uleb128 0x3
 1177 005e 0E       		.uleb128 0xe
 1178 005f 1C       		.uleb128 0x1c
 1179 0060 0D       		.uleb128 0xd
 1180 0061 00       		.byte	0
 1181 0062 00       		.byte	0
 1182 0063 0A       		.uleb128 0xa
 1183 0064 13       		.uleb128 0x13
 1184 0065 01       		.byte	0x1
 1185 0066 03       		.uleb128 0x3
 1186 0067 0E       		.uleb128 0xe
 1187 0068 0B       		.uleb128 0xb
 1188 0069 0B       		.uleb128 0xb
ARM GAS  /tmp/cc5U6GsV.s 			page 22


 1189 006a 3A       		.uleb128 0x3a
 1190 006b 0B       		.uleb128 0xb
 1191 006c 3B       		.uleb128 0x3b
 1192 006d 05       		.uleb128 0x5
 1193 006e 01       		.uleb128 0x1
 1194 006f 13       		.uleb128 0x13
 1195 0070 00       		.byte	0
 1196 0071 00       		.byte	0
 1197 0072 0B       		.uleb128 0xb
 1198 0073 0D       		.uleb128 0xd
 1199 0074 00       		.byte	0
 1200 0075 03       		.uleb128 0x3
 1201 0076 0E       		.uleb128 0xe
 1202 0077 3A       		.uleb128 0x3a
 1203 0078 0B       		.uleb128 0xb
 1204 0079 3B       		.uleb128 0x3b
 1205 007a 05       		.uleb128 0x5
 1206 007b 49       		.uleb128 0x49
 1207 007c 13       		.uleb128 0x13
 1208 007d 38       		.uleb128 0x38
 1209 007e 0B       		.uleb128 0xb
 1210 007f 00       		.byte	0
 1211 0080 00       		.byte	0
 1212 0081 0C       		.uleb128 0xc
 1213 0082 0D       		.uleb128 0xd
 1214 0083 00       		.byte	0
 1215 0084 03       		.uleb128 0x3
 1216 0085 08       		.uleb128 0x8
 1217 0086 3A       		.uleb128 0x3a
 1218 0087 0B       		.uleb128 0xb
 1219 0088 3B       		.uleb128 0x3b
 1220 0089 05       		.uleb128 0x5
 1221 008a 49       		.uleb128 0x49
 1222 008b 13       		.uleb128 0x13
 1223 008c 38       		.uleb128 0x38
 1224 008d 0B       		.uleb128 0xb
 1225 008e 00       		.byte	0
 1226 008f 00       		.byte	0
 1227 0090 0D       		.uleb128 0xd
 1228 0091 0F       		.uleb128 0xf
 1229 0092 00       		.byte	0
 1230 0093 0B       		.uleb128 0xb
 1231 0094 0B       		.uleb128 0xb
 1232 0095 49       		.uleb128 0x49
 1233 0096 13       		.uleb128 0x13
 1234 0097 00       		.byte	0
 1235 0098 00       		.byte	0
 1236 0099 0E       		.uleb128 0xe
 1237 009a 15       		.uleb128 0x15
 1238 009b 01       		.byte	0x1
 1239 009c 27       		.uleb128 0x27
 1240 009d 19       		.uleb128 0x19
 1241 009e 01       		.uleb128 0x1
 1242 009f 13       		.uleb128 0x13
 1243 00a0 00       		.byte	0
 1244 00a1 00       		.byte	0
 1245 00a2 0F       		.uleb128 0xf
ARM GAS  /tmp/cc5U6GsV.s 			page 23


 1246 00a3 05       		.uleb128 0x5
 1247 00a4 00       		.byte	0
 1248 00a5 49       		.uleb128 0x49
 1249 00a6 13       		.uleb128 0x13
 1250 00a7 00       		.byte	0
 1251 00a8 00       		.byte	0
 1252 00a9 10       		.uleb128 0x10
 1253 00aa 13       		.uleb128 0x13
 1254 00ab 01       		.byte	0x1
 1255 00ac 0B       		.uleb128 0xb
 1256 00ad 0B       		.uleb128 0xb
 1257 00ae 3A       		.uleb128 0x3a
 1258 00af 0B       		.uleb128 0xb
 1259 00b0 3B       		.uleb128 0x3b
 1260 00b1 05       		.uleb128 0x5
 1261 00b2 01       		.uleb128 0x1
 1262 00b3 13       		.uleb128 0x13
 1263 00b4 00       		.byte	0
 1264 00b5 00       		.byte	0
 1265 00b6 11       		.uleb128 0x11
 1266 00b7 16       		.uleb128 0x16
 1267 00b8 00       		.byte	0
 1268 00b9 03       		.uleb128 0x3
 1269 00ba 0E       		.uleb128 0xe
 1270 00bb 3A       		.uleb128 0x3a
 1271 00bc 0B       		.uleb128 0xb
 1272 00bd 3B       		.uleb128 0x3b
 1273 00be 05       		.uleb128 0x5
 1274 00bf 49       		.uleb128 0x49
 1275 00c0 13       		.uleb128 0x13
 1276 00c1 00       		.byte	0
 1277 00c2 00       		.byte	0
 1278 00c3 12       		.uleb128 0x12
 1279 00c4 26       		.uleb128 0x26
 1280 00c5 00       		.byte	0
 1281 00c6 49       		.uleb128 0x49
 1282 00c7 13       		.uleb128 0x13
 1283 00c8 00       		.byte	0
 1284 00c9 00       		.byte	0
 1285 00ca 13       		.uleb128 0x13
 1286 00cb 2E       		.uleb128 0x2e
 1287 00cc 01       		.byte	0x1
 1288 00cd 3F       		.uleb128 0x3f
 1289 00ce 19       		.uleb128 0x19
 1290 00cf 03       		.uleb128 0x3
 1291 00d0 0E       		.uleb128 0xe
 1292 00d1 3A       		.uleb128 0x3a
 1293 00d2 0B       		.uleb128 0xb
 1294 00d3 3B       		.uleb128 0x3b
 1295 00d4 0B       		.uleb128 0xb
 1296 00d5 27       		.uleb128 0x27
 1297 00d6 19       		.uleb128 0x19
 1298 00d7 11       		.uleb128 0x11
 1299 00d8 01       		.uleb128 0x1
 1300 00d9 12       		.uleb128 0x12
 1301 00da 06       		.uleb128 0x6
 1302 00db 40       		.uleb128 0x40
ARM GAS  /tmp/cc5U6GsV.s 			page 24


 1303 00dc 18       		.uleb128 0x18
 1304 00dd 9742     		.uleb128 0x2117
 1305 00df 19       		.uleb128 0x19
 1306 00e0 01       		.uleb128 0x1
 1307 00e1 13       		.uleb128 0x13
 1308 00e2 00       		.byte	0
 1309 00e3 00       		.byte	0
 1310 00e4 14       		.uleb128 0x14
 1311 00e5 898201   		.uleb128 0x4109
 1312 00e8 00       		.byte	0
 1313 00e9 11       		.uleb128 0x11
 1314 00ea 01       		.uleb128 0x1
 1315 00eb 9542     		.uleb128 0x2115
 1316 00ed 19       		.uleb128 0x19
 1317 00ee 31       		.uleb128 0x31
 1318 00ef 13       		.uleb128 0x13
 1319 00f0 00       		.byte	0
 1320 00f1 00       		.byte	0
 1321 00f2 15       		.uleb128 0x15
 1322 00f3 05       		.uleb128 0x5
 1323 00f4 00       		.byte	0
 1324 00f5 03       		.uleb128 0x3
 1325 00f6 0E       		.uleb128 0xe
 1326 00f7 3A       		.uleb128 0x3a
 1327 00f8 0B       		.uleb128 0xb
 1328 00f9 3B       		.uleb128 0x3b
 1329 00fa 0B       		.uleb128 0xb
 1330 00fb 49       		.uleb128 0x49
 1331 00fc 13       		.uleb128 0x13
 1332 00fd 02       		.uleb128 0x2
 1333 00fe 18       		.uleb128 0x18
 1334 00ff 00       		.byte	0
 1335 0100 00       		.byte	0
 1336 0101 16       		.uleb128 0x16
 1337 0102 05       		.uleb128 0x5
 1338 0103 00       		.byte	0
 1339 0104 03       		.uleb128 0x3
 1340 0105 0E       		.uleb128 0xe
 1341 0106 3A       		.uleb128 0x3a
 1342 0107 0B       		.uleb128 0xb
 1343 0108 3B       		.uleb128 0x3b
 1344 0109 0B       		.uleb128 0xb
 1345 010a 49       		.uleb128 0x49
 1346 010b 13       		.uleb128 0x13
 1347 010c 02       		.uleb128 0x2
 1348 010d 17       		.uleb128 0x17
 1349 010e 00       		.byte	0
 1350 010f 00       		.byte	0
 1351 0110 17       		.uleb128 0x17
 1352 0111 0B       		.uleb128 0xb
 1353 0112 01       		.byte	0x1
 1354 0113 55       		.uleb128 0x55
 1355 0114 17       		.uleb128 0x17
 1356 0115 01       		.uleb128 0x1
 1357 0116 13       		.uleb128 0x13
 1358 0117 00       		.byte	0
 1359 0118 00       		.byte	0
ARM GAS  /tmp/cc5U6GsV.s 			page 25


 1360 0119 18       		.uleb128 0x18
 1361 011a 34       		.uleb128 0x34
 1362 011b 00       		.byte	0
 1363 011c 03       		.uleb128 0x3
 1364 011d 08       		.uleb128 0x8
 1365 011e 3A       		.uleb128 0x3a
 1366 011f 0B       		.uleb128 0xb
 1367 0120 3B       		.uleb128 0x3b
 1368 0121 0B       		.uleb128 0xb
 1369 0122 49       		.uleb128 0x49
 1370 0123 13       		.uleb128 0x13
 1371 0124 02       		.uleb128 0x2
 1372 0125 18       		.uleb128 0x18
 1373 0126 00       		.byte	0
 1374 0127 00       		.byte	0
 1375 0128 19       		.uleb128 0x19
 1376 0129 0B       		.uleb128 0xb
 1377 012a 01       		.byte	0x1
 1378 012b 11       		.uleb128 0x11
 1379 012c 01       		.uleb128 0x1
 1380 012d 12       		.uleb128 0x12
 1381 012e 06       		.uleb128 0x6
 1382 012f 01       		.uleb128 0x1
 1383 0130 13       		.uleb128 0x13
 1384 0131 00       		.byte	0
 1385 0132 00       		.byte	0
 1386 0133 1A       		.uleb128 0x1a
 1387 0134 898201   		.uleb128 0x4109
 1388 0137 01       		.byte	0x1
 1389 0138 11       		.uleb128 0x11
 1390 0139 01       		.uleb128 0x1
 1391 013a 31       		.uleb128 0x31
 1392 013b 13       		.uleb128 0x13
 1393 013c 00       		.byte	0
 1394 013d 00       		.byte	0
 1395 013e 1B       		.uleb128 0x1b
 1396 013f 8A8201   		.uleb128 0x410a
 1397 0142 00       		.byte	0
 1398 0143 02       		.uleb128 0x2
 1399 0144 18       		.uleb128 0x18
 1400 0145 9142     		.uleb128 0x2111
 1401 0147 18       		.uleb128 0x18
 1402 0148 00       		.byte	0
 1403 0149 00       		.byte	0
 1404 014a 1C       		.uleb128 0x1c
 1405 014b 0B       		.uleb128 0xb
 1406 014c 01       		.byte	0x1
 1407 014d 11       		.uleb128 0x11
 1408 014e 01       		.uleb128 0x1
 1409 014f 12       		.uleb128 0x12
 1410 0150 06       		.uleb128 0x6
 1411 0151 00       		.byte	0
 1412 0152 00       		.byte	0
 1413 0153 1D       		.uleb128 0x1d
 1414 0154 34       		.uleb128 0x34
 1415 0155 00       		.byte	0
 1416 0156 03       		.uleb128 0x3
ARM GAS  /tmp/cc5U6GsV.s 			page 26


 1417 0157 0E       		.uleb128 0xe
 1418 0158 3A       		.uleb128 0x3a
 1419 0159 0B       		.uleb128 0xb
 1420 015a 3B       		.uleb128 0x3b
 1421 015b 05       		.uleb128 0x5
 1422 015c 49       		.uleb128 0x49
 1423 015d 13       		.uleb128 0x13
 1424 015e 3F       		.uleb128 0x3f
 1425 015f 19       		.uleb128 0x19
 1426 0160 3C       		.uleb128 0x3c
 1427 0161 19       		.uleb128 0x19
 1428 0162 00       		.byte	0
 1429 0163 00       		.byte	0
 1430 0164 1E       		.uleb128 0x1e
 1431 0165 2E       		.uleb128 0x2e
 1432 0166 00       		.byte	0
 1433 0167 3F       		.uleb128 0x3f
 1434 0168 19       		.uleb128 0x19
 1435 0169 03       		.uleb128 0x3
 1436 016a 0E       		.uleb128 0xe
 1437 016b 3A       		.uleb128 0x3a
 1438 016c 0B       		.uleb128 0xb
 1439 016d 3B       		.uleb128 0x3b
 1440 016e 05       		.uleb128 0x5
 1441 016f 27       		.uleb128 0x27
 1442 0170 19       		.uleb128 0x19
 1443 0171 3C       		.uleb128 0x3c
 1444 0172 19       		.uleb128 0x19
 1445 0173 00       		.byte	0
 1446 0174 00       		.byte	0
 1447 0175 1F       		.uleb128 0x1f
 1448 0176 2E       		.uleb128 0x2e
 1449 0177 01       		.byte	0x1
 1450 0178 3F       		.uleb128 0x3f
 1451 0179 19       		.uleb128 0x19
 1452 017a 03       		.uleb128 0x3
 1453 017b 0E       		.uleb128 0xe
 1454 017c 3A       		.uleb128 0x3a
 1455 017d 0B       		.uleb128 0xb
 1456 017e 3B       		.uleb128 0x3b
 1457 017f 05       		.uleb128 0x5
 1458 0180 27       		.uleb128 0x27
 1459 0181 19       		.uleb128 0x19
 1460 0182 3C       		.uleb128 0x3c
 1461 0183 19       		.uleb128 0x19
 1462 0184 01       		.uleb128 0x1
 1463 0185 13       		.uleb128 0x13
 1464 0186 00       		.byte	0
 1465 0187 00       		.byte	0
 1466 0188 20       		.uleb128 0x20
 1467 0189 2E       		.uleb128 0x2e
 1468 018a 01       		.byte	0x1
 1469 018b 3F       		.uleb128 0x3f
 1470 018c 19       		.uleb128 0x19
 1471 018d 03       		.uleb128 0x3
 1472 018e 0E       		.uleb128 0xe
 1473 018f 3A       		.uleb128 0x3a
ARM GAS  /tmp/cc5U6GsV.s 			page 27


 1474 0190 0B       		.uleb128 0xb
 1475 0191 3B       		.uleb128 0x3b
 1476 0192 05       		.uleb128 0x5
 1477 0193 27       		.uleb128 0x27
 1478 0194 19       		.uleb128 0x19
 1479 0195 3C       		.uleb128 0x3c
 1480 0196 19       		.uleb128 0x19
 1481 0197 00       		.byte	0
 1482 0198 00       		.byte	0
 1483 0199 00       		.byte	0
 1484              		.section	.debug_loc,"",%progbits
 1485              	.Ldebug_loc0:
 1486              	.LLST0:
 1487 0000 00000000 		.4byte	.LVL2
 1488 0004 13000000 		.4byte	.LVL3-1
 1489 0008 0100     		.2byte	0x1
 1490 000a 50       		.byte	0x50
 1491 000b 13000000 		.4byte	.LVL3-1
 1492 000f 20000000 		.4byte	.LFE120
 1493 0013 0100     		.2byte	0x1
 1494 0015 54       		.byte	0x54
 1495 0016 00000000 		.4byte	0
 1496 001a 00000000 		.4byte	0
 1497              	.LLST1:
 1498 001e 00000000 		.4byte	.LVL2
 1499 0022 13000000 		.4byte	.LVL3-1
 1500 0026 0100     		.2byte	0x1
 1501 0028 51       		.byte	0x51
 1502 0029 13000000 		.4byte	.LVL3-1
 1503 002d 20000000 		.4byte	.LFE120
 1504 0031 0400     		.2byte	0x4
 1505 0033 F3       		.byte	0xf3
 1506 0034 01       		.uleb128 0x1
 1507 0035 51       		.byte	0x51
 1508 0036 9F       		.byte	0x9f
 1509 0037 00000000 		.4byte	0
 1510 003b 00000000 		.4byte	0
 1511              	.LLST2:
 1512 003f 00000000 		.4byte	.LVL4
 1513 0043 0D000000 		.4byte	.LVL5-1
 1514 0047 0100     		.2byte	0x1
 1515 0049 50       		.byte	0x50
 1516 004a 0D000000 		.4byte	.LVL5-1
 1517 004e 1A000000 		.4byte	.LFE121
 1518 0052 0100     		.2byte	0x1
 1519 0054 54       		.byte	0x54
 1520 0055 00000000 		.4byte	0
 1521 0059 00000000 		.4byte	0
 1522              	.LLST3:
 1523 005d 00000000 		.4byte	.LVL7
 1524 0061 0B000000 		.4byte	.LVL8-1
 1525 0065 0100     		.2byte	0x1
 1526 0067 50       		.byte	0x50
 1527 0068 0B000000 		.4byte	.LVL8-1
 1528 006c 14000000 		.4byte	.LFE123
 1529 0070 0400     		.2byte	0x4
 1530 0072 F3       		.byte	0xf3
ARM GAS  /tmp/cc5U6GsV.s 			page 28


 1531 0073 01       		.uleb128 0x1
 1532 0074 50       		.byte	0x50
 1533 0075 9F       		.byte	0x9f
 1534 0076 00000000 		.4byte	0
 1535 007a 00000000 		.4byte	0
 1536              	.LLST4:
 1537 007e 00000000 		.4byte	.LVL7
 1538 0082 0B000000 		.4byte	.LVL8-1
 1539 0086 0100     		.2byte	0x1
 1540 0088 51       		.byte	0x51
 1541 0089 0B000000 		.4byte	.LVL8-1
 1542 008d 14000000 		.4byte	.LFE123
 1543 0091 0400     		.2byte	0x4
 1544 0093 F3       		.byte	0xf3
 1545 0094 01       		.uleb128 0x1
 1546 0095 51       		.byte	0x51
 1547 0096 9F       		.byte	0x9f
 1548 0097 00000000 		.4byte	0
 1549 009b 00000000 		.4byte	0
 1550              	.LLST5:
 1551 009f 00000000 		.4byte	.LVL7
 1552 00a3 0B000000 		.4byte	.LVL8-1
 1553 00a7 0100     		.2byte	0x1
 1554 00a9 52       		.byte	0x52
 1555 00aa 0B000000 		.4byte	.LVL8-1
 1556 00ae 14000000 		.4byte	.LFE123
 1557 00b2 0400     		.2byte	0x4
 1558 00b4 F3       		.byte	0xf3
 1559 00b5 01       		.uleb128 0x1
 1560 00b6 52       		.byte	0x52
 1561 00b7 9F       		.byte	0x9f
 1562 00b8 00000000 		.4byte	0
 1563 00bc 00000000 		.4byte	0
 1564              	.LLST6:
 1565 00c0 00000000 		.4byte	.LVL9
 1566 00c4 0B000000 		.4byte	.LVL10-1
 1567 00c8 0100     		.2byte	0x1
 1568 00ca 50       		.byte	0x50
 1569 00cb 0B000000 		.4byte	.LVL10-1
 1570 00cf 14000000 		.4byte	.LFE124
 1571 00d3 0400     		.2byte	0x4
 1572 00d5 F3       		.byte	0xf3
 1573 00d6 01       		.uleb128 0x1
 1574 00d7 50       		.byte	0x50
 1575 00d8 9F       		.byte	0x9f
 1576 00d9 00000000 		.4byte	0
 1577 00dd 00000000 		.4byte	0
 1578              	.LLST7:
 1579 00e1 00000000 		.4byte	.LVL9
 1580 00e5 0B000000 		.4byte	.LVL10-1
 1581 00e9 0100     		.2byte	0x1
 1582 00eb 51       		.byte	0x51
 1583 00ec 0B000000 		.4byte	.LVL10-1
 1584 00f0 14000000 		.4byte	.LFE124
 1585 00f4 0400     		.2byte	0x4
 1586 00f6 F3       		.byte	0xf3
 1587 00f7 01       		.uleb128 0x1
ARM GAS  /tmp/cc5U6GsV.s 			page 29


 1588 00f8 51       		.byte	0x51
 1589 00f9 9F       		.byte	0x9f
 1590 00fa 00000000 		.4byte	0
 1591 00fe 00000000 		.4byte	0
 1592              		.section	.debug_aranges,"",%progbits
 1593 0000 4C000000 		.4byte	0x4c
 1594 0004 0200     		.2byte	0x2
 1595 0006 00000000 		.4byte	.Ldebug_info0
 1596 000a 04       		.byte	0x4
 1597 000b 00       		.byte	0
 1598 000c 0000     		.2byte	0
 1599 000e 0000     		.2byte	0
 1600 0010 00000000 		.4byte	.LFB118
 1601 0014 04000000 		.4byte	.LFE118-.LFB118
 1602 0018 00000000 		.4byte	.LFB119
 1603 001c 0A000000 		.4byte	.LFE119-.LFB119
 1604 0020 00000000 		.4byte	.LFB120
 1605 0024 20000000 		.4byte	.LFE120-.LFB120
 1606 0028 00000000 		.4byte	.LFB121
 1607 002c 1A000000 		.4byte	.LFE121-.LFB121
 1608 0030 00000000 		.4byte	.LFB122
 1609 0034 18000000 		.4byte	.LFE122-.LFB122
 1610 0038 00000000 		.4byte	.LFB123
 1611 003c 14000000 		.4byte	.LFE123-.LFB123
 1612 0040 00000000 		.4byte	.LFB124
 1613 0044 14000000 		.4byte	.LFE124-.LFB124
 1614 0048 00000000 		.4byte	0
 1615 004c 00000000 		.4byte	0
 1616              		.section	.debug_ranges,"",%progbits
 1617              	.Ldebug_ranges0:
 1618 0000 02000000 		.4byte	.LBB2
 1619 0004 04000000 		.4byte	.LBE2
 1620 0008 06000000 		.4byte	.LBB3
 1621 000c 0A000000 		.4byte	.LBE3
 1622 0010 00000000 		.4byte	0
 1623 0014 00000000 		.4byte	0
 1624 0018 02000000 		.4byte	.LBB5
 1625 001c 04000000 		.4byte	.LBE5
 1626 0020 06000000 		.4byte	.LBB6
 1627 0024 0A000000 		.4byte	.LBE6
 1628 0028 00000000 		.4byte	0
 1629 002c 00000000 		.4byte	0
 1630 0030 00000000 		.4byte	.LFB118
 1631 0034 04000000 		.4byte	.LFE118
 1632 0038 00000000 		.4byte	.LFB119
 1633 003c 0A000000 		.4byte	.LFE119
 1634 0040 00000000 		.4byte	.LFB120
 1635 0044 20000000 		.4byte	.LFE120
 1636 0048 00000000 		.4byte	.LFB121
 1637 004c 1A000000 		.4byte	.LFE121
 1638 0050 00000000 		.4byte	.LFB122
 1639 0054 18000000 		.4byte	.LFE122
 1640 0058 00000000 		.4byte	.LFB123
 1641 005c 14000000 		.4byte	.LFE123
 1642 0060 00000000 		.4byte	.LFB124
 1643 0064 14000000 		.4byte	.LFE124
 1644 0068 00000000 		.4byte	0
ARM GAS  /tmp/cc5U6GsV.s 			page 30


 1645 006c 00000000 		.4byte	0
 1646              		.section	.debug_line,"",%progbits
 1647              	.Ldebug_line0:
 1648 0000 23030000 		.section	.debug_str,"MS",%progbits,1
 1648      02009102 
 1648      00000201 
 1648      FB0E0D00 
 1648      01010101 
 1649              	.LASF34:
 1650 0000 43434552 		.ascii	"CCER\000"
 1650      00
 1651              	.LASF62:
 1652 0005 70776D5F 		.ascii	"pwm_lld_stop\000"
 1652      6C6C645F 
 1652      73746F70 
 1652      00
 1653              	.LASF36:
 1654 0012 444D4152 		.ascii	"DMAR\000"
 1654      00
 1655              	.LASF25:
 1656 0017 73746174 		.ascii	"state\000"
 1656      6500
 1657              	.LASF33:
 1658 001d 43434D52 		.ascii	"CCMR2\000"
 1658      3200
 1659              	.LASF37:
 1660 0023 43434D52 		.ascii	"CCMR3\000"
 1660      3300
 1661              	.LASF3:
 1662 0029 73686F72 		.ascii	"short int\000"
 1662      7420696E 
 1662      7400
 1663              	.LASF43:
 1664 0033 70776D63 		.ascii	"pwmcnt_t\000"
 1664      6E745F74 
 1664      00
 1665              	.LASF64:
 1666 003c 474E5520 		.ascii	"GNU C 4.8.4 20140526 (release) [ARM/embedded-4_8-br"
 1666      4320342E 
 1666      382E3420 
 1666      32303134 
 1666      30353236 
 1667 006f 616E6368 		.ascii	"anch revision 211358] -mcpu=cortex-m4 -mno-thumb-in"
 1667      20726576 
 1667      6973696F 
 1667      6E203231 
 1667      31333538 
 1668 00a2 74657277 		.ascii	"terwork -mthumb -ggdb -O2 -fomit-frame-pointer -fal"
 1668      6F726B20 
 1668      2D6D7468 
 1668      756D6220 
 1668      2D676764 
 1669 00d5 69676E2D 		.ascii	"ign-functions=16 -ffunction-sections -fdata-section"
 1669      66756E63 
 1669      74696F6E 
 1669      733D3136 
 1669      202D6666 
ARM GAS  /tmp/cc5U6GsV.s 			page 31


 1670 0108 73202D66 		.ascii	"s -fno-common\000"
 1670      6E6F2D63 
 1670      6F6D6D6F 
 1670      6E00
 1671              	.LASF18:
 1672 0116 73697A65 		.ascii	"sizetype\000"
 1672      74797065 
 1672      00
 1673              	.LASF68:
 1674 011f 70776D5F 		.ascii	"pwm_lld_disable_channel\000"
 1674      6C6C645F 
 1674      64697361 
 1674      626C655F 
 1674      6368616E 
 1675              	.LASF42:
 1676 0137 70776D63 		.ascii	"pwmchannel_t\000"
 1676      68616E6E 
 1676      656C5F74 
 1676      00
 1677              	.LASF9:
 1678 0144 5F5F7569 		.ascii	"__uint32_t\000"
 1678      6E743332 
 1678      5F7400
 1679              	.LASF44:
 1680 014f 6D6F6465 		.ascii	"mode\000"
 1680      00
 1681              	.LASF5:
 1682 0154 5F5F7569 		.ascii	"__uint16_t\000"
 1682      6E743136 
 1682      5F7400
 1683              	.LASF48:
 1684 015f 6368616E 		.ascii	"channels\000"
 1684      6E656C73 
 1684      00
 1685              	.LASF26:
 1686 0168 636F6E66 		.ascii	"config\000"
 1686      696700
 1687              	.LASF65:
 1688 016f 2F686F6D 		.ascii	"/home/marco/SoftwareProjects/st-usb/f9xx/firmware/e"
 1688      652F6D61 
 1688      72636F2F 
 1688      536F6674 
 1688      77617265 
 1689 01a2 78742F43 		.ascii	"xt/ChibiOS-RT/os/hal/src/pwm.c\000"
 1689      68696269 
 1689      4F532D52 
 1689      542F6F73 
 1689      2F68616C 
 1690              	.LASF52:
 1691 01c1 70776D4F 		.ascii	"pwmObjectInit\000"
 1691      626A6563 
 1691      74496E69 
 1691      7400
 1692              	.LASF13:
 1693 01cf 75696E74 		.ascii	"uint8_t\000"
 1693      385F7400 
 1694              	.LASF57:
ARM GAS  /tmp/cc5U6GsV.s 			page 32


 1695 01d7 70776D45 		.ascii	"pwmEnableChannel\000"
 1695      6E61626C 
 1695      65436861 
 1695      6E6E656C 
 1695      00
 1696              	.LASF59:
 1697 01e8 77696474 		.ascii	"width\000"
 1697      6800
 1698              	.LASF53:
 1699 01ee 70776D53 		.ascii	"pwmStart\000"
 1699      74617274 
 1699      00
 1700              	.LASF11:
 1701 01f7 6C6F6E67 		.ascii	"long long int\000"
 1701      206C6F6E 
 1701      6720696E 
 1701      7400
 1702              	.LASF8:
 1703 0205 6C6F6E67 		.ascii	"long int\000"
 1703      20696E74 
 1703      00
 1704              	.LASF51:
 1705 020e 70776D49 		.ascii	"pwmInit\000"
 1705      6E697400 
 1706              	.LASF38:
 1707 0216 43435235 		.ascii	"CCR5\000"
 1707      00
 1708              	.LASF39:
 1709 021b 43435236 		.ascii	"CCR6\000"
 1709      00
 1710              	.LASF27:
 1711 0220 70657269 		.ascii	"period\000"
 1711      6F6400
 1712              	.LASF4:
 1713 0227 5F5F7569 		.ascii	"__uint8_t\000"
 1713      6E74385F 
 1713      7400
 1714              	.LASF32:
 1715 0231 43434D52 		.ascii	"CCMR1\000"
 1715      3100
 1716              	.LASF61:
 1717 0237 70776D5F 		.ascii	"pwm_lld_start\000"
 1717      6C6C645F 
 1717      73746172 
 1717      7400
 1718              	.LASF50:
 1719 0245 50574D43 		.ascii	"PWMConfig\000"
 1719      6F6E6669 
 1719      6700
 1720              	.LASF54:
 1721 024f 70776D70 		.ascii	"pwmp\000"
 1721      00
 1722              	.LASF30:
 1723 0254 534D4352 		.ascii	"SMCR\000"
 1723      00
 1724              	.LASF20:
 1725 0259 50574D5F 		.ascii	"PWM_UNINIT\000"
ARM GAS  /tmp/cc5U6GsV.s 			page 33


 1725      554E494E 
 1725      495400
 1726              	.LASF2:
 1727 0264 756E7369 		.ascii	"unsigned char\000"
 1727      676E6564 
 1727      20636861 
 1727      7200
 1728              	.LASF63:
 1729 0272 70776D5F 		.ascii	"pwm_lld_enable_channel\000"
 1729      6C6C645F 
 1729      656E6162 
 1729      6C655F63 
 1729      68616E6E 
 1730              	.LASF60:
 1731 0289 70776D44 		.ascii	"pwmDisableChannel\000"
 1731      69736162 
 1731      6C654368 
 1731      616E6E65 
 1731      6C00
 1732              	.LASF1:
 1733 029b 7369676E 		.ascii	"signed char\000"
 1733      65642063 
 1733      68617200 
 1734              	.LASF12:
 1735 02a7 6C6F6E67 		.ascii	"long long unsigned int\000"
 1735      206C6F6E 
 1735      6720756E 
 1735      7369676E 
 1735      65642069 
 1736              	.LASF16:
 1737 02be 75696E74 		.ascii	"uint32_t\000"
 1737      33325F74 
 1737      00
 1738              	.LASF0:
 1739 02c7 756E7369 		.ascii	"unsigned int\000"
 1739      676E6564 
 1739      20696E74 
 1739      00
 1740              	.LASF14:
 1741 02d4 75696E74 		.ascii	"uint16_t\000"
 1741      31365F74 
 1741      00
 1742              	.LASF35:
 1743 02dd 42445452 		.ascii	"BDTR\000"
 1743      00
 1744              	.LASF31:
 1745 02e2 44494552 		.ascii	"DIER\000"
 1745      00
 1746              	.LASF6:
 1747 02e7 73686F72 		.ascii	"short unsigned int\000"
 1747      7420756E 
 1747      7369676E 
 1747      65642069 
 1747      6E7400
 1748              	.LASF67:
 1749 02fa 70776D5F 		.ascii	"pwm_lld_init\000"
 1749      6C6C645F 
ARM GAS  /tmp/cc5U6GsV.s 			page 34


 1749      696E6974 
 1749      00
 1750              	.LASF19:
 1751 0307 63686172 		.ascii	"char\000"
 1751      00
 1752              	.LASF40:
 1753 030c 73746D33 		.ascii	"stm32_tim_t\000"
 1753      325F7469 
 1753      6D5F7400 
 1754              	.LASF24:
 1755 0318 50574D44 		.ascii	"PWMDriver\000"
 1755      72697665 
 1755      7200
 1756              	.LASF15:
 1757 0322 696E7433 		.ascii	"int32_t\000"
 1757      325F7400 
 1758              	.LASF17:
 1759 032a 5F426F6F 		.ascii	"_Bool\000"
 1759      6C00
 1760              	.LASF58:
 1761 0330 6368616E 		.ascii	"channel\000"
 1761      6E656C00 
 1762              	.LASF56:
 1763 0338 70776D43 		.ascii	"pwmChangePeriod\000"
 1763      68616E67 
 1763      65506572 
 1763      696F6400 
 1764              	.LASF10:
 1765 0348 6C6F6E67 		.ascii	"long unsigned int\000"
 1765      20756E73 
 1765      69676E65 
 1765      6420696E 
 1765      7400
 1766              	.LASF28:
 1767 035a 636C6F63 		.ascii	"clock\000"
 1767      6B00
 1768              	.LASF7:
 1769 0360 5F5F696E 		.ascii	"__int32_t\000"
 1769      7433325F 
 1769      7400
 1770              	.LASF22:
 1771 036a 50574D5F 		.ascii	"PWM_READY\000"
 1771      52454144 
 1771      5900
 1772              	.LASF21:
 1773 0374 50574D5F 		.ascii	"PWM_STOP\000"
 1773      53544F50 
 1773      00
 1774              	.LASF49:
 1775 037d 64696572 		.ascii	"dier\000"
 1775      00
 1776              	.LASF55:
 1777 0382 70776D53 		.ascii	"pwmStop\000"
 1777      746F7000 
 1778              	.LASF47:
 1779 038a 66726571 		.ascii	"frequency\000"
 1779      75656E63 
ARM GAS  /tmp/cc5U6GsV.s 			page 35


 1779      7900
 1780              	.LASF46:
 1781 0394 50574D43 		.ascii	"PWMChannelConfig\000"
 1781      68616E6E 
 1781      656C436F 
 1781      6E666967 
 1781      00
 1782              	.LASF41:
 1783 03a5 70776D6D 		.ascii	"pwmmode_t\000"
 1783      6F64655F 
 1783      7400
 1784              	.LASF66:
 1785 03af 49544D5F 		.ascii	"ITM_RxBuffer\000"
 1785      52784275 
 1785      66666572 
 1785      00
 1786              	.LASF23:
 1787 03bc 70776D73 		.ascii	"pwmstate_t\000"
 1787      74617465 
 1787      5F7400
 1788              	.LASF29:
 1789 03c7 70776D63 		.ascii	"pwmcallback_t\000"
 1789      616C6C62 
 1789      61636B5F 
 1789      7400
 1790              	.LASF45:
 1791 03d5 63616C6C 		.ascii	"callback\000"
 1791      6261636B 
 1791      00
 1792              		.ident	"GCC: (GNU Tools for ARM Embedded Processors) 4.8.4 20140526 (release) [ARM/embedded-4_8-br
ARM GAS  /tmp/cc5U6GsV.s 			page 36


DEFINED SYMBOLS
                            *ABS*:00000000 pwm.c
     /tmp/cc5U6GsV.s:19     .text.pwmInit:00000000 $t
     /tmp/cc5U6GsV.s:25     .text.pwmInit:00000000 pwmInit
     /tmp/cc5U6GsV.s:40     .text.pwmObjectInit:00000000 $t
     /tmp/cc5U6GsV.s:46     .text.pwmObjectInit:00000000 pwmObjectInit
     /tmp/cc5U6GsV.s:67     .text.pwmStart:00000000 $t
     /tmp/cc5U6GsV.s:73     .text.pwmStart:00000000 pwmStart
     /tmp/cc5U6GsV.s:121    .text.pwmStop:00000000 $t
     /tmp/cc5U6GsV.s:127    .text.pwmStop:00000000 pwmStop
     /tmp/cc5U6GsV.s:170    .text.pwmChangePeriod:00000000 $t
     /tmp/cc5U6GsV.s:176    .text.pwmChangePeriod:00000000 pwmChangePeriod
     /tmp/cc5U6GsV.s:211    .text.pwmEnableChannel:00000000 $t
     /tmp/cc5U6GsV.s:217    .text.pwmEnableChannel:00000000 pwmEnableChannel
     /tmp/cc5U6GsV.s:252    .text.pwmDisableChannel:00000000 $t
     /tmp/cc5U6GsV.s:258    .text.pwmDisableChannel:00000000 pwmDisableChannel
                     .debug_frame:00000010 $d

UNDEFINED SYMBOLS
pwm_lld_init
pwm_lld_start
pwm_lld_stop
pwm_lld_enable_channel
pwm_lld_disable_channel
