ARM GAS  /tmp/cch2knRl.s 			page 1


   1              		.syntax unified
   2              		.cpu cortex-m4
   3              		.fpu softvfp
   4              		.eabi_attribute 20, 1
   5              		.eabi_attribute 21, 1
   6              		.eabi_attribute 23, 3
   7              		.eabi_attribute 24, 1
   8              		.eabi_attribute 25, 1
   9              		.eabi_attribute 26, 1
  10              		.eabi_attribute 30, 2
  11              		.eabi_attribute 34, 1
  12              		.eabi_attribute 18, 4
  13              		.thumb
  14              		.file	"pwm_lld.c"
  15              		.text
  16              	.Ltext0:
  17              		.cfi_sections	.debug_frame
  18              		.section	.text.VectorB8,"ax",%progbits
  19              		.align	2
  20              		.p2align 4,,15
  21              		.global	VectorB8
  22              		.thumb
  23              		.thumb_func
  24              		.type	VectorB8, %function
  25              	VectorB8:
  26              	.LFB119:
  27              		.file 1 "/home/marco/SoftwareProjects/st-usb/f9xx/firmware/ext/ChibiOS-RT/os/hal/platforms/STM32/T
  28              		.loc 1 235 0
  29              		.cfi_startproc
  30              		@ args = 0, pretend = 0, frame = 0
  31              		@ frame_needed = 0, uses_anonymous_args = 0
  32              	.LVL0:
  33 0000 38B5     		push	{r3, r4, r5, lr}
  34              		.cfi_def_cfa_offset 16
  35              		.cfi_offset 3, -16
  36              		.cfi_offset 4, -12
  37              		.cfi_offset 5, -8
  38              		.cfi_offset 14, -4
  39              	.LBB4:
  40              	.LBB5:
  41              		.loc 1 115 0
  42 0002 174D     		ldr	r5, .L27
  43 0004 2B69     		ldr	r3, [r5, #16]
  44 0006 1A69     		ldr	r2, [r3, #16]
  45              	.LVL1:
  46              		.loc 1 116 0
  47 0008 DC68     		ldr	r4, [r3, #12]
  48 000a 1440     		ands	r4, r4, r2
  49 000c A4B2     		uxth	r4, r4
  50              	.LVL2:
  51              		.loc 1 117 0
  52 000e E2B2     		uxtb	r2, r4
  53 0010 D243     		mvns	r2, r2
  54 0012 1A61     		str	r2, [r3, #16]
  55              		.loc 1 118 0
  56 0014 A307     		lsls	r3, r4, #30
  57 0016 1ED4     		bmi	.L23
ARM GAS  /tmp/cch2knRl.s 			page 2


  58              	.L2:
  59              		.loc 1 120 0
  60 0018 6007     		lsls	r0, r4, #29
  61 001a 17D4     		bmi	.L24
  62              	.L3:
  63              		.loc 1 122 0
  64 001c 2107     		lsls	r1, r4, #28
  65 001e 10D4     		bmi	.L25
  66              	.L4:
  67              		.loc 1 124 0
  68 0020 E206     		lsls	r2, r4, #27
  69 0022 09D4     		bmi	.L26
  70              	.L5:
  71              		.loc 1 126 0
  72 0024 E307     		lsls	r3, r4, #31
  73 0026 03D5     		bpl	.L6
  74              		.loc 1 127 0
  75 0028 6B68     		ldr	r3, [r5, #4]
  76 002a 0D48     		ldr	r0, .L27
  77 002c 9B68     		ldr	r3, [r3, #8]
  78 002e 9847     		blx	r3
  79              	.LVL3:
  80              	.L6:
  81              	.LBE5:
  82              	.LBE4:
  83              		.loc 1 242 0
  84 0030 BDE83840 		pop	{r3, r4, r5, lr}
  85              	.LVL4:
  86              		.loc 1 241 0
  87 0034 FFF7FEBF 		b	_port_irq_epilogue
  88              	.LVL5:
  89              	.L26:
  90              	.LBB7:
  91              	.LBB6:
  92              		.loc 1 125 0
  93 0038 6B68     		ldr	r3, [r5, #4]
  94 003a 0948     		ldr	r0, .L27
  95 003c 9B6A     		ldr	r3, [r3, #40]
  96 003e 9847     		blx	r3
  97              	.LVL6:
  98 0040 F0E7     		b	.L5
  99              	.L25:
 100              		.loc 1 123 0
 101 0042 6B68     		ldr	r3, [r5, #4]
 102 0044 0648     		ldr	r0, .L27
 103 0046 1B6A     		ldr	r3, [r3, #32]
 104 0048 9847     		blx	r3
 105              	.LVL7:
 106 004a E9E7     		b	.L4
 107              	.L24:
 108              		.loc 1 121 0
 109 004c 6B68     		ldr	r3, [r5, #4]
 110 004e 0448     		ldr	r0, .L27
 111 0050 9B69     		ldr	r3, [r3, #24]
 112 0052 9847     		blx	r3
 113              	.LVL8:
 114 0054 E2E7     		b	.L3
ARM GAS  /tmp/cch2knRl.s 			page 3


 115              	.L23:
 116              		.loc 1 119 0
 117 0056 6B68     		ldr	r3, [r5, #4]
 118 0058 2846     		mov	r0, r5
 119 005a 1B69     		ldr	r3, [r3, #16]
 120 005c 9847     		blx	r3
 121              	.LVL9:
 122 005e DBE7     		b	.L2
 123              	.L28:
 124              		.align	2
 125              	.L27:
 126 0060 00000000 		.word	.LANCHOR0
 127              	.LBE6:
 128              	.LBE7:
 129              		.cfi_endproc
 130              	.LFE119:
 131              		.size	VectorB8, .-VectorB8
 132 0064 AFF30080 		.section	.text.pwm_lld_init,"ax",%progbits
 132      AFF30080 
 132      AFF30080 
 133              		.align	2
 134              		.p2align 4,,15
 135              		.global	pwm_lld_init
 136              		.thumb
 137              		.thumb_func
 138              		.type	pwm_lld_init, %function
 139              	pwm_lld_init:
 140              	.LFB120:
 141              		.loc 1 345 0
 142              		.cfi_startproc
 143              		@ args = 0, pretend = 0, frame = 0
 144              		@ frame_needed = 0, uses_anonymous_args = 0
 145 0000 10B5     		push	{r4, lr}
 146              		.cfi_def_cfa_offset 8
 147              		.cfi_offset 4, -8
 148              		.cfi_offset 14, -4
 149              		.loc 1 367 0
 150 0002 034C     		ldr	r4, .L30
 151 0004 2046     		mov	r0, r4
 152 0006 FFF7FEFF 		bl	pwmObjectInit
 153              	.LVL10:
 154              		.loc 1 368 0
 155 000a 024B     		ldr	r3, .L30+4
 156 000c 2361     		str	r3, [r4, #16]
 157 000e 10BD     		pop	{r4, pc}
 158              	.L31:
 159              		.align	2
 160              	.L30:
 161 0010 00000000 		.word	.LANCHOR0
 162 0014 00080040 		.word	1073743872
 163              		.cfi_endproc
 164              	.LFE120:
 165              		.size	pwm_lld_init, .-pwm_lld_init
 166 0018 AFF30080 		.section	.text.pwm_lld_start,"ax",%progbits
 166      AFF30080 
 167              		.align	2
 168              		.p2align 4,,15
ARM GAS  /tmp/cch2knRl.s 			page 4


 169              		.global	pwm_lld_start
 170              		.thumb
 171              		.thumb_func
 172              		.type	pwm_lld_start, %function
 173              	pwm_lld_start:
 174              	.LFB121:
 175              		.loc 1 399 0
 176              		.cfi_startproc
 177              		@ args = 0, pretend = 0, frame = 0
 178              		@ frame_needed = 0, uses_anonymous_args = 0
 179              	.LVL11:
 180              		.loc 1 404 0
 181 0000 0378     		ldrb	r3, [r0]	@ zero_extendqisi2
 182 0002 012B     		cmp	r3, #1
 183              		.loc 1 399 0
 184 0004 70B5     		push	{r4, r5, r6, lr}
 185              		.cfi_def_cfa_offset 16
 186              		.cfi_offset 4, -16
 187              		.cfi_offset 5, -12
 188              		.cfi_offset 6, -8
 189              		.cfi_offset 14, -4
 190              		.loc 1 399 0
 191 0006 0446     		mov	r4, r0
 192              		.loc 1 404 0
 193 0008 52D0     		beq	.L59
 194              		.loc 1 492 0
 195 000a 0369     		ldr	r3, [r0, #16]
 196 000c 0022     		movs	r2, #0
 197 000e 1A60     		str	r2, [r3]
 198              		.loc 1 493 0
 199 0010 5A63     		str	r2, [r3, #52]
 200              		.loc 1 494 0
 201 0012 9A63     		str	r2, [r3, #56]
 202              		.loc 1 495 0
 203 0014 DA63     		str	r2, [r3, #60]
 204              		.loc 1 496 0
 205 0016 1A64     		str	r2, [r3, #64]
 206              		.loc 1 497 0
 207 0018 5A62     		str	r2, [r3, #36]
 208              	.LVL12:
 209              	.L35:
 210              		.loc 1 501 0
 211 001a 6268     		ldr	r2, [r4, #4]
 212              	.LVL13:
 213 001c E668     		ldr	r6, [r4, #12]
 214 001e 1068     		ldr	r0, [r2]
 215              		.loc 1 506 0
 216 0020 2589     		ldrh	r5, [r4, #8]
 217              		.loc 1 511 0
 218 0022 D168     		ldr	r1, [r2, #12]
 219              		.loc 1 507 0
 220 0024 D46A     		ldr	r4, [r2, #44]
 221              	.LVL14:
 222              		.loc 1 501 0
 223 0026 B6FBF0F0 		udiv	r0, r6, r0
 224 002a 0138     		subs	r0, r0, #1
 225              	.LVL15:
ARM GAS  /tmp/cch2knRl.s 			page 5


 226              		.loc 1 506 0
 227 002c 013D     		subs	r5, r5, #1
 228              		.loc 1 511 0
 229 002e 01F00F01 		and	r1, r1, #15
 230              		.loc 1 505 0
 231 0032 80B2     		uxth	r0, r0
 232              	.LVL16:
 233              		.loc 1 506 0
 234 0034 ADB2     		uxth	r5, r5
 235              		.loc 1 511 0
 236 0036 0129     		cmp	r1, #1
 237              		.loc 1 505 0
 238 0038 9862     		str	r0, [r3, #40]
 239              	.LVL17:
 240              		.loc 1 506 0
 241 003a DD62     		str	r5, [r3, #44]
 242              		.loc 1 507 0
 243 003c 5C60     		str	r4, [r3, #4]
 244              	.LVL18:
 245              		.loc 1 511 0
 246 003e 03D0     		beq	.L36
 247              		.loc 1 510 0
 248 0040 0229     		cmp	r1, #2
 249 0042 0CBF     		ite	eq
 250 0044 0321     		moveq	r1, #3
 251 0046 0021     		movne	r1, #0
 252              	.L36:
 253              	.LVL19:
 254              		.loc 1 519 0
 255 0048 5069     		ldr	r0, [r2, #20]
 256 004a 00F00F00 		and	r0, r0, #15
 257 004e 0128     		cmp	r0, #1
 258 0050 2BD0     		beq	.L40
 259 0052 0228     		cmp	r0, #2
 260 0054 27D0     		beq	.L60
 261              	.L39:
 262              		.loc 1 527 0
 263 0056 D069     		ldr	r0, [r2, #28]
 264 0058 00F00F00 		and	r0, r0, #15
 265 005c 0128     		cmp	r0, #1
 266 005e 1FD0     		beq	.L43
 267 0060 0228     		cmp	r0, #2
 268 0062 1BD0     		beq	.L61
 269              	.L42:
 270              		.loc 1 535 0
 271 0064 506A     		ldr	r0, [r2, #36]
 272 0066 00F00F00 		and	r0, r0, #15
 273 006a 0128     		cmp	r0, #1
 274 006c 03D0     		beq	.L46
 275 006e 0228     		cmp	r0, #2
 276 0070 03D1     		bne	.L45
 277              		.loc 1 537 0
 278 0072 41F40051 		orr	r1, r1, #8192
 279              	.LVL20:
 280              	.L46:
 281              		.loc 1 539 0
 282 0076 41F48051 		orr	r1, r1, #4096
ARM GAS  /tmp/cch2knRl.s 			page 6


 283              	.LVL21:
 284              	.L45:
 285              		.loc 1 584 0
 286 007a 106B     		ldr	r0, [r2, #48]
 287              		.loc 1 583 0
 288 007c 9268     		ldr	r2, [r2, #8]
 289              		.loc 1 580 0
 290 007e 1962     		str	r1, [r3, #32]
 291              		.loc 1 584 0
 292 0080 20F0FF01 		bic	r1, r0, #255
 293              	.LVL22:
 294              		.loc 1 583 0
 295 0084 002A     		cmp	r2, #0
 296 0086 18BF     		it	ne
 297 0088 41F00101 		orrne	r1, r1, #1
 298              		.loc 1 581 0
 299 008c 0124     		movs	r4, #1
 300              		.loc 1 582 0
 301 008e 0020     		movs	r0, #0
 302              		.loc 1 593 0
 303 0090 8522     		movs	r2, #133
 304              		.loc 1 581 0
 305 0092 5C61     		str	r4, [r3, #20]
 306              	.LVL23:
 307              		.loc 1 582 0
 308 0094 1861     		str	r0, [r3, #16]
 309              		.loc 1 583 0
 310 0096 D960     		str	r1, [r3, #12]
 311              		.loc 1 593 0
 312 0098 1A60     		str	r2, [r3]
 313 009a 70BD     		pop	{r4, r5, r6, pc}
 314              	.LVL24:
 315              	.L61:
 316              		.loc 1 529 0
 317 009c 41F40071 		orr	r1, r1, #512
 318              	.LVL25:
 319              	.L43:
 320              		.loc 1 531 0
 321 00a0 41F48071 		orr	r1, r1, #256
 322              	.LVL26:
 323 00a4 DEE7     		b	.L42
 324              	.L60:
 325              		.loc 1 521 0
 326 00a6 41F02001 		orr	r1, r1, #32
 327              	.LVL27:
 328              	.L40:
 329              		.loc 1 523 0
 330 00aa 41F01001 		orr	r1, r1, #16
 331              	.LVL28:
 332 00ae D2E7     		b	.L39
 333              	.LVL29:
 334              	.L59:
 335              		.loc 1 440 0
 336 00b0 0D4B     		ldr	r3, .L63
 337 00b2 9842     		cmp	r0, r3
 338 00b4 05D0     		beq	.L62
 339              	.LVL30:
ARM GAS  /tmp/cch2knRl.s 			page 7


 340              	.L34:
 341              		.loc 1 485 0
 342 00b6 2369     		ldr	r3, [r4, #16]
 343 00b8 46F66802 		movw	r2, #26728
 344 00bc 9A61     		str	r2, [r3, #24]
 345              		.loc 1 487 0
 346 00be DA61     		str	r2, [r3, #28]
 347 00c0 ABE7     		b	.L35
 348              	.LVL31:
 349              	.L62:
 350              		.loc 1 441 0
 351 00c2 0A4B     		ldr	r3, .L63+4
 352 00c4 1A6C     		ldr	r2, [r3, #64]
 353 00c6 42F00402 		orr	r2, r2, #4
 354 00ca 1A64     		str	r2, [r3, #64]
 355              		.loc 1 442 0
 356 00cc 196A     		ldr	r1, [r3, #32]
 357 00ce 0022     		movs	r2, #0
 358 00d0 41F00401 		orr	r1, r1, #4
 359 00d4 1962     		str	r1, [r3, #32]
 360              		.loc 1 443 0
 361 00d6 1E20     		movs	r0, #30
 362              	.LVL32:
 363              		.loc 1 442 0
 364 00d8 1A62     		str	r2, [r3, #32]
 365              		.loc 1 443 0
 366 00da 7021     		movs	r1, #112
 367 00dc FFF7FEFF 		bl	nvicEnableVector
 368              	.LVL33:
 369              		.loc 1 445 0
 370 00e0 034B     		ldr	r3, .L63+8
 371 00e2 E360     		str	r3, [r4, #12]
 372 00e4 E7E7     		b	.L34
 373              	.L64:
 374 00e6 00BF     		.align	2
 375              	.L63:
 376 00e8 00000000 		.word	.LANCHOR0
 377 00ec 00380240 		.word	1073887232
 378 00f0 00BD0105 		.word	84000000
 379              		.cfi_endproc
 380              	.LFE121:
 381              		.size	pwm_lld_start, .-pwm_lld_start
 382 00f4 AFF30080 		.section	.text.pwm_lld_stop,"ax",%progbits
 382      AFF30080 
 382      AFF30080 
 383              		.align	2
 384              		.p2align 4,,15
 385              		.global	pwm_lld_stop
 386              		.thumb
 387              		.thumb_func
 388              		.type	pwm_lld_stop, %function
 389              	pwm_lld_stop:
 390              	.LFB122:
 391              		.loc 1 604 0
 392              		.cfi_startproc
 393              		@ args = 0, pretend = 0, frame = 0
 394              		@ frame_needed = 0, uses_anonymous_args = 0
ARM GAS  /tmp/cch2knRl.s 			page 8


 395              	.LVL34:
 396 0000 08B5     		push	{r3, lr}
 397              		.cfi_def_cfa_offset 8
 398              		.cfi_offset 3, -8
 399              		.cfi_offset 14, -4
 400              		.loc 1 607 0
 401 0002 0378     		ldrb	r3, [r0]	@ zero_extendqisi2
 402 0004 022B     		cmp	r3, #2
 403 0006 00D0     		beq	.L69
 404              	.LVL35:
 405              	.L65:
 406 0008 08BD     		pop	{r3, pc}
 407              	.LVL36:
 408              	.L69:
 409              		.loc 1 635 0
 410 000a 0849     		ldr	r1, .L70
 411              		.loc 1 608 0
 412 000c 0369     		ldr	r3, [r0, #16]
 413 000e 0022     		movs	r2, #0
 414              		.loc 1 635 0
 415 0010 8842     		cmp	r0, r1
 416              		.loc 1 608 0
 417 0012 1A60     		str	r2, [r3]
 418              		.loc 1 609 0
 419 0014 DA60     		str	r2, [r3, #12]
 420              		.loc 1 610 0
 421 0016 1A61     		str	r2, [r3, #16]
 422              		.loc 1 635 0
 423 0018 F6D1     		bne	.L65
 424              		.loc 1 636 0
 425 001a 1E20     		movs	r0, #30
 426              	.LVL37:
 427 001c FFF7FEFF 		bl	nvicDisableVector
 428              	.LVL38:
 429              		.loc 1 637 0
 430 0020 034B     		ldr	r3, .L70+4
 431 0022 1A6C     		ldr	r2, [r3, #64]
 432 0024 22F00402 		bic	r2, r2, #4
 433 0028 1A64     		str	r2, [r3, #64]
 434 002a EDE7     		b	.L65
 435              	.L71:
 436              		.align	2
 437              	.L70:
 438 002c 00000000 		.word	.LANCHOR0
 439 0030 00380240 		.word	1073887232
 440              		.cfi_endproc
 441              	.LFE122:
 442              		.size	pwm_lld_stop, .-pwm_lld_stop
 443 0034 AFF30080 		.section	.text.pwm_lld_enable_channel,"ax",%progbits
 443      AFF30080 
 443      AFF30080 
 444              		.align	2
 445              		.p2align 4,,15
 446              		.global	pwm_lld_enable_channel
 447              		.thumb
 448              		.thumb_func
 449              		.type	pwm_lld_enable_channel, %function
ARM GAS  /tmp/cch2knRl.s 			page 9


 450              	pwm_lld_enable_channel:
 451              	.LFB123:
 452              		.loc 1 676 0
 453              		.cfi_startproc
 454              		@ args = 0, pretend = 0, frame = 0
 455              		@ frame_needed = 0, uses_anonymous_args = 0
 456              		@ link register save eliminated.
 457              	.LVL39:
 458 0000 10B4     		push	{r4}
 459              		.cfi_def_cfa_offset 4
 460              		.cfi_offset 4, -4
 461              		.loc 1 681 0
 462 0002 4468     		ldr	r4, [r0, #4]
 463              		.loc 1 678 0
 464 0004 0369     		ldr	r3, [r0, #16]
 465              		.loc 1 681 0
 466 0006 04EBC100 		add	r0, r4, r1, lsl #3
 467              	.LVL40:
 468              		.loc 1 678 0
 469 000a 01F10C04 		add	r4, r1, #12
 470              		.loc 1 681 0
 471 000e 0069     		ldr	r0, [r0, #16]
 472              		.loc 1 678 0
 473 0010 03EB8404 		add	r4, r3, r4, lsl #2
 474 0014 6260     		str	r2, [r4, #4]
 475              		.loc 1 681 0
 476 0016 48B1     		cbz	r0, .L72
 477              	.LBB8:
 478              		.loc 1 685 0
 479 0018 0220     		movs	r0, #2
 480              		.loc 1 682 0
 481 001a DA68     		ldr	r2, [r3, #12]
 482              	.LVL41:
 483              		.loc 1 685 0
 484 001c 00FA01F1 		lsl	r1, r0, r1
 485              	.LVL42:
 486 0020 1142     		tst	r1, r2
 487 0022 03D1     		bne	.L72
 488              		.loc 1 686 0
 489 0024 0A43     		orrs	r2, r2, r1
 490              	.LVL43:
 491              		.loc 1 687 0
 492 0026 C943     		mvns	r1, r1
 493              		.loc 1 686 0
 494 0028 DA60     		str	r2, [r3, #12]
 495              		.loc 1 687 0
 496 002a 1961     		str	r1, [r3, #16]
 497              	.L72:
 498              	.LBE8:
 499              		.loc 1 690 0
 500 002c 5DF8044B 		ldr	r4, [sp], #4
 501 0030 7047     		bx	lr
 502              		.cfi_endproc
 503              	.LFE123:
 504              		.size	pwm_lld_enable_channel, .-pwm_lld_enable_channel
 505 0032 00BFAFF3 		.section	.text.pwm_lld_disable_channel,"ax",%progbits
 505      0080AFF3 
ARM GAS  /tmp/cch2knRl.s 			page 10


 505      0080AFF3 
 505      0080
 506              		.align	2
 507              		.p2align 4,,15
 508              		.global	pwm_lld_disable_channel
 509              		.thumb
 510              		.thumb_func
 511              		.type	pwm_lld_disable_channel, %function
 512              	pwm_lld_disable_channel:
 513              	.LFB124:
 514              		.loc 1 704 0
 515              		.cfi_startproc
 516              		@ args = 0, pretend = 0, frame = 0
 517              		@ frame_needed = 0, uses_anonymous_args = 0
 518              		@ link register save eliminated.
 519              	.LVL44:
 520              		.loc 1 706 0
 521 0000 0369     		ldr	r3, [r0, #16]
 522 0002 01F10C02 		add	r2, r1, #12
 523 0006 03EB8202 		add	r2, r3, r2, lsl #2
 524 000a 0020     		movs	r0, #0
 525              	.LVL45:
 526 000c 5060     		str	r0, [r2, #4]
 527              		.loc 1 707 0
 528 000e DA68     		ldr	r2, [r3, #12]
 529 0010 0220     		movs	r0, #2
 530 0012 00FA01F1 		lsl	r1, r0, r1
 531              	.LVL46:
 532 0016 22EA0101 		bic	r1, r2, r1
 533 001a D960     		str	r1, [r3, #12]
 534 001c 7047     		bx	lr
 535              		.cfi_endproc
 536              	.LFE124:
 537              		.size	pwm_lld_disable_channel, .-pwm_lld_disable_channel
 538              		.global	PWMD4
 539 001e 00BF     		.section	.bss.PWMD4,"aw",%nobits
 540              		.align	2
 541              		.set	.LANCHOR0,. + 0
 542              		.type	PWMD4, %object
 543              		.size	PWMD4, 20
 544              	PWMD4:
 545 0000 00000000 		.space	20
 545      00000000 
 545      00000000 
 545      00000000 
 545      00000000 
 546              		.text
 547              	.Letext0:
 548              		.file 2 "/home/marco/SoftwareProjects/st-usb/tools/gcc-arm-none-eabi-4_8-2014q2/arm-none-eabi/incl
 549              		.file 3 "/home/marco/SoftwareProjects/st-usb/tools/gcc-arm-none-eabi-4_8-2014q2/arm-none-eabi/incl
 550              		.file 4 "/home/marco/SoftwareProjects/st-usb/f9xx/firmware/ext/ChibiOS-RT/os/hal/platforms/STM32F4
 551              		.file 5 "/home/marco/SoftwareProjects/st-usb/f9xx/firmware/ext/ChibiOS-RT/os/hal/include/pwm.h"
 552              		.file 6 "/home/marco/SoftwareProjects/st-usb/f9xx/firmware/ext/ChibiOS-RT/os/hal/platforms/STM32/T
 553              		.file 7 "/home/marco/SoftwareProjects/st-usb/f9xx/firmware/ext/ChibiOS-RT/os/hal/platforms/STM32/T
 554              		.file 8 "/home/marco/SoftwareProjects/st-usb/f9xx/firmware/ext/ChibiOS-RT/os/ports/common/ARMCMx/C
 555              		.file 9 "/home/marco/SoftwareProjects/st-usb/f9xx/firmware/ext/ChibiOS-RT/os/ports/common/ARMCMx/n
 556              		.file 10 "/home/marco/SoftwareProjects/st-usb/f9xx/firmware/ext/ChibiOS-RT/os/ports/GCC/ARMCMx/chc
ARM GAS  /tmp/cch2knRl.s 			page 11

