ARM GAS  /tmp/ccyVfuLj.s 			page 1


   1              		.syntax unified
   2              		.cpu cortex-m4
   3              		.fpu softvfp
   4              		.eabi_attribute 20, 1
   5              		.eabi_attribute 21, 1
   6              		.eabi_attribute 23, 3
   7              		.eabi_attribute 24, 1
   8              		.eabi_attribute 25, 1
   9              		.eabi_attribute 26, 1
  10              		.eabi_attribute 30, 2
  11              		.eabi_attribute 34, 1
  12              		.eabi_attribute 18, 4
  13              		.thumb
  14              		.file	"spi_lld.c"
  15              		.text
  16              	.Ltext0:
  17              		.cfi_sections	.debug_frame
  18              		.section	.text.spi_lld_serve_tx_interrupt,"ax",%progbits
  19              		.align	2
  20              		.p2align 4,,15
  21              		.thumb
  22              		.thumb_func
  23              		.type	spi_lld_serve_tx_interrupt, %function
  24              	spi_lld_serve_tx_interrupt:
  25              	.LFB119:
  26              		.file 1 "/home/marco/SoftwareProjects/st-usb/f9xx/firmware/ext/ChibiOS-RT/os/hal/platforms/STM32/S
  27              		.loc 1 159 0
  28              		.cfi_startproc
  29              		@ args = 0, pretend = 0, frame = 0
  30              		@ frame_needed = 0, uses_anonymous_args = 0
  31              		@ link register save eliminated.
  32              	.LVL0:
  33              		.loc 1 164 0
  34 0000 11F00C0F 		tst	r1, #12
  35 0004 00D1     		bne	.L4
  36 0006 7047     		bx	lr
  37              	.L4:
  38              		.loc 1 165 0
  39 0008 FFF7FEBF 		b	port_halt
  40              	.LVL1:
  41              		.cfi_endproc
  42              	.LFE119:
  43              		.size	spi_lld_serve_tx_interrupt, .-spi_lld_serve_tx_interrupt
  44 000c AFF30080 		.section	.text.spi_lld_serve_rx_interrupt,"ax",%progbits
  45              		.align	2
  46              		.p2align 4,,15
  47              		.thumb
  48              		.thumb_func
  49              		.type	spi_lld_serve_rx_interrupt, %function
  50              	spi_lld_serve_rx_interrupt:
  51              	.LFB118:
  52              		.loc 1 133 0
  53              		.cfi_startproc
  54              		@ args = 0, pretend = 0, frame = 0
  55              		@ frame_needed = 0, uses_anonymous_args = 0
  56              	.LVL2:
  57              		.loc 1 137 0
ARM GAS  /tmp/ccyVfuLj.s 			page 2


  58 0000 11F00C0F 		tst	r1, #12
  59              		.loc 1 133 0
  60 0004 38B5     		push	{r3, r4, r5, lr}
  61              		.cfi_def_cfa_offset 16
  62              		.cfi_offset 3, -16
  63              		.cfi_offset 4, -12
  64              		.cfi_offset 5, -8
  65              		.cfi_offset 14, -4
  66              		.loc 1 133 0
  67 0006 0446     		mov	r4, r0
  68              		.loc 1 137 0
  69 0008 37D1     		bne	.L20
  70              	.LVL3:
  71              	.L6:
  72              		.loc 1 145 0
  73 000a 606A     		ldr	r0, [r4, #36]
  74 000c 0268     		ldr	r2, [r0]
  75 000e 1368     		ldr	r3, [r2]
  76 0010 23F01F03 		bic	r3, r3, #31
  77 0014 1360     		str	r3, [r2]
  78              	.L8:
  79              		.loc 1 145 0 is_stmt 0 discriminator 1
  80 0016 1368     		ldr	r3, [r2]
  81 0018 D907     		lsls	r1, r3, #31
  82 001a FCD4     		bmi	.L8
  83              		.loc 1 145 0 discriminator 2
  84 001c 057A     		ldrb	r5, [r0, #8]	@ zero_extendqisi2
  85              		.loc 1 146 0 is_stmt 1 discriminator 2
  86 001e 216A     		ldr	r1, [r4, #32]
  87              		.loc 1 145 0 discriminator 2
  88 0020 4368     		ldr	r3, [r0, #4]
  89              		.loc 1 146 0 discriminator 2
  90 0022 0A68     		ldr	r2, [r1]
  91              		.loc 1 145 0 discriminator 2
  92 0024 3D20     		movs	r0, #61
  93 0026 A840     		lsls	r0, r0, r5
  94 0028 1860     		str	r0, [r3]
  95              		.loc 1 146 0 discriminator 2
  96 002a 1368     		ldr	r3, [r2]
  97 002c 23F01F03 		bic	r3, r3, #31
  98 0030 1360     		str	r3, [r2]
  99              	.L10:
 100              		.loc 1 146 0 is_stmt 0 discriminator 1
 101 0032 1368     		ldr	r3, [r2]
 102 0034 DB07     		lsls	r3, r3, #31
 103 0036 FCD4     		bmi	.L10
 104              		.loc 1 150 0 is_stmt 1 discriminator 2
 105 0038 6368     		ldr	r3, [r4, #4]
 106              		.loc 1 146 0 discriminator 2
 107 003a 087A     		ldrb	r0, [r1, #8]	@ zero_extendqisi2
 108 003c 4A68     		ldr	r2, [r1, #4]
 109              		.loc 1 150 0 discriminator 2
 110 003e 1B68     		ldr	r3, [r3]
 111              		.loc 1 146 0 discriminator 2
 112 0040 3D21     		movs	r1, #61
 113 0042 8140     		lsls	r1, r1, r0
 114 0044 1160     		str	r1, [r2]
ARM GAS  /tmp/ccyVfuLj.s 			page 3


 115              		.loc 1 150 0 discriminator 2
 116 0046 ABB1     		cbz	r3, .L11
 117              		.loc 1 150 0 is_stmt 0 discriminator 1
 118 0048 0422     		movs	r2, #4
 119 004a 2270     		strb	r2, [r4]
 120 004c 2046     		mov	r0, r4
 121 004e 9847     		blx	r3
 122              	.LVL4:
 123 0050 2378     		ldrb	r3, [r4]	@ zero_extendqisi2
 124 0052 042B     		cmp	r3, #4
 125 0054 0ED0     		beq	.L11
 126              	.L12:
 127              	.LBB2:
 128 0056 2023     		movs	r3, #32
 129              	@ 150 "/home/marco/SoftwareProjects/st-usb/f9xx/firmware/ext/ChibiOS-RT/os/hal/platforms/STM32/SPIv
 130 0058 83F31188 		msr     BASEPRI, r3
 131              	@ 0 "" 2
 132              		.thumb
 133              	.LBE2:
 134 005c A368     		ldr	r3, [r4, #8]
 135 005e 2BB1     		cbz	r3, .L13
 136              	.LVL5:
 137              	.LBB3:
 138 0060 0022     		movs	r2, #0
 139 0062 A260     		str	r2, [r4, #8]
 140 0064 1846     		mov	r0, r3
 141 0066 5A62     		str	r2, [r3, #36]
 142 0068 FFF7FEFF 		bl	chSchReadyI
 143              	.LVL6:
 144              	.L13:
 145              	.LBE3:
 146              	.LBB4:
 147              		.loc 1 150 0 discriminator 2
 148 006c 0023     		movs	r3, #0
 149              	@ 150 "/home/marco/SoftwareProjects/st-usb/f9xx/firmware/ext/ChibiOS-RT/os/hal/platforms/STM32/SPIv
 150 006e 83F31188 		msr     BASEPRI, r3
 151              	@ 0 "" 2
 152              		.thumb
 153 0072 38BD     		pop	{r3, r4, r5, pc}
 154              	.LVL7:
 155              	.L11:
 156              	.LBE4:
 157 0074 0223     		movs	r3, #2
 158 0076 2370     		strb	r3, [r4]
 159 0078 EDE7     		b	.L12
 160              	.LVL8:
 161              	.L20:
 162              		.loc 1 138 0 is_stmt 1
 163 007a FFF7FEFF 		bl	port_halt
 164              	.LVL9:
 165 007e C4E7     		b	.L6
 166              		.cfi_endproc
 167              	.LFE118:
 168              		.size	spi_lld_serve_rx_interrupt, .-spi_lld_serve_rx_interrupt
 169              		.section	.text.spi_lld_init,"ax",%progbits
 170              		.align	2
 171              		.p2align 4,,15
ARM GAS  /tmp/ccyVfuLj.s 			page 4


 172              		.global	spi_lld_init
 173              		.thumb
 174              		.thumb_func
 175              		.type	spi_lld_init, %function
 176              	spi_lld_init:
 177              	.LFB120:
 178              		.loc 1 186 0
 179              		.cfi_startproc
 180              		@ args = 0, pretend = 0, frame = 0
 181              		@ frame_needed = 0, uses_anonymous_args = 0
 182 0000 10B5     		push	{r4, lr}
 183              		.cfi_def_cfa_offset 8
 184              		.cfi_offset 4, -8
 185              		.cfi_offset 14, -4
 186              		.loc 1 191 0
 187 0002 0A4C     		ldr	r4, .L22
 188              		.loc 1 188 0
 189 0004 0A4B     		ldr	r3, .L22+4
 190 0006 4FF6FF72 		movw	r2, #65535
 191              		.loc 1 191 0
 192 000a 2046     		mov	r0, r4
 193              		.loc 1 188 0
 194 000c 1A80     		strh	r2, [r3]	@ movhi
 195              		.loc 1 191 0
 196 000e FFF7FEFF 		bl	spiObjectInit
 197              	.LVL10:
 198              		.loc 1 193 0
 199 0012 084B     		ldr	r3, .L22+8
 200              		.loc 1 192 0
 201 0014 0848     		ldr	r0, .L22+12
 202              		.loc 1 195 0
 203 0016 0949     		ldr	r1, .L22+16
 204              		.loc 1 201 0
 205 0018 094A     		ldr	r2, .L22+20
 206              		.loc 1 192 0
 207 001a E061     		str	r0, [r4, #28]
 208              		.loc 1 194 0
 209 001c 03F12400 		add	r0, r3, #36
 210              		.loc 1 193 0
 211 0020 2362     		str	r3, [r4, #32]
 212              		.loc 1 194 0
 213 0022 6062     		str	r0, [r4, #36]
 214              		.loc 1 195 0
 215 0024 A162     		str	r1, [r4, #40]
 216              		.loc 1 201 0
 217 0026 E262     		str	r2, [r4, #44]
 218 0028 10BD     		pop	{r4, pc}
 219              	.L23:
 220 002a 00BF     		.align	2
 221              	.L22:
 222 002c 00000000 		.word	.LANCHOR1
 223 0030 00000000 		.word	.LANCHOR0
 224 0034 60000000 		.word	_stm32_dma_streams+96
 225 0038 00300140 		.word	1073819648
 226 003c 16000106 		.word	100728854
 227 0040 46000106 		.word	100728902
 228              		.cfi_endproc
ARM GAS  /tmp/ccyVfuLj.s 			page 5


 229              	.LFE120:
 230              		.size	spi_lld_init, .-spi_lld_init
 231 0044 AFF30080 		.section	.text.spi_lld_start,"ax",%progbits
 231      AFF30080 
 231      AFF30080 
 232              		.align	2
 233              		.p2align 4,,15
 234              		.global	spi_lld_start
 235              		.thumb
 236              		.thumb_func
 237              		.type	spi_lld_start, %function
 238              	spi_lld_start:
 239              	.LFB121:
 240              		.loc 1 306 0
 241              		.cfi_startproc
 242              		@ args = 0, pretend = 0, frame = 0
 243              		@ frame_needed = 0, uses_anonymous_args = 0
 244              	.LVL11:
 245              		.loc 1 309 0
 246 0000 0378     		ldrb	r3, [r0]	@ zero_extendqisi2
 247 0002 012B     		cmp	r3, #1
 248              		.loc 1 306 0
 249 0004 10B5     		push	{r4, lr}
 250              		.cfi_def_cfa_offset 8
 251              		.cfi_offset 4, -8
 252              		.cfi_offset 14, -4
 253              		.loc 1 306 0
 254 0006 0446     		mov	r4, r0
 255              		.loc 1 309 0
 256 0008 1ED0     		beq	.L30
 257 000a C369     		ldr	r3, [r0, #28]
 258              	.LVL12:
 259              	.L25:
 260              		.loc 1 413 0
 261 000c 6268     		ldr	r2, [r4, #4]
 262              		.loc 1 416 0
 263 000e A06A     		ldr	r0, [r4, #40]
 264              		.loc 1 413 0
 265 0010 5289     		ldrh	r2, [r2, #10]
 266              		.loc 1 418 0
 267 0012 E16A     		ldr	r1, [r4, #44]
 268              		.loc 1 416 0
 269 0014 20F4F040 		bic	r0, r0, #30720
 270              		.loc 1 418 0
 271 0018 21F4F041 		bic	r1, r1, #30720
 272              		.loc 1 413 0
 273 001c 12F4006F 		tst	r2, #2048
 274              		.loc 1 423 0
 275 0020 1CBF     		itt	ne
 276 0022 40F42050 		orrne	r0, r0, #10240
 277              		.loc 1 425 0
 278 0026 41F42051 		orrne	r1, r1, #10240
 279              		.loc 1 422 0
 280 002a A062     		str	r0, [r4, #40]
 281              		.loc 1 424 0
 282 002c E162     		str	r1, [r4, #44]
 283              		.loc 1 429 0
ARM GAS  /tmp/ccyVfuLj.s 			page 6


 284 002e 42F44172 		orr	r2, r2, #772
 285              		.loc 1 428 0
 286 0032 0020     		movs	r0, #0
 287              		.loc 1 431 0
 288 0034 0721     		movs	r1, #7
 289              		.loc 1 428 0
 290 0036 1880     		strh	r0, [r3]	@ movhi
 291              		.loc 1 429 0
 292 0038 1A80     		strh	r2, [r3]	@ movhi
 293              		.loc 1 431 0
 294 003a 9980     		strh	r1, [r3, #4]	@ movhi
 295              		.loc 1 432 0
 296 003c 1A88     		ldrh	r2, [r3]
 297 003e 92B2     		uxth	r2, r2
 298 0040 42F04002 		orr	r2, r2, #64
 299 0044 1A80     		strh	r2, [r3]	@ movhi
 300 0046 10BD     		pop	{r4, pc}
 301              	.LVL13:
 302              	.L30:
 303              		.loc 1 311 0
 304 0048 0F4B     		ldr	r3, .L33
 305 004a 9842     		cmp	r0, r3
 306 004c 09D0     		beq	.L32
 307              	.LVL14:
 308              	.L26:
 309              		.loc 1 408 0
 310 004e 216A     		ldr	r1, [r4, #32]
 311              		.loc 1 409 0
 312 0050 626A     		ldr	r2, [r4, #36]
 313              		.loc 1 408 0
 314 0052 E369     		ldr	r3, [r4, #28]
 315 0054 0868     		ldr	r0, [r1]
 316              		.loc 1 409 0
 317 0056 1168     		ldr	r1, [r2]
 318              		.loc 1 408 0
 319 0058 03F10C02 		add	r2, r3, #12
 320 005c 8260     		str	r2, [r0, #8]
 321              		.loc 1 409 0
 322 005e 8A60     		str	r2, [r1, #8]
 323 0060 D4E7     		b	.L25
 324              	.LVL15:
 325              	.L32:
 326              	.LBB5:
 327              		.loc 1 313 0
 328 0062 0A4A     		ldr	r2, .L33+4
 329 0064 006A     		ldr	r0, [r0, #32]
 330              	.LVL16:
 331 0066 0A21     		movs	r1, #10
 332 0068 2346     		mov	r3, r4
 333 006a FFF7FEFF 		bl	dmaStreamAllocate
 334              	.LVL17:
 335              		.loc 1 318 0
 336 006e 084A     		ldr	r2, .L33+8
 337 0070 606A     		ldr	r0, [r4, #36]
 338 0072 2346     		mov	r3, r4
 339 0074 0A21     		movs	r1, #10
 340 0076 FFF7FEFF 		bl	dmaStreamAllocate
ARM GAS  /tmp/ccyVfuLj.s 			page 7


 341              	.LVL18:
 342              		.loc 1 323 0
 343 007a 064B     		ldr	r3, .L33+12
 344 007c 5A6C     		ldr	r2, [r3, #68]
 345 007e 42F48052 		orr	r2, r2, #4096
 346 0082 5A64     		str	r2, [r3, #68]
 347 0084 E3E7     		b	.L26
 348              	.L34:
 349 0086 00BF     		.align	2
 350              	.L33:
 351 0088 00000000 		.word	.LANCHOR1
 352 008c 00000000 		.word	spi_lld_serve_rx_interrupt
 353 0090 00000000 		.word	spi_lld_serve_tx_interrupt
 354 0094 00380240 		.word	1073887232
 355              	.LBE5:
 356              		.cfi_endproc
 357              	.LFE121:
 358              		.size	spi_lld_start, .-spi_lld_start
 359 0098 AFF30080 		.section	.text.spi_lld_stop,"ax",%progbits
 359      AFF30080 
 360              		.align	2
 361              		.p2align 4,,15
 362              		.global	spi_lld_stop
 363              		.thumb
 364              		.thumb_func
 365              		.type	spi_lld_stop, %function
 366              	spi_lld_stop:
 367              	.LFB122:
 368              		.loc 1 442 0
 369              		.cfi_startproc
 370              		@ args = 0, pretend = 0, frame = 0
 371              		@ frame_needed = 0, uses_anonymous_args = 0
 372              	.LVL19:
 373              		.loc 1 445 0
 374 0000 0378     		ldrb	r3, [r0]	@ zero_extendqisi2
 375 0002 022B     		cmp	r3, #2
 376              		.loc 1 442 0
 377 0004 10B5     		push	{r4, lr}
 378              		.cfi_def_cfa_offset 8
 379              		.cfi_offset 4, -8
 380              		.cfi_offset 14, -4
 381              		.loc 1 442 0
 382 0006 0446     		mov	r4, r0
 383              		.loc 1 445 0
 384 0008 00D0     		beq	.L39
 385              	.LVL20:
 386              	.L35:
 387 000a 10BD     		pop	{r4, pc}
 388              	.LVL21:
 389              	.L39:
 390              		.loc 1 448 0
 391 000c C369     		ldr	r3, [r0, #28]
 392              		.loc 1 450 0
 393 000e 006A     		ldr	r0, [r0, #32]
 394              	.LVL22:
 395              		.loc 1 448 0
 396 0010 0022     		movs	r2, #0
ARM GAS  /tmp/ccyVfuLj.s 			page 8


 397 0012 1A80     		strh	r2, [r3]	@ movhi
 398              		.loc 1 449 0
 399 0014 9A80     		strh	r2, [r3, #4]	@ movhi
 400              		.loc 1 450 0
 401 0016 FFF7FEFF 		bl	dmaStreamRelease
 402              	.LVL23:
 403              		.loc 1 451 0
 404 001a 606A     		ldr	r0, [r4, #36]
 405 001c FFF7FEFF 		bl	dmaStreamRelease
 406              	.LVL24:
 407              		.loc 1 454 0
 408 0020 044B     		ldr	r3, .L40
 409 0022 9C42     		cmp	r4, r3
 410 0024 F1D1     		bne	.L35
 411              		.loc 1 455 0
 412 0026 044B     		ldr	r3, .L40+4
 413 0028 5A6C     		ldr	r2, [r3, #68]
 414 002a 22F48052 		bic	r2, r2, #4096
 415 002e 5A64     		str	r2, [r3, #68]
 416 0030 EBE7     		b	.L35
 417              	.L41:
 418 0032 00BF     		.align	2
 419              	.L40:
 420 0034 00000000 		.word	.LANCHOR1
 421 0038 00380240 		.word	1073887232
 422              		.cfi_endproc
 423              	.LFE122:
 424              		.size	spi_lld_stop, .-spi_lld_stop
 425 003c AFF30080 		.section	.text.spi_lld_select,"ax",%progbits
 426              		.align	2
 427              		.p2align 4,,15
 428              		.global	spi_lld_select
 429              		.thumb
 430              		.thumb_func
 431              		.type	spi_lld_select, %function
 432              	spi_lld_select:
 433              	.LFB123:
 434              		.loc 1 487 0
 435              		.cfi_startproc
 436              		@ args = 0, pretend = 0, frame = 0
 437              		@ frame_needed = 0, uses_anonymous_args = 0
 438              		@ link register save eliminated.
 439              	.LVL25:
 440              		.loc 1 489 0
 441 0000 4368     		ldr	r3, [r0, #4]
 442 0002 1A89     		ldrh	r2, [r3, #8]
 443 0004 5B68     		ldr	r3, [r3, #4]
 444 0006 0121     		movs	r1, #1
 445 0008 01FA02F2 		lsl	r2, r1, r2
 446 000c 92B2     		uxth	r2, r2
 447 000e 5A83     		strh	r2, [r3, #26]	@ movhi
 448 0010 7047     		bx	lr
 449              		.cfi_endproc
 450              	.LFE123:
 451              		.size	spi_lld_select, .-spi_lld_select
 452 0012 00BFAFF3 		.section	.text.spi_lld_unselect,"ax",%progbits
 452      0080AFF3 
ARM GAS  /tmp/ccyVfuLj.s 			page 9


 452      0080AFF3 
 452      0080
 453              		.align	2
 454              		.p2align 4,,15
 455              		.global	spi_lld_unselect
 456              		.thumb
 457              		.thumb_func
 458              		.type	spi_lld_unselect, %function
 459              	spi_lld_unselect:
 460              	.LFB124:
 461              		.loc 1 500 0
 462              		.cfi_startproc
 463              		@ args = 0, pretend = 0, frame = 0
 464              		@ frame_needed = 0, uses_anonymous_args = 0
 465              		@ link register save eliminated.
 466              	.LVL26:
 467              		.loc 1 502 0
 468 0000 4368     		ldr	r3, [r0, #4]
 469 0002 1A89     		ldrh	r2, [r3, #8]
 470 0004 5B68     		ldr	r3, [r3, #4]
 471 0006 0121     		movs	r1, #1
 472 0008 01FA02F2 		lsl	r2, r1, r2
 473 000c 92B2     		uxth	r2, r2
 474 000e 1A83     		strh	r2, [r3, #24]	@ movhi
 475 0010 7047     		bx	lr
 476              		.cfi_endproc
 477              	.LFE124:
 478              		.size	spi_lld_unselect, .-spi_lld_unselect
 479 0012 00BFAFF3 		.section	.text.spi_lld_ignore,"ax",%progbits
 479      0080AFF3 
 479      0080AFF3 
 479      0080
 480              		.align	2
 481              		.p2align 4,,15
 482              		.global	spi_lld_ignore
 483              		.thumb
 484              		.thumb_func
 485              		.type	spi_lld_ignore, %function
 486              	spi_lld_ignore:
 487              	.LFB125:
 488              		.loc 1 516 0
 489              		.cfi_startproc
 490              		@ args = 0, pretend = 0, frame = 0
 491              		@ frame_needed = 0, uses_anonymous_args = 0
 492              		@ link register save eliminated.
 493              	.LVL27:
 494              		.loc 1 518 0
 495 0000 026A     		ldr	r2, [r0, #32]
 496              		.loc 1 522 0
 497 0002 436A     		ldr	r3, [r0, #36]
 498              		.loc 1 518 0
 499 0004 1268     		ldr	r2, [r2]
 500              		.loc 1 522 0
 501 0006 1B68     		ldr	r3, [r3]
 502              		.loc 1 516 0
 503 0008 70B4     		push	{r4, r5, r6}
 504              		.cfi_def_cfa_offset 12
ARM GAS  /tmp/ccyVfuLj.s 			page 10


 505              		.cfi_offset 4, -12
 506              		.cfi_offset 5, -8
 507              		.cfi_offset 6, -4
 508              		.loc 1 520 0
 509 000a 856A     		ldr	r5, [r0, #40]
 510              		.loc 1 518 0
 511 000c 094E     		ldr	r6, .L45
 512              		.loc 1 524 0
 513 000e C06A     		ldr	r0, [r0, #44]
 514              	.LVL28:
 515              		.loc 1 522 0
 516 0010 094C     		ldr	r4, .L45+4
 517              		.loc 1 518 0
 518 0012 D660     		str	r6, [r2, #12]
 519              		.loc 1 519 0
 520 0014 5160     		str	r1, [r2, #4]
 521              		.loc 1 520 0
 522 0016 1560     		str	r5, [r2]
 523              		.loc 1 522 0
 524 0018 DC60     		str	r4, [r3, #12]
 525              		.loc 1 523 0
 526 001a 5960     		str	r1, [r3, #4]
 527              		.loc 1 524 0
 528 001c 1860     		str	r0, [r3]
 529              		.loc 1 526 0
 530 001e 1168     		ldr	r1, [r2]
 531              	.LVL29:
 532 0020 41F00101 		orr	r1, r1, #1
 533 0024 1160     		str	r1, [r2]
 534              		.loc 1 527 0
 535 0026 1A68     		ldr	r2, [r3]
 536 0028 42F00102 		orr	r2, r2, #1
 537 002c 1A60     		str	r2, [r3]
 538              		.loc 1 528 0
 539 002e 70BC     		pop	{r4, r5, r6}
 540 0030 7047     		bx	lr
 541              	.L46:
 542 0032 00BF     		.align	2
 543              	.L45:
 544 0034 00000000 		.word	.LANCHOR2
 545 0038 00000000 		.word	.LANCHOR0
 546              		.cfi_endproc
 547              	.LFE125:
 548              		.size	spi_lld_ignore, .-spi_lld_ignore
 549 003c AFF30080 		.section	.text.spi_lld_exchange,"ax",%progbits
 550              		.align	2
 551              		.p2align 4,,15
 552              		.global	spi_lld_exchange
 553              		.thumb
 554              		.thumb_func
 555              		.type	spi_lld_exchange, %function
 556              	spi_lld_exchange:
 557              	.LFB126:
 558              		.loc 1 546 0
 559              		.cfi_startproc
 560              		@ args = 0, pretend = 0, frame = 0
 561              		@ frame_needed = 0, uses_anonymous_args = 0
ARM GAS  /tmp/ccyVfuLj.s 			page 11


 562              		@ link register save eliminated.
 563              	.LVL30:
 564 0000 F0B4     		push	{r4, r5, r6, r7}
 565              		.cfi_def_cfa_offset 16
 566              		.cfi_offset 4, -16
 567              		.cfi_offset 5, -12
 568              		.cfi_offset 6, -8
 569              		.cfi_offset 7, -4
 570              		.loc 1 548 0
 571 0002 046A     		ldr	r4, [r0, #32]
 572              		.loc 1 552 0
 573 0004 476A     		ldr	r7, [r0, #36]
 574              		.loc 1 550 0
 575 0006 866A     		ldr	r6, [r0, #40]
 576              		.loc 1 554 0
 577 0008 C56A     		ldr	r5, [r0, #44]
 578              		.loc 1 548 0
 579 000a 2468     		ldr	r4, [r4]
 580              		.loc 1 552 0
 581 000c 3868     		ldr	r0, [r7]
 582              	.LVL31:
 583              		.loc 1 548 0
 584 000e E360     		str	r3, [r4, #12]
 585              		.loc 1 550 0
 586 0010 46F48066 		orr	r6, r6, #1024
 587              		.loc 1 554 0
 588 0014 45F48065 		orr	r5, r5, #1024
 589              		.loc 1 549 0
 590 0018 6160     		str	r1, [r4, #4]
 591              		.loc 1 550 0
 592 001a 2660     		str	r6, [r4]
 593              		.loc 1 552 0
 594 001c C260     		str	r2, [r0, #12]
 595              		.loc 1 553 0
 596 001e 4160     		str	r1, [r0, #4]
 597              		.loc 1 554 0
 598 0020 0560     		str	r5, [r0]
 599              		.loc 1 556 0
 600 0022 2368     		ldr	r3, [r4]
 601              	.LVL32:
 602 0024 43F00103 		orr	r3, r3, #1
 603 0028 2360     		str	r3, [r4]
 604              		.loc 1 557 0
 605 002a 0368     		ldr	r3, [r0]
 606 002c 43F00103 		orr	r3, r3, #1
 607 0030 0360     		str	r3, [r0]
 608              		.loc 1 558 0
 609 0032 F0BC     		pop	{r4, r5, r6, r7}
 610 0034 7047     		bx	lr
 611              		.cfi_endproc
 612              	.LFE126:
 613              		.size	spi_lld_exchange, .-spi_lld_exchange
 614 0036 00BFAFF3 		.section	.text.spi_lld_send,"ax",%progbits
 614      0080AFF3 
 614      0080
 615              		.align	2
 616              		.p2align 4,,15
ARM GAS  /tmp/ccyVfuLj.s 			page 12


 617              		.global	spi_lld_send
 618              		.thumb
 619              		.thumb_func
 620              		.type	spi_lld_send, %function
 621              	spi_lld_send:
 622              	.LFB127:
 623              		.loc 1 573 0
 624              		.cfi_startproc
 625              		@ args = 0, pretend = 0, frame = 0
 626              		@ frame_needed = 0, uses_anonymous_args = 0
 627              		@ link register save eliminated.
 628              	.LVL33:
 629 0000 70B4     		push	{r4, r5, r6}
 630              		.cfi_def_cfa_offset 12
 631              		.cfi_offset 4, -12
 632              		.cfi_offset 5, -8
 633              		.cfi_offset 6, -4
 634              		.loc 1 579 0
 635 0002 436A     		ldr	r3, [r0, #36]
 636              		.loc 1 575 0
 637 0004 046A     		ldr	r4, [r0, #32]
 638              		.loc 1 581 0
 639 0006 C56A     		ldr	r5, [r0, #44]
 640              		.loc 1 575 0
 641 0008 2468     		ldr	r4, [r4]
 642              		.loc 1 579 0
 643 000a 1B68     		ldr	r3, [r3]
 644              		.loc 1 577 0
 645 000c 806A     		ldr	r0, [r0, #40]
 646              	.LVL34:
 647              		.loc 1 575 0
 648 000e 094E     		ldr	r6, .L49
 649 0010 E660     		str	r6, [r4, #12]
 650              		.loc 1 581 0
 651 0012 45F48065 		orr	r5, r5, #1024
 652              		.loc 1 576 0
 653 0016 6160     		str	r1, [r4, #4]
 654              		.loc 1 577 0
 655 0018 2060     		str	r0, [r4]
 656              		.loc 1 579 0
 657 001a DA60     		str	r2, [r3, #12]
 658              		.loc 1 580 0
 659 001c 5960     		str	r1, [r3, #4]
 660              		.loc 1 581 0
 661 001e 1D60     		str	r5, [r3]
 662              		.loc 1 583 0
 663 0020 2268     		ldr	r2, [r4]
 664              	.LVL35:
 665 0022 42F00102 		orr	r2, r2, #1
 666 0026 2260     		str	r2, [r4]
 667              		.loc 1 584 0
 668 0028 1A68     		ldr	r2, [r3]
 669 002a 42F00102 		orr	r2, r2, #1
 670 002e 1A60     		str	r2, [r3]
 671              		.loc 1 585 0
 672 0030 70BC     		pop	{r4, r5, r6}
 673 0032 7047     		bx	lr
ARM GAS  /tmp/ccyVfuLj.s 			page 13


 674              	.L50:
 675              		.align	2
 676              	.L49:
 677 0034 00000000 		.word	.LANCHOR2
 678              		.cfi_endproc
 679              	.LFE127:
 680              		.size	spi_lld_send, .-spi_lld_send
 681 0038 AFF30080 		.section	.text.spi_lld_receive,"ax",%progbits
 681      AFF30080 
 682              		.align	2
 683              		.p2align 4,,15
 684              		.global	spi_lld_receive
 685              		.thumb
 686              		.thumb_func
 687              		.type	spi_lld_receive, %function
 688              	spi_lld_receive:
 689              	.LFB128:
 690              		.loc 1 600 0
 691              		.cfi_startproc
 692              		@ args = 0, pretend = 0, frame = 0
 693              		@ frame_needed = 0, uses_anonymous_args = 0
 694              		@ link register save eliminated.
 695              	.LVL36:
 696 0000 70B4     		push	{r4, r5, r6}
 697              		.cfi_def_cfa_offset 12
 698              		.cfi_offset 4, -12
 699              		.cfi_offset 5, -8
 700              		.cfi_offset 6, -4
 701              		.loc 1 606 0
 702 0002 436A     		ldr	r3, [r0, #36]
 703              		.loc 1 602 0
 704 0004 046A     		ldr	r4, [r0, #32]
 705              		.loc 1 604 0
 706 0006 866A     		ldr	r6, [r0, #40]
 707              		.loc 1 602 0
 708 0008 2468     		ldr	r4, [r4]
 709              		.loc 1 606 0
 710 000a 1B68     		ldr	r3, [r3]
 711              		.loc 1 608 0
 712 000c C06A     		ldr	r0, [r0, #44]
 713              	.LVL37:
 714              		.loc 1 606 0
 715 000e 094D     		ldr	r5, .L52
 716              		.loc 1 602 0
 717 0010 E260     		str	r2, [r4, #12]
 718              		.loc 1 604 0
 719 0012 46F48066 		orr	r6, r6, #1024
 720              		.loc 1 603 0
 721 0016 6160     		str	r1, [r4, #4]
 722              		.loc 1 604 0
 723 0018 2660     		str	r6, [r4]
 724              		.loc 1 606 0
 725 001a DD60     		str	r5, [r3, #12]
 726              		.loc 1 607 0
 727 001c 5960     		str	r1, [r3, #4]
 728              		.loc 1 608 0
 729 001e 1860     		str	r0, [r3]
ARM GAS  /tmp/ccyVfuLj.s 			page 14


 730              		.loc 1 610 0
 731 0020 2268     		ldr	r2, [r4]
 732              	.LVL38:
 733 0022 42F00102 		orr	r2, r2, #1
 734 0026 2260     		str	r2, [r4]
 735              		.loc 1 611 0
 736 0028 1A68     		ldr	r2, [r3]
 737 002a 42F00102 		orr	r2, r2, #1
 738 002e 1A60     		str	r2, [r3]
 739              		.loc 1 612 0
 740 0030 70BC     		pop	{r4, r5, r6}
 741 0032 7047     		bx	lr
 742              	.L53:
 743              		.align	2
 744              	.L52:
 745 0034 00000000 		.word	.LANCHOR0
 746              		.cfi_endproc
 747              	.LFE128:
 748              		.size	spi_lld_receive, .-spi_lld_receive
 749 0038 AFF30080 		.section	.text.spi_lld_polled_exchange,"ax",%progbits
 749      AFF30080 
 750              		.align	2
 751              		.p2align 4,,15
 752              		.global	spi_lld_polled_exchange
 753              		.thumb
 754              		.thumb_func
 755              		.type	spi_lld_polled_exchange, %function
 756              	spi_lld_polled_exchange:
 757              	.LFB129:
 758              		.loc 1 626 0
 759              		.cfi_startproc
 760              		@ args = 0, pretend = 0, frame = 0
 761              		@ frame_needed = 0, uses_anonymous_args = 0
 762              		@ link register save eliminated.
 763              	.LVL39:
 764              		.loc 1 628 0
 765 0000 C269     		ldr	r2, [r0, #28]
 766 0002 9181     		strh	r1, [r2, #12]	@ movhi
 767              	.L56:
 768              		.loc 1 629 0 discriminator 1
 769 0004 1389     		ldrh	r3, [r2, #8]
 770 0006 DB07     		lsls	r3, r3, #31
 771 0008 FCD5     		bpl	.L56
 772              		.loc 1 631 0
 773 000a 9089     		ldrh	r0, [r2, #12]
 774              	.LVL40:
 775              		.loc 1 632 0
 776 000c 80B2     		uxth	r0, r0
 777 000e 7047     		bx	lr
 778              		.cfi_endproc
 779              	.LFE129:
 780              		.size	spi_lld_polled_exchange, .-spi_lld_polled_exchange
 781              		.global	SPID1
 782              		.section	.bss.dummytx,"aw",%nobits
 783              		.align	1
 784              		.set	.LANCHOR0,. + 0
 785              		.type	dummytx, %object
ARM GAS  /tmp/ccyVfuLj.s 			page 15


 786              		.size	dummytx, 2
 787              	dummytx:
 788 0000 0000     		.space	2
 789              		.section	.bss.SPID1,"aw",%nobits
 790              		.align	2
 791              		.set	.LANCHOR1,. + 0
 792              		.type	SPID1, %object
 793              		.size	SPID1, 48
 794              	SPID1:
 795 0000 00000000 		.space	48
 795      00000000 
 795      00000000 
 795      00000000 
 795      00000000 
 796              		.section	.bss.dummyrx,"aw",%nobits
 797              		.align	1
 798              		.set	.LANCHOR2,. + 0
 799              		.type	dummyrx, %object
 800              		.size	dummyrx, 2
 801              	dummyrx:
 802 0000 0000     		.space	2
 803              		.text
 804              	.Letext0:
 805              		.file 2 "/home/marco/SoftwareProjects/st-usb/tools/gcc-arm-none-eabi-4_8-2014q2/lib/gcc/arm-none-e
 806              		.file 3 "/home/marco/SoftwareProjects/st-usb/tools/gcc-arm-none-eabi-4_8-2014q2/arm-none-eabi/incl
 807              		.file 4 "/home/marco/SoftwareProjects/st-usb/tools/gcc-arm-none-eabi-4_8-2014q2/arm-none-eabi/incl
 808              		.file 5 "/home/marco/SoftwareProjects/st-usb/f9xx/firmware/ext/ChibiOS-RT/os/ports/GCC/ARMCMx/chty
 809              		.file 6 "/home/marco/SoftwareProjects/st-usb/f9xx/firmware/ext/ChibiOS-RT/os/kernel/include/chlist
 810              		.file 7 "/home/marco/SoftwareProjects/st-usb/f9xx/firmware/ext/ChibiOS-RT/os/kernel/include/chthre
 811              		.file 8 "/home/marco/SoftwareProjects/st-usb/f9xx/firmware/ext/ChibiOS-RT/os/ports/GCC/ARMCMx/chco
 812              		.file 9 "/home/marco/SoftwareProjects/st-usb/f9xx/firmware/ext/ChibiOS-RT/os/kernel/include/chmtx.
 813              		.file 10 "/home/marco/SoftwareProjects/st-usb/f9xx/firmware/ext/ChibiOS-RT/os/hal/platforms/STM32F
 814              		.file 11 "/home/marco/SoftwareProjects/st-usb/f9xx/firmware/ext/ChibiOS-RT/os/hal/platforms/STM32F
 815              		.file 12 "/home/marco/SoftwareProjects/st-usb/f9xx/firmware/ext/ChibiOS-RT/os/hal/platforms/STM32/
 816              		.file 13 "/home/marco/SoftwareProjects/st-usb/f9xx/firmware/ext/ChibiOS-RT/os/hal/include/spi.h"
 817              		.file 14 "/home/marco/SoftwareProjects/st-usb/f9xx/firmware/ext/ChibiOS-RT/os/hal/platforms/STM32/
 818              		.file 15 "/home/marco/SoftwareProjects/st-usb/f9xx/firmware/ext/ChibiOS-RT/os/ports/common/ARMCMx/
 819              		.file 16 "/home/marco/SoftwareProjects/st-usb/f9xx/firmware/ext/ChibiOS-RT/os/kernel/include/chsch