ARM GAS  /tmp/ccc4m1rg.s 			page 1


   1              		.syntax unified
   2              		.cpu cortex-m4
   3              		.fpu softvfp
   4              		.eabi_attribute 20, 1
   5              		.eabi_attribute 21, 1
   6              		.eabi_attribute 23, 3
   7              		.eabi_attribute 24, 1
   8              		.eabi_attribute 25, 1
   9              		.eabi_attribute 26, 1
  10              		.eabi_attribute 30, 2
  11              		.eabi_attribute 34, 1
  12              		.eabi_attribute 18, 4
  13              		.thumb
  14              		.file	"usb.c"
  15              		.text
  16              	.Ltext0:
  17              		.cfi_sections	.debug_frame
  18              		.section	.text.usbInit,"ax",%progbits
  19              		.align	2
  20              		.p2align 4,,15
  21              		.global	usbInit
  22              		.thumb
  23              		.thumb_func
  24              		.type	usbInit, %function
  25              	usbInit:
  26              	.LFB120:
  27              		.file 1 "/home/marco/SoftwareProjects/st-usb/f9xx/firmware/ext/ChibiOS-RT/os/hal/src/usb.c"
  28              		.loc 1 235 0
  29              		.cfi_startproc
  30              		@ args = 0, pretend = 0, frame = 0
  31              		@ frame_needed = 0, uses_anonymous_args = 0
  32              		@ link register save eliminated.
  33              		.loc 1 237 0
  34 0000 FFF7FEBF 		b	usb_lld_init
  35              	.LVL0:
  36              		.cfi_endproc
  37              	.LFE120:
  38              		.size	usbInit, .-usbInit
  39 0004 AFF30080 		.section	.text.usbObjectInit,"ax",%progbits
  39      AFF30080 
  39      AFF30080 
  40              		.align	2
  41              		.p2align 4,,15
  42              		.global	usbObjectInit
  43              		.thumb
  44              		.thumb_func
  45              		.type	usbObjectInit, %function
  46              	usbObjectInit:
  47              	.LFB121:
  48              		.loc 1 247 0
  49              		.cfi_startproc
  50              		@ args = 0, pretend = 0, frame = 0
  51              		@ frame_needed = 0, uses_anonymous_args = 0
  52              		@ link register save eliminated.
  53              	.LVL1:
  54              		.loc 1 251 0
  55 0000 0023     		movs	r3, #0
ARM GAS  /tmp/ccc4m1rg.s 			page 2


  56              		.loc 1 250 0
  57 0002 0122     		movs	r2, #1
  58 0004 0270     		strb	r2, [r0]
  59              		.loc 1 251 0
  60 0006 4360     		str	r3, [r0, #4]
  61              	.LVL2:
  62              		.loc 1 253 0
  63 0008 C361     		str	r3, [r0, #28]
  64              		.loc 1 254 0
  65 000a 8362     		str	r3, [r0, #40]
  66              	.LVL3:
  67              		.loc 1 253 0
  68 000c 0362     		str	r3, [r0, #32]
  69              		.loc 1 254 0
  70 000e C362     		str	r3, [r0, #44]
  71              	.LVL4:
  72              		.loc 1 253 0
  73 0010 4362     		str	r3, [r0, #36]
  74              		.loc 1 254 0
  75 0012 0363     		str	r3, [r0, #48]
  76              	.LVL5:
  77              		.loc 1 256 0
  78 0014 0381     		strh	r3, [r0, #8]	@ movhi
  79              		.loc 1 257 0
  80 0016 4381     		strh	r3, [r0, #10]	@ movhi
  81 0018 7047     		bx	lr
  82              		.cfi_endproc
  83              	.LFE121:
  84              		.size	usbObjectInit, .-usbObjectInit
  85 001a 00BFAFF3 		.section	.text.usbStart,"ax",%progbits
  85      0080
  86              		.align	2
  87              		.p2align 4,,15
  88              		.global	usbStart
  89              		.thumb
  90              		.thumb_func
  91              		.type	usbStart, %function
  92              	usbStart:
  93              	.LFB122:
  94              		.loc 1 268 0
  95              		.cfi_startproc
  96              		@ args = 0, pretend = 0, frame = 0
  97              		@ frame_needed = 0, uses_anonymous_args = 0
  98              	.LVL6:
  99 0000 38B5     		push	{r3, r4, r5, lr}
 100              		.cfi_def_cfa_offset 16
 101              		.cfi_offset 3, -16
 102              		.cfi_offset 4, -12
 103              		.cfi_offset 5, -8
 104              		.cfi_offset 14, -4
 105              		.loc 1 268 0
 106 0002 0446     		mov	r4, r0
 107              	.LBB30:
 108              		.loc 1 273 0
 109 0004 2023     		movs	r3, #32
 110              	@ 273 "/home/marco/SoftwareProjects/st-usb/f9xx/firmware/ext/ChibiOS-RT/os/hal/src/usb.c" 1
 111 0006 83F31188 		msr     BASEPRI, r3
ARM GAS  /tmp/ccc4m1rg.s 			page 3


 112              	@ 0 "" 2
 113              		.thumb
 114              	.LBE30:
 115              		.loc 1 278 0
 116 000a 0025     		movs	r5, #0
 117              		.loc 1 276 0
 118 000c 4160     		str	r1, [r0, #4]
 119              	.LVL7:
 120              		.loc 1 278 0
 121 000e C560     		str	r5, [r0, #12]
 122              	.LVL8:
 123 0010 0561     		str	r5, [r0, #16]
 124              	.LVL9:
 125 0012 4561     		str	r5, [r0, #20]
 126              	.LVL10:
 127 0014 8561     		str	r5, [r0, #24]
 128              	.LVL11:
 129              		.loc 1 279 0
 130 0016 FFF7FEFF 		bl	usb_lld_start
 131              	.LVL12:
 132              		.loc 1 280 0
 133 001a 0222     		movs	r2, #2
 134              	.LBB31:
 135              		.loc 1 281 0
 136 001c 2B46     		mov	r3, r5
 137              	.LBE31:
 138              		.loc 1 280 0
 139 001e 2270     		strb	r2, [r4]
 140              	.LBB32:
 141              		.loc 1 281 0
 142              	@ 281 "/home/marco/SoftwareProjects/st-usb/f9xx/firmware/ext/ChibiOS-RT/os/hal/src/usb.c" 1
 143 0020 83F31188 		msr     BASEPRI, r3
 144              	@ 0 "" 2
 145              		.thumb
 146 0024 38BD     		pop	{r3, r4, r5, pc}
 147              	.LBE32:
 148              		.cfi_endproc
 149              	.LFE122:
 150              		.size	usbStart, .-usbStart
 151 0026 00BFAFF3 		.section	.text.usbStop,"ax",%progbits
 151      0080AFF3 
 151      0080
 152              		.align	2
 153              		.p2align 4,,15
 154              		.global	usbStop
 155              		.thumb
 156              		.thumb_func
 157              		.type	usbStop, %function
 158              	usbStop:
 159              	.LFB123:
 160              		.loc 1 291 0
 161              		.cfi_startproc
 162              		@ args = 0, pretend = 0, frame = 0
 163              		@ frame_needed = 0, uses_anonymous_args = 0
 164              	.LVL13:
 165 0000 10B5     		push	{r4, lr}
 166              		.cfi_def_cfa_offset 8
ARM GAS  /tmp/ccc4m1rg.s 			page 4


 167              		.cfi_offset 4, -8
 168              		.cfi_offset 14, -4
 169              	.LBB33:
 170              		.loc 1 295 0
 171 0002 2023     		movs	r3, #32
 172              	.LBE33:
 173              		.loc 1 291 0
 174 0004 0446     		mov	r4, r0
 175              	.LBB34:
 176              		.loc 1 295 0
 177              	@ 295 "/home/marco/SoftwareProjects/st-usb/f9xx/firmware/ext/ChibiOS-RT/os/hal/src/usb.c" 1
 178 0006 83F31188 		msr     BASEPRI, r3
 179              	@ 0 "" 2
 180              		.thumb
 181              	.LBE34:
 182              		.loc 1 299 0
 183 000a FFF7FEFF 		bl	usb_lld_stop
 184              	.LVL14:
 185              		.loc 1 300 0
 186 000e 0123     		movs	r3, #1
 187 0010 2370     		strb	r3, [r4]
 188              	.LBB35:
 189              		.loc 1 301 0
 190 0012 0023     		movs	r3, #0
 191              	@ 301 "/home/marco/SoftwareProjects/st-usb/f9xx/firmware/ext/ChibiOS-RT/os/hal/src/usb.c" 1
 192 0014 83F31188 		msr     BASEPRI, r3
 193              	@ 0 "" 2
 194              		.thumb
 195 0018 10BD     		pop	{r4, pc}
 196              	.LBE35:
 197              		.cfi_endproc
 198              	.LFE123:
 199              		.size	usbStop, .-usbStop
 200 001a 00BFAFF3 		.section	.text.usbInitEndpointI,"ax",%progbits
 200      0080
 201              		.align	2
 202              		.p2align 4,,15
 203              		.global	usbInitEndpointI
 204              		.thumb
 205              		.thumb_func
 206              		.type	usbInitEndpointI, %function
 207              	usbInitEndpointI:
 208              	.LFB124:
 209              		.loc 1 318 0
 210              		.cfi_startproc
 211              		@ args = 0, pretend = 0, frame = 0
 212              		@ frame_needed = 0, uses_anonymous_args = 0
 213              	.LVL15:
 214 0000 70B5     		push	{r4, r5, r6, lr}
 215              		.cfi_def_cfa_offset 16
 216              		.cfi_offset 4, -16
 217              		.cfi_offset 5, -12
 218              		.cfi_offset 6, -8
 219              		.cfi_offset 14, -4
 220              		.loc 1 318 0
 221 0002 0646     		mov	r6, r0
 222              		.loc 1 328 0
ARM GAS  /tmp/ccc4m1rg.s 			page 5


 223 0004 5069     		ldr	r0, [r2, #20]
 224              	.LVL16:
 225              		.loc 1 318 0
 226 0006 1446     		mov	r4, r2
 227 0008 0D46     		mov	r5, r1
 228              		.loc 1 328 0
 229 000a 18B1     		cbz	r0, .L6
 230              		.loc 1 329 0
 231 000c 0021     		movs	r1, #0
 232              	.LVL17:
 233 000e 1422     		movs	r2, #20
 234              	.LVL18:
 235 0010 FFF7FEFF 		bl	memset
 236              	.LVL19:
 237              	.L6:
 238              		.loc 1 330 0
 239 0014 A069     		ldr	r0, [r4, #24]
 240 0016 18B1     		cbz	r0, .L7
 241              		.loc 1 331 0
 242 0018 0021     		movs	r1, #0
 243 001a 1422     		movs	r2, #20
 244 001c FFF7FEFF 		bl	memset
 245              	.LVL20:
 246              	.L7:
 247              		.loc 1 333 0
 248 0020 06EB8503 		add	r3, r6, r5, lsl #2
 249              		.loc 1 336 0
 250 0024 3046     		mov	r0, r6
 251              		.loc 1 333 0
 252 0026 DC60     		str	r4, [r3, #12]
 253              		.loc 1 336 0
 254 0028 2946     		mov	r1, r5
 255              		.loc 1 337 0
 256 002a BDE87040 		pop	{r4, r5, r6, lr}
 257              	.LVL21:
 258              		.loc 1 336 0
 259 002e FFF7FEBF 		b	usb_lld_init_endpoint
 260              	.LVL22:
 261              		.cfi_endproc
 262              	.LFE124:
 263              		.size	usbInitEndpointI, .-usbInitEndpointI
 264 0032 00BFAFF3 		.section	.text.usbDisableEndpointsI,"ax",%progbits
 264      0080AFF3 
 264      0080AFF3 
 264      0080
 265              		.align	2
 266              		.p2align 4,,15
 267              		.global	usbDisableEndpointsI
 268              		.thumb
 269              		.thumb_func
 270              		.type	usbDisableEndpointsI, %function
 271              	usbDisableEndpointsI:
 272              	.LFB125:
 273              		.loc 1 350 0
 274              		.cfi_startproc
 275              		@ args = 0, pretend = 0, frame = 0
 276              		@ frame_needed = 0, uses_anonymous_args = 0
ARM GAS  /tmp/ccc4m1rg.s 			page 6


 277              		@ link register save eliminated.
 278              	.LVL23:
 279 0000 10B4     		push	{r4}
 280              		.cfi_def_cfa_offset 4
 281              		.cfi_offset 4, -4
 282              		.loc 1 359 0
 283 0002 4189     		ldrh	r1, [r0, #10]
 284              		.loc 1 358 0
 285 0004 0489     		ldrh	r4, [r0, #8]
 286              		.loc 1 361 0
 287 0006 0022     		movs	r2, #0
 288              		.loc 1 358 0
 289 0008 24F00104 		bic	r4, r4, #1
 290              		.loc 1 359 0
 291 000c 21F00101 		bic	r1, r1, #1
 292              		.loc 1 358 0
 293 0010 0481     		strh	r4, [r0, #8]	@ movhi
 294              		.loc 1 361 0
 295 0012 0261     		str	r2, [r0, #16]
 296              		.loc 1 359 0
 297 0014 4181     		strh	r1, [r0, #10]	@ movhi
 298              	.LVL24:
 299              		.loc 1 361 0
 300 0016 4261     		str	r2, [r0, #20]
 301              	.LVL25:
 302 0018 8261     		str	r2, [r0, #24]
 303              	.LVL26:
 304              		.loc 1 365 0
 305 001a 5DF8044B 		ldr	r4, [sp], #4
 306              		.loc 1 364 0
 307 001e FFF7FEBF 		b	usb_lld_disable_endpoints
 308              	.LVL27:
 309              		.cfi_endproc
 310              	.LFE125:
 311              		.size	usbDisableEndpointsI, .-usbDisableEndpointsI
 312 0022 00BFAFF3 		.section	.text.usbPrepareReceive,"ax",%progbits
 312      0080AFF3 
 312      0080AFF3 
 312      0080
 313              		.align	2
 314              		.p2align 4,,15
 315              		.global	usbPrepareReceive
 316              		.thumb
 317              		.thumb_func
 318              		.type	usbPrepareReceive, %function
 319              	usbPrepareReceive:
 320              	.LFB126:
 321              		.loc 1 379 0
 322              		.cfi_startproc
 323              		@ args = 0, pretend = 0, frame = 0
 324              		@ frame_needed = 0, uses_anonymous_args = 0
 325              		@ link register save eliminated.
 326              	.LVL28:
 327 0000 30B4     		push	{r4, r5}
 328              		.cfi_def_cfa_offset 8
 329              		.cfi_offset 4, -8
 330              		.cfi_offset 5, -4
ARM GAS  /tmp/ccc4m1rg.s 			page 7


 331              		.loc 1 380 0
 332 0002 00EB8104 		add	r4, r0, r1, lsl #2
 333              		.loc 1 382 0
 334 0006 0025     		movs	r5, #0
 335              		.loc 1 380 0
 336 0008 E468     		ldr	r4, [r4, #12]
 337 000a A469     		ldr	r4, [r4, #24]
 338              	.LVL29:
 339              		.loc 1 383 0
 340 000c E260     		str	r2, [r4, #12]
 341              		.loc 1 384 0
 342 000e 6360     		str	r3, [r4, #4]
 343              		.loc 1 382 0
 344 0010 2570     		strb	r5, [r4]
 345              		.loc 1 385 0
 346 0012 A560     		str	r5, [r4, #8]
 347              		.loc 1 388 0
 348 0014 30BC     		pop	{r4, r5}
 349              	.LVL30:
 350              		.loc 1 387 0
 351 0016 FFF7FEBF 		b	usb_lld_prepare_receive
 352              	.LVL31:
 353              		.cfi_endproc
 354              	.LFE126:
 355              		.size	usbPrepareReceive, .-usbPrepareReceive
 356 001a 00BFAFF3 		.section	.text.usbPrepareTransmit,"ax",%progbits
 356      0080
 357              		.align	2
 358              		.p2align 4,,15
 359              		.global	usbPrepareTransmit
 360              		.thumb
 361              		.thumb_func
 362              		.type	usbPrepareTransmit, %function
 363              	usbPrepareTransmit:
 364              	.LFB127:
 365              		.loc 1 405 0
 366              		.cfi_startproc
 367              		@ args = 0, pretend = 0, frame = 0
 368              		@ frame_needed = 0, uses_anonymous_args = 0
 369              		@ link register save eliminated.
 370              	.LVL32:
 371 0000 30B4     		push	{r4, r5}
 372              		.cfi_def_cfa_offset 8
 373              		.cfi_offset 4, -8
 374              		.cfi_offset 5, -4
 375              		.loc 1 406 0
 376 0002 00EB8104 		add	r4, r0, r1, lsl #2
 377              		.loc 1 408 0
 378 0006 0025     		movs	r5, #0
 379              		.loc 1 406 0
 380 0008 E468     		ldr	r4, [r4, #12]
 381 000a 6469     		ldr	r4, [r4, #20]
 382              	.LVL33:
 383              		.loc 1 409 0
 384 000c E260     		str	r2, [r4, #12]
 385              		.loc 1 410 0
 386 000e 6360     		str	r3, [r4, #4]
ARM GAS  /tmp/ccc4m1rg.s 			page 8


 387              		.loc 1 408 0
 388 0010 2570     		strb	r5, [r4]
 389              		.loc 1 411 0
 390 0012 A560     		str	r5, [r4, #8]
 391              		.loc 1 414 0
 392 0014 30BC     		pop	{r4, r5}
 393              	.LVL34:
 394              		.loc 1 413 0
 395 0016 FFF7FEBF 		b	usb_lld_prepare_transmit
 396              	.LVL35:
 397              		.cfi_endproc
 398              	.LFE127:
 399              		.size	usbPrepareTransmit, .-usbPrepareTransmit
 400 001a 00BFAFF3 		.section	.text.usbPrepareQueuedReceive,"ax",%progbits
 400      0080
 401              		.align	2
 402              		.p2align 4,,15
 403              		.global	usbPrepareQueuedReceive
 404              		.thumb
 405              		.thumb_func
 406              		.type	usbPrepareQueuedReceive, %function
 407              	usbPrepareQueuedReceive:
 408              	.LFB128:
 409              		.loc 1 434 0
 410              		.cfi_startproc
 411              		@ args = 0, pretend = 0, frame = 0
 412              		@ frame_needed = 0, uses_anonymous_args = 0
 413              		@ link register save eliminated.
 414              	.LVL36:
 415 0000 70B4     		push	{r4, r5, r6}
 416              		.cfi_def_cfa_offset 12
 417              		.cfi_offset 4, -12
 418              		.cfi_offset 5, -8
 419              		.cfi_offset 6, -4
 420              		.loc 1 435 0
 421 0002 00EB8104 		add	r4, r0, r1, lsl #2
 422              		.loc 1 437 0
 423 0006 0126     		movs	r6, #1
 424              		.loc 1 435 0
 425 0008 E468     		ldr	r4, [r4, #12]
 426 000a A469     		ldr	r4, [r4, #24]
 427              	.LVL37:
 428              		.loc 1 440 0
 429 000c 0025     		movs	r5, #0
 430              		.loc 1 438 0
 431 000e E260     		str	r2, [r4, #12]
 432              		.loc 1 439 0
 433 0010 6360     		str	r3, [r4, #4]
 434              		.loc 1 437 0
 435 0012 2670     		strb	r6, [r4]
 436              		.loc 1 440 0
 437 0014 A560     		str	r5, [r4, #8]
 438              		.loc 1 443 0
 439 0016 70BC     		pop	{r4, r5, r6}
 440              	.LVL38:
 441              		.loc 1 442 0
 442 0018 FFF7FEBF 		b	usb_lld_prepare_receive
ARM GAS  /tmp/ccc4m1rg.s 			page 9


 443              	.LVL39:
 444              		.cfi_endproc
 445              	.LFE128:
 446              		.size	usbPrepareQueuedReceive, .-usbPrepareQueuedReceive
 447 001c AFF30080 		.section	.text.usbPrepareQueuedTransmit,"ax",%progbits
 448              		.align	2
 449              		.p2align 4,,15
 450              		.global	usbPrepareQueuedTransmit
 451              		.thumb
 452              		.thumb_func
 453              		.type	usbPrepareQueuedTransmit, %function
 454              	usbPrepareQueuedTransmit:
 455              	.LFB129:
 456              		.loc 1 460 0
 457              		.cfi_startproc
 458              		@ args = 0, pretend = 0, frame = 0
 459              		@ frame_needed = 0, uses_anonymous_args = 0
 460              		@ link register save eliminated.
 461              	.LVL40:
 462 0000 70B4     		push	{r4, r5, r6}
 463              		.cfi_def_cfa_offset 12
 464              		.cfi_offset 4, -12
 465              		.cfi_offset 5, -8
 466              		.cfi_offset 6, -4
 467              		.loc 1 461 0
 468 0002 00EB8104 		add	r4, r0, r1, lsl #2
 469              		.loc 1 463 0
 470 0006 0126     		movs	r6, #1
 471              		.loc 1 461 0
 472 0008 E468     		ldr	r4, [r4, #12]
 473 000a 6469     		ldr	r4, [r4, #20]
 474              	.LVL41:
 475              		.loc 1 466 0
 476 000c 0025     		movs	r5, #0
 477              		.loc 1 464 0
 478 000e E260     		str	r2, [r4, #12]
 479              		.loc 1 465 0
 480 0010 6360     		str	r3, [r4, #4]
 481              		.loc 1 463 0
 482 0012 2670     		strb	r6, [r4]
 483              		.loc 1 466 0
 484 0014 A560     		str	r5, [r4, #8]
 485              		.loc 1 469 0
 486 0016 70BC     		pop	{r4, r5, r6}
 487              	.LVL42:
 488              		.loc 1 468 0
 489 0018 FFF7FEBF 		b	usb_lld_prepare_transmit
 490              	.LVL43:
 491              		.cfi_endproc
 492              	.LFE129:
 493              		.size	usbPrepareQueuedTransmit, .-usbPrepareQueuedTransmit
 494 001c AFF30080 		.section	.text.usbStartReceiveI,"ax",%progbits
 495              		.align	2
 496              		.p2align 4,,15
 497              		.global	usbStartReceiveI
 498              		.thumb
 499              		.thumb_func
ARM GAS  /tmp/ccc4m1rg.s 			page 10


 500              		.type	usbStartReceiveI, %function
 501              	usbStartReceiveI:
 502              	.LFB130:
 503              		.loc 1 485 0
 504              		.cfi_startproc
 505              		@ args = 0, pretend = 0, frame = 0
 506              		@ frame_needed = 0, uses_anonymous_args = 0
 507              	.LVL44:
 508 0000 70B5     		push	{r4, r5, r6, lr}
 509              		.cfi_def_cfa_offset 16
 510              		.cfi_offset 4, -16
 511              		.cfi_offset 5, -12
 512              		.cfi_offset 6, -8
 513              		.cfi_offset 14, -4
 514              		.loc 1 490 0
 515 0002 4489     		ldrh	r4, [r0, #10]
 516 0004 44FA01F3 		asr	r3, r4, r1
 517 0008 13F00106 		ands	r6, r3, #1
 518 000c 01D0     		beq	.L23
 519              		.loc 1 491 0
 520 000e 0120     		movs	r0, #1
 521              	.LVL45:
 522              		.loc 1 496 0
 523 0010 70BD     		pop	{r4, r5, r6, pc}
 524              	.LVL46:
 525              	.L23:
 526              		.loc 1 493 0
 527 0012 0123     		movs	r3, #1
 528 0014 03FA01F5 		lsl	r5, r3, r1
 529 0018 2C43     		orrs	r4, r4, r5
 530 001a 4481     		strh	r4, [r0, #10]	@ movhi
 531              		.loc 1 494 0
 532 001c FFF7FEFF 		bl	usb_lld_start_out
 533              	.LVL47:
 534              		.loc 1 495 0
 535 0020 3046     		mov	r0, r6
 536 0022 70BD     		pop	{r4, r5, r6, pc}
 537              		.cfi_endproc
 538              	.LFE130:
 539              		.size	usbStartReceiveI, .-usbStartReceiveI
 540 0024 AFF30080 		.section	.text.usbStartTransmitI,"ax",%progbits
 540      AFF30080 
 540      AFF30080 
 541              		.align	2
 542              		.p2align 4,,15
 543              		.global	usbStartTransmitI
 544              		.thumb
 545              		.thumb_func
 546              		.type	usbStartTransmitI, %function
 547              	usbStartTransmitI:
 548              	.LFB131:
 549              		.loc 1 512 0
 550              		.cfi_startproc
 551              		@ args = 0, pretend = 0, frame = 0
 552              		@ frame_needed = 0, uses_anonymous_args = 0
 553              	.LVL48:
 554 0000 70B5     		push	{r4, r5, r6, lr}
ARM GAS  /tmp/ccc4m1rg.s 			page 11


 555              		.cfi_def_cfa_offset 16
 556              		.cfi_offset 4, -16
 557              		.cfi_offset 5, -12
 558              		.cfi_offset 6, -8
 559              		.cfi_offset 14, -4
 560              		.loc 1 517 0
 561 0002 0489     		ldrh	r4, [r0, #8]
 562 0004 44FA01F3 		asr	r3, r4, r1
 563 0008 13F00106 		ands	r6, r3, #1
 564 000c 01D0     		beq	.L27
 565              		.loc 1 518 0
 566 000e 0120     		movs	r0, #1
 567              	.LVL49:
 568              		.loc 1 523 0
 569 0010 70BD     		pop	{r4, r5, r6, pc}
 570              	.LVL50:
 571              	.L27:
 572              		.loc 1 520 0
 573 0012 0123     		movs	r3, #1
 574 0014 03FA01F5 		lsl	r5, r3, r1
 575 0018 2C43     		orrs	r4, r4, r5
 576 001a 0481     		strh	r4, [r0, #8]	@ movhi
 577              		.loc 1 521 0
 578 001c FFF7FEFF 		bl	usb_lld_start_in
 579              	.LVL51:
 580              		.loc 1 522 0
 581 0020 3046     		mov	r0, r6
 582 0022 70BD     		pop	{r4, r5, r6, pc}
 583              		.cfi_endproc
 584              	.LFE131:
 585              		.size	usbStartTransmitI, .-usbStartTransmitI
 586 0024 AFF30080 		.section	.text.usbStallReceiveI,"ax",%progbits
 586      AFF30080 
 586      AFF30080 
 587              		.align	2
 588              		.p2align 4,,15
 589              		.global	usbStallReceiveI
 590              		.thumb
 591              		.thumb_func
 592              		.type	usbStallReceiveI, %function
 593              	usbStallReceiveI:
 594              	.LFB132:
 595              		.loc 1 537 0
 596              		.cfi_startproc
 597              		@ args = 0, pretend = 0, frame = 0
 598              		@ frame_needed = 0, uses_anonymous_args = 0
 599              	.LVL52:
 600              		.loc 1 542 0
 601 0000 4389     		ldrh	r3, [r0, #10]
 602 0002 0B41     		asrs	r3, r3, r1
 603              		.loc 1 537 0
 604 0004 10B5     		push	{r4, lr}
 605              		.cfi_def_cfa_offset 8
 606              		.cfi_offset 4, -8
 607              		.cfi_offset 14, -4
 608              		.loc 1 542 0
 609 0006 13F00104 		ands	r4, r3, #1
ARM GAS  /tmp/ccc4m1rg.s 			page 12


 610 000a 01D0     		beq	.L31
 611              		.loc 1 543 0
 612 000c 0120     		movs	r0, #1
 613              	.LVL53:
 614              		.loc 1 547 0
 615 000e 10BD     		pop	{r4, pc}
 616              	.LVL54:
 617              	.L31:
 618              		.loc 1 545 0
 619 0010 FFF7FEFF 		bl	usb_lld_stall_out
 620              	.LVL55:
 621              		.loc 1 546 0
 622 0014 2046     		mov	r0, r4
 623 0016 10BD     		pop	{r4, pc}
 624              		.cfi_endproc
 625              	.LFE132:
 626              		.size	usbStallReceiveI, .-usbStallReceiveI
 627 0018 AFF30080 		.section	.text.usbStallTransmitI,"ax",%progbits
 627      AFF30080 
 628              		.align	2
 629              		.p2align 4,,15
 630              		.global	usbStallTransmitI
 631              		.thumb
 632              		.thumb_func
 633              		.type	usbStallTransmitI, %function
 634              	usbStallTransmitI:
 635              	.LFB133:
 636              		.loc 1 561 0
 637              		.cfi_startproc
 638              		@ args = 0, pretend = 0, frame = 0
 639              		@ frame_needed = 0, uses_anonymous_args = 0
 640              	.LVL56:
 641              		.loc 1 566 0
 642 0000 0389     		ldrh	r3, [r0, #8]
 643 0002 0B41     		asrs	r3, r3, r1
 644              		.loc 1 561 0
 645 0004 10B5     		push	{r4, lr}
 646              		.cfi_def_cfa_offset 8
 647              		.cfi_offset 4, -8
 648              		.cfi_offset 14, -4
 649              		.loc 1 566 0
 650 0006 13F00104 		ands	r4, r3, #1
 651 000a 01D0     		beq	.L35
 652              		.loc 1 567 0
 653 000c 0120     		movs	r0, #1
 654              	.LVL57:
 655              		.loc 1 571 0
 656 000e 10BD     		pop	{r4, pc}
 657              	.LVL58:
 658              	.L35:
 659              		.loc 1 569 0
 660 0010 FFF7FEFF 		bl	usb_lld_stall_in
 661              	.LVL59:
 662              		.loc 1 570 0
 663 0014 2046     		mov	r0, r4
 664 0016 10BD     		pop	{r4, pc}
 665              		.cfi_endproc
ARM GAS  /tmp/ccc4m1rg.s 			page 13


 666              	.LFE133:
 667              		.size	usbStallTransmitI, .-usbStallTransmitI
 668 0018 AFF30080 		.section	.text._usb_reset,"ax",%progbits
 668      AFF30080 
 669              		.align	2
 670              		.p2align 4,,15
 671              		.global	_usb_reset
 672              		.thumb
 673              		.thumb_func
 674              		.type	_usb_reset, %function
 675              	_usb_reset:
 676              	.LFB134:
 677              		.loc 1 582 0
 678              		.cfi_startproc
 679              		@ args = 0, pretend = 0, frame = 0
 680              		@ frame_needed = 0, uses_anonymous_args = 0
 681              		@ link register save eliminated.
 682              	.LVL60:
 683              		.loc 1 586 0
 684 0000 0022     		movs	r2, #0
 685              		.loc 1 585 0
 686 0002 0221     		movs	r1, #2
 687 0004 0170     		strb	r1, [r0]
 688              		.loc 1 586 0
 689 0006 A0F84C20 		strh	r2, [r0, #76]	@ movhi
 690              		.loc 1 587 0
 691 000a 80F84E20 		strb	r2, [r0, #78]
 692              		.loc 1 588 0
 693 000e 80F84F20 		strb	r2, [r0, #79]
 694              		.loc 1 589 0
 695 0012 0281     		strh	r2, [r0, #8]	@ movhi
 696              		.loc 1 590 0
 697 0014 4281     		strh	r2, [r0, #10]	@ movhi
 698              	.LVL61:
 699              		.loc 1 594 0
 700 0016 C260     		str	r2, [r0, #12]
 701              	.LVL62:
 702 0018 0261     		str	r2, [r0, #16]
 703              	.LVL63:
 704 001a 4261     		str	r2, [r0, #20]
 705              	.LVL64:
 706 001c 8261     		str	r2, [r0, #24]
 707              	.LVL65:
 708              		.loc 1 597 0
 709 001e 80F83420 		strb	r2, [r0, #52]
 710              		.loc 1 600 0
 711 0022 FFF7FEBF 		b	usb_lld_reset
 712              	.LVL66:
 713              		.cfi_endproc
 714              	.LFE134:
 715              		.size	_usb_reset, .-_usb_reset
 716 0026 00BFAFF3 		.section	.text._usb_ep0setup,"ax",%progbits
 716      0080AFF3 
 716      0080
 717              		.align	2
 718              		.p2align 4,,15
 719              		.global	_usb_ep0setup
ARM GAS  /tmp/ccc4m1rg.s 			page 14


 720              		.thumb
 721              		.thumb_func
 722              		.type	_usb_ep0setup, %function
 723              	_usb_ep0setup:
 724              	.LFB135:
 725              		.loc 1 613 0
 726              		.cfi_startproc
 727              		@ args = 0, pretend = 0, frame = 0
 728              		@ frame_needed = 0, uses_anonymous_args = 0
 729              	.LVL67:
 730 0000 F8B5     		push	{r3, r4, r5, r6, r7, lr}
 731              		.cfi_def_cfa_offset 24
 732              		.cfi_offset 3, -24
 733              		.cfi_offset 4, -20
 734              		.cfi_offset 5, -16
 735              		.cfi_offset 6, -12
 736              		.cfi_offset 7, -8
 737              		.cfi_offset 14, -4
 738              		.loc 1 616 0
 739 0002 0023     		movs	r3, #0
 740              		.loc 1 613 0
 741 0004 0446     		mov	r4, r0
 742              		.loc 1 616 0
 743 0006 80F83430 		strb	r3, [r0, #52]
 744              		.loc 1 617 0
 745 000a 00F14402 		add	r2, r0, #68
 746 000e FFF7FEFF 		bl	usb_lld_read_setup
 747              	.LVL68:
 748              		.loc 1 621 0
 749 0012 6368     		ldr	r3, [r4, #4]
 750 0014 9B68     		ldr	r3, [r3, #8]
 751 0016 002B     		cmp	r3, #0
 752 0018 2DD0     		beq	.L42
 753              		.loc 1 622 0 discriminator 1
 754 001a 2046     		mov	r0, r4
 755 001c 9847     		blx	r3
 756              	.LVL69:
 757              		.loc 1 621 0 discriminator 1
 758 001e 50B3     		cbz	r0, .L42
 759 0020 E56B     		ldr	r5, [r4, #60]
 760 0022 94F84430 		ldrb	r3, [r4, #68]	@ zero_extendqisi2
 761              	.L81:
 762              		.loc 1 646 0
 763 0026 94F84B10 		ldrb	r1, [r4, #75]	@ zero_extendqisi2
 764 002a 94F84A20 		ldrb	r2, [r4, #74]	@ zero_extendqisi2
 765 002e 42EA0122 		orr	r2, r2, r1, lsl #8
 766              	.LVL70:
 767              		.loc 1 648 0
 768 0032 AA42     		cmp	r2, r5
 769              		.loc 1 649 0
 770 0034 3CBF     		itt	cc
 771 0036 E263     		strcc	r2, [r4, #60]
 772 0038 1546     		movcc	r5, r2
 773              		.loc 1 650 0
 774 003a 13F0800F 		tst	r3, #128
 775              	.LBB56:
 776              	.LBB57:
ARM GAS  /tmp/ccc4m1rg.s 			page 15


 777              		.loc 1 406 0
 778 003e E368     		ldr	r3, [r4, #12]
 779              	.LBE57:
 780              	.LBE56:
 781              		.loc 1 650 0
 782 0040 40F08A80 		bne	.L105
 783              		.loc 1 676 0
 784 0044 002D     		cmp	r5, #0
 785 0046 6ED1     		bne	.L106
 786              	.LBB61:
 787              	.LBB62:
 788              		.loc 1 406 0
 789 0048 5B69     		ldr	r3, [r3, #20]
 790              	.LBE62:
 791              	.LBE61:
 792              		.loc 1 687 0
 793 004a 0522     		movs	r2, #5
 794              	.LVL71:
 795 004c 84F83420 		strb	r2, [r4, #52]
 796              	.LVL72:
 797              	.LBB64:
 798              	.LBB63:
 799              		.loc 1 413 0
 800 0050 2046     		mov	r0, r4
 801              		.loc 1 408 0
 802 0052 1D70     		strb	r5, [r3]
 803              	.LVL73:
 804              		.loc 1 409 0
 805 0054 DD60     		str	r5, [r3, #12]
 806              		.loc 1 410 0
 807 0056 5D60     		str	r5, [r3, #4]
 808              		.loc 1 411 0
 809 0058 9D60     		str	r5, [r3, #8]
 810              		.loc 1 413 0
 811 005a 2946     		mov	r1, r5
 812 005c FFF7FEFF 		bl	usb_lld_prepare_transmit
 813              	.LVL74:
 814              	.LBE63:
 815              	.LBE64:
 816              	.LBB65:
 817              		.loc 1 690 0
 818 0060 2023     		movs	r3, #32
 819              	@ 690 "/home/marco/SoftwareProjects/st-usb/f9xx/firmware/ext/ChibiOS-RT/os/hal/src/usb.c" 1
 820 0062 83F31188 		msr     BASEPRI, r3
 821              	@ 0 "" 2
 822              		.thumb
 823              	.LBE65:
 824              		.loc 1 691 0
 825 0066 2046     		mov	r0, r4
 826 0068 2946     		mov	r1, r5
 827 006a FFF7FEFF 		bl	usbStartTransmitI
 828              	.LVL75:
 829              	.LBB66:
 830              		.loc 1 692 0
 831 006e 2B46     		mov	r3, r5
 832              	@ 692 "/home/marco/SoftwareProjects/st-usb/f9xx/firmware/ext/ChibiOS-RT/os/hal/src/usb.c" 1
 833 0070 83F31188 		msr     BASEPRI, r3
ARM GAS  /tmp/ccc4m1rg.s 			page 16


 834              	@ 0 "" 2
 835              		.thumb
 836 0074 F8BD     		pop	{r3, r4, r5, r6, r7, pc}
 837              	.LVL76:
 838              	.L42:
 839              	.LBE66:
 840              		.loc 1 625 0
 841 0076 94F84430 		ldrb	r3, [r4, #68]	@ zero_extendqisi2
 842 007a 13F06007 		ands	r7, r3, #96
 843 007e 11D0     		beq	.L107
 844              	.L39:
 845              		.loc 1 630 0
 846 0080 2046     		mov	r0, r4
 847 0082 0021     		movs	r1, #0
 848 0084 FFF7FEFF 		bl	usb_lld_stall_in
 849              	.LVL77:
 850              		.loc 1 631 0
 851 0088 2046     		mov	r0, r4
 852 008a 0021     		movs	r1, #0
 853 008c FFF7FEFF 		bl	usb_lld_stall_out
 854              	.LVL78:
 855              		.loc 1 632 0
 856 0090 6368     		ldr	r3, [r4, #4]
 857 0092 1B68     		ldr	r3, [r3]
 858 0094 13B1     		cbz	r3, .L75
 859              		.loc 1 632 0 is_stmt 0 discriminator 1
 860 0096 2046     		mov	r0, r4
 861 0098 0521     		movs	r1, #5
 862 009a 9847     		blx	r3
 863              	.LVL79:
 864              	.L75:
 865              		.loc 1 633 0 is_stmt 1
 866 009c 0623     		movs	r3, #6
 867 009e 84F83430 		strb	r3, [r4, #52]
 868              		.loc 1 634 0
 869 00a2 F8BD     		pop	{r3, r4, r5, r6, r7, pc}
 870              	.LVL80:
 871              	.L107:
 872              	.LBB67:
 873              	.LBB68:
 874              		.loc 1 95 0
 875 00a4 94F84560 		ldrb	r6, [r4, #69]	@ zero_extendqisi2
 876              		.loc 1 93 0
 877 00a8 03F07F02 		and	r2, r3, #127
 878              		.loc 1 94 0
 879 00ac 42EA0626 		orr	r6, r2, r6, lsl #8
 880              		.loc 1 93 0
 881 00b0 B6F5407F 		cmp	r6, #768
 882 00b4 00F00381 		beq	.L44
 883 00b8 17DD     		ble	.L108
 884 00ba B6F5C06F 		cmp	r6, #1536
 885 00be 00F0E580 		beq	.L52
 886 00c2 7ADD     		ble	.L109
 887 00c4 B6F5106F 		cmp	r6, #2304
 888 00c8 00F08A80 		beq	.L56
 889 00cc 40F60242 		movw	r2, #3074
 890 00d0 9642     		cmp	r6, r2
ARM GAS  /tmp/ccc4m1rg.s 			page 17


 891 00d2 00F00781 		beq	.L49
 892 00d6 B6F5006F 		cmp	r6, #2048
 893 00da D1D1     		bne	.L39
 894              		.loc 1 142 0
 895 00dc 04F14F02 		add	r2, r4, #79
 896 00e0 0125     		movs	r5, #1
 897 00e2 2764     		str	r7, [r4, #64]
 898 00e4 A263     		str	r2, [r4, #56]
 899 00e6 E563     		str	r5, [r4, #60]
 900 00e8 9DE7     		b	.L81
 901              	.L108:
 902              		.loc 1 93 0
 903 00ea 022E     		cmp	r6, #2
 904 00ec 00F0B780 		beq	.L46
 905 00f0 40F3AC80 		ble	.L110
 906 00f4 B6F5807F 		cmp	r6, #256
 907 00f8 00F09880 		beq	.L50
 908 00fc B6F5817F 		cmp	r6, #258
 909 0100 BED1     		bne	.L39
 910              		.loc 1 188 0
 911 0102 94F84620 		ldrb	r2, [r4, #70]	@ zero_extendqisi2
 912 0106 002A     		cmp	r2, #0
 913 0108 BAD1     		bne	.L39
 914              		.loc 1 191 0
 915 010a 94F84820 		ldrb	r2, [r4, #72]	@ zero_extendqisi2
 916 010e 12F00F01 		ands	r1, r2, #15
 917 0112 60D0     		beq	.L73
 918              		.loc 1 192 0
 919 0114 1206     		lsls	r2, r2, #24
 920              		.loc 1 193 0
 921 0116 2046     		mov	r0, r4
 922              		.loc 1 192 0
 923 0118 00F10C81 		bmi	.L111
 924              	.LVL81:
 925              		.loc 1 195 0
 926 011c FFF7FEFF 		bl	usb_lld_clear_out
 927              	.LVL82:
 928 0120 94F84430 		ldrb	r3, [r4, #68]	@ zero_extendqisi2
 929 0124 57E0     		b	.L73
 930              	.LVL83:
 931              	.L106:
 932              	.LBE68:
 933              	.LBE67:
 934              	.LBB72:
 935              	.LBB73:
 936              		.loc 1 380 0
 937 0126 9B69     		ldr	r3, [r3, #24]
 938              	.LBE73:
 939              	.LBE72:
 940              		.loc 1 679 0
 941 0128 A26B     		ldr	r2, [r4, #56]
 942              	.LVL84:
 943              	.LBB76:
 944              	.LBB74:
 945              		.loc 1 382 0
 946 012a 0026     		movs	r6, #0
 947              	.LBE74:
ARM GAS  /tmp/ccc4m1rg.s 			page 18


 948              	.LBE76:
 949              		.loc 1 678 0
 950 012c 0421     		movs	r1, #4
 951              	.LVL85:
 952 012e 84F83410 		strb	r1, [r4, #52]
 953              	.LBB77:
 954              	.LBB75:
 955              		.loc 1 387 0
 956 0132 2046     		mov	r0, r4
 957              		.loc 1 383 0
 958 0134 DA60     		str	r2, [r3, #12]
 959              	.LVL86:
 960              		.loc 1 384 0
 961 0136 5D60     		str	r5, [r3, #4]
 962              		.loc 1 382 0
 963 0138 1E70     		strb	r6, [r3]
 964              		.loc 1 385 0
 965 013a 9E60     		str	r6, [r3, #8]
 966              		.loc 1 387 0
 967 013c 3146     		mov	r1, r6
 968 013e FFF7FEFF 		bl	usb_lld_prepare_receive
 969              	.LVL87:
 970              	.LBE75:
 971              	.LBE77:
 972              	.LBB78:
 973              		.loc 1 680 0
 974 0142 2023     		movs	r3, #32
 975              	@ 680 "/home/marco/SoftwareProjects/st-usb/f9xx/firmware/ext/ChibiOS-RT/os/hal/src/usb.c" 1
 976 0144 83F31188 		msr     BASEPRI, r3
 977              	@ 0 "" 2
 978              		.thumb
 979              	.LBE78:
 980              		.loc 1 681 0
 981 0148 2046     		mov	r0, r4
 982 014a 3146     		mov	r1, r6
 983 014c FFF7FEFF 		bl	usbStartReceiveI
 984              	.LVL88:
 985              	.LBB79:
 986              		.loc 1 682 0
 987 0150 3346     		mov	r3, r6
 988              	@ 682 "/home/marco/SoftwareProjects/st-usb/f9xx/firmware/ext/ChibiOS-RT/os/hal/src/usb.c" 1
 989 0152 83F31188 		msr     BASEPRI, r3
 990              	@ 0 "" 2
 991              		.thumb
 992              	.LBE79:
 993 0156 F8BD     		pop	{r3, r4, r5, r6, r7, pc}
 994              	.LVL89:
 995              	.L105:
 996              		.loc 1 652 0
 997 0158 C5B1     		cbz	r5, .L79
 998              	.LBB80:
 999              	.LBB58:
 1000              		.loc 1 406 0
 1001 015a 5B69     		ldr	r3, [r3, #20]
 1002              	.LBE58:
 1003              	.LBE80:
 1004              		.loc 1 655 0
ARM GAS  /tmp/ccc4m1rg.s 			page 19


 1005 015c A26B     		ldr	r2, [r4, #56]
 1006              	.LVL90:
 1007              	.LBB81:
 1008              	.LBB59:
 1009              		.loc 1 408 0
 1010 015e 0026     		movs	r6, #0
 1011              	.LBE59:
 1012              	.LBE81:
 1013              		.loc 1 654 0
 1014 0160 0121     		movs	r1, #1
 1015              	.LVL91:
 1016 0162 84F83410 		strb	r1, [r4, #52]
 1017              	.LBB82:
 1018              	.LBB60:
 1019              		.loc 1 413 0
 1020 0166 2046     		mov	r0, r4
 1021              		.loc 1 409 0
 1022 0168 DA60     		str	r2, [r3, #12]
 1023              	.LVL92:
 1024              		.loc 1 410 0
 1025 016a 5D60     		str	r5, [r3, #4]
 1026              		.loc 1 408 0
 1027 016c 1E70     		strb	r6, [r3]
 1028              		.loc 1 411 0
 1029 016e 9E60     		str	r6, [r3, #8]
 1030              		.loc 1 413 0
 1031 0170 3146     		mov	r1, r6
 1032 0172 FFF7FEFF 		bl	usb_lld_prepare_transmit
 1033              	.LVL93:
 1034              	.LBE60:
 1035              	.LBE82:
 1036              	.LBB83:
 1037              		.loc 1 656 0
 1038 0176 2023     		movs	r3, #32
 1039              	@ 656 "/home/marco/SoftwareProjects/st-usb/f9xx/firmware/ext/ChibiOS-RT/os/hal/src/usb.c" 1
 1040 0178 83F31188 		msr     BASEPRI, r3
 1041              	@ 0 "" 2
 1042              		.thumb
 1043              	.LBE83:
 1044              		.loc 1 657 0
 1045 017c 2046     		mov	r0, r4
 1046 017e 3146     		mov	r1, r6
 1047 0180 FFF7FEFF 		bl	usbStartTransmitI
 1048              	.LVL94:
 1049              	.LBB84:
 1050              		.loc 1 658 0
 1051 0184 3346     		mov	r3, r6
 1052              	@ 658 "/home/marco/SoftwareProjects/st-usb/f9xx/firmware/ext/ChibiOS-RT/os/hal/src/usb.c" 1
 1053 0186 83F31188 		msr     BASEPRI, r3
 1054              	@ 0 "" 2
 1055              		.thumb
 1056              	.LBE84:
 1057 018a F8BD     		pop	{r3, r4, r5, r6, r7, pc}
 1058              	.LVL95:
 1059              	.L79:
 1060              	.LBB85:
 1061              	.LBB86:
ARM GAS  /tmp/ccc4m1rg.s 			page 20


 1062              		.loc 1 380 0
 1063 018c 9B69     		ldr	r3, [r3, #24]
 1064              	.LBE86:
 1065              	.LBE85:
 1066              		.loc 1 663 0
 1067 018e 0322     		movs	r2, #3
 1068              	.LVL96:
 1069 0190 84F83420 		strb	r2, [r4, #52]
 1070              	.LVL97:
 1071              	.LBB88:
 1072              	.LBB87:
 1073              		.loc 1 387 0
 1074 0194 2046     		mov	r0, r4
 1075              		.loc 1 382 0
 1076 0196 1D70     		strb	r5, [r3]
 1077              	.LVL98:
 1078              		.loc 1 383 0
 1079 0198 DD60     		str	r5, [r3, #12]
 1080              		.loc 1 384 0
 1081 019a 5D60     		str	r5, [r3, #4]
 1082              		.loc 1 385 0
 1083 019c 9D60     		str	r5, [r3, #8]
 1084              		.loc 1 387 0
 1085 019e 2946     		mov	r1, r5
 1086 01a0 FFF7FEFF 		bl	usb_lld_prepare_receive
 1087              	.LVL99:
 1088              	.LBE87:
 1089              	.LBE88:
 1090              	.LBB89:
 1091              		.loc 1 666 0
 1092 01a4 2023     		movs	r3, #32
 1093              	@ 666 "/home/marco/SoftwareProjects/st-usb/f9xx/firmware/ext/ChibiOS-RT/os/hal/src/usb.c" 1
 1094 01a6 83F31188 		msr     BASEPRI, r3
 1095              	@ 0 "" 2
 1096              		.thumb
 1097              	.LBE89:
 1098              		.loc 1 667 0
 1099 01aa 2046     		mov	r0, r4
 1100 01ac 2946     		mov	r1, r5
 1101 01ae FFF7FEFF 		bl	usbStartReceiveI
 1102              	.LVL100:
 1103              	.LBB90:
 1104              		.loc 1 668 0
 1105 01b2 2B46     		mov	r3, r5
 1106              	@ 668 "/home/marco/SoftwareProjects/st-usb/f9xx/firmware/ext/ChibiOS-RT/os/hal/src/usb.c" 1
 1107 01b4 83F31188 		msr     BASEPRI, r3
 1108              	@ 0 "" 2
 1109              		.thumb
 1110 01b8 F8BD     		pop	{r3, r4, r5, r6, r7, pc}
 1111              	.LVL101:
 1112              	.L109:
 1113              	.LBE90:
 1114              	.LBB91:
 1115              	.LBB71:
 1116              		.loc 1 93 0
 1117 01ba 40F20232 		movw	r2, #770
 1118 01be 9642     		cmp	r6, r2
ARM GAS  /tmp/ccc4m1rg.s 			page 21


 1119 01c0 21D0     		beq	.L54
 1120 01c2 B6F5A06F 		cmp	r6, #1280
 1121 01c6 7FF45BAF 		bne	.L39
 1122              		.loc 1 123 0
 1123 01ca B4F84420 		ldrh	r2, [r4, #68]
 1124 01ce B2F5A06F 		cmp	r2, #1280
 1125 01d2 00F09D80 		beq	.L112
 1126              	.L73:
 1127              		.loc 1 210 0
 1128 01d6 0025     		movs	r5, #0
 1129 01d8 A563     		str	r5, [r4, #56]
 1130 01da E563     		str	r5, [r4, #60]
 1131 01dc 2564     		str	r5, [r4, #64]
 1132 01de 22E7     		b	.L81
 1133              	.L56:
 1134              		.loc 1 146 0
 1135 01e0 94F84620 		ldrb	r2, [r4, #70]	@ zero_extendqisi2
 1136 01e4 84F84F20 		strb	r2, [r4, #79]
 1137              		.loc 1 147 0
 1138 01e8 002A     		cmp	r2, #0
 1139 01ea 40F08280 		bne	.L63
 1140              		.loc 1 148 0
 1141 01ee 0322     		movs	r2, #3
 1142 01f0 2270     		strb	r2, [r4]
 1143              	.L64:
 1144              		.loc 1 151 0
 1145 01f2 6268     		ldr	r2, [r4, #4]
 1146 01f4 1268     		ldr	r2, [r2]
 1147 01f6 002A     		cmp	r2, #0
 1148 01f8 EDD0     		beq	.L73
 1149 01fa 2046     		mov	r0, r4
 1150 01fc 0221     		movs	r1, #2
 1151 01fe 9047     		blx	r2
 1152              	.LVL102:
 1153 0200 94F84430 		ldrb	r3, [r4, #68]	@ zero_extendqisi2
 1154 0204 E7E7     		b	.L73
 1155              	.L54:
 1156              		.loc 1 201 0
 1157 0206 94F84620 		ldrb	r2, [r4, #70]	@ zero_extendqisi2
 1158 020a 002A     		cmp	r2, #0
 1159 020c 7FF438AF 		bne	.L39
 1160              		.loc 1 204 0
 1161 0210 94F84820 		ldrb	r2, [r4, #72]	@ zero_extendqisi2
 1162 0214 12F00F01 		ands	r1, r2, #15
 1163 0218 DDD0     		beq	.L73
 1164              		.loc 1 205 0
 1165 021a 1306     		lsls	r3, r2, #24
 1166              		.loc 1 206 0
 1167 021c 2046     		mov	r0, r4
 1168              		.loc 1 205 0
 1169 021e 00F18E80 		bmi	.L113
 1170              	.LVL103:
 1171              		.loc 1 208 0
 1172 0222 FFF7FEFF 		bl	usb_lld_stall_out
 1173              	.LVL104:
 1174 0226 94F84430 		ldrb	r3, [r4, #68]	@ zero_extendqisi2
 1175 022a D4E7     		b	.L73
ARM GAS  /tmp/ccc4m1rg.s 			page 22


 1176              	.L50:
 1177              		.loc 1 103 0
 1178 022c 94F84620 		ldrb	r2, [r4, #70]	@ zero_extendqisi2
 1179 0230 012A     		cmp	r2, #1
 1180 0232 7FF425AF 		bne	.L39
 1181              		.loc 1 104 0
 1182 0236 B4F84C20 		ldrh	r2, [r4, #76]
 1183              		.loc 1 105 0
 1184 023a A763     		str	r7, [r4, #56]
 1185              		.loc 1 104 0
 1186 023c 22F00202 		bic	r2, r2, #2
 1187              		.loc 1 105 0
 1188 0240 E763     		str	r7, [r4, #60]
 1189 0242 2764     		str	r7, [r4, #64]
 1190 0244 3D46     		mov	r5, r7
 1191              		.loc 1 104 0
 1192 0246 A4F84C20 		strh	r2, [r4, #76]	@ movhi
 1193 024a ECE6     		b	.L81
 1194              	.L110:
 1195              		.loc 1 93 0
 1196 024c 002E     		cmp	r6, #0
 1197 024e 46D1     		bne	.L114
 1198              		.loc 1 98 0
 1199 0250 04F14C02 		add	r2, r4, #76
 1200 0254 0225     		movs	r5, #2
 1201 0256 2664     		str	r6, [r4, #64]
 1202 0258 A263     		str	r2, [r4, #56]
 1203 025a E563     		str	r5, [r4, #60]
 1204 025c E3E6     		b	.L81
 1205              	.L46:
 1206              		.loc 1 162 0
 1207 025e 94F84810 		ldrb	r1, [r4, #72]	@ zero_extendqisi2
 1208 0262 11F0800F 		tst	r1, #128
 1209              		.loc 1 163 0
 1210 0266 2046     		mov	r0, r4
 1211 0268 01F00F01 		and	r1, r1, #15
 1212              		.loc 1 162 0
 1213 026c 44D1     		bne	.L115
 1214              	.LVL105:
 1215              		.loc 1 175 0
 1216 026e FFF7FEFF 		bl	usb_lld_get_status_out
 1217              	.LVL106:
 1218 0272 0128     		cmp	r0, #1
 1219 0274 44D0     		beq	.L69
 1220              	.L104:
 1221 0276 0228     		cmp	r0, #2
 1222 0278 7FF402AF 		bne	.L39
 1223              		.loc 1 180 0
 1224 027c 324B     		ldr	r3, .L116
 1225 027e A363     		str	r3, [r4, #56]
 1226 0280 E063     		str	r0, [r4, #60]
 1227 0282 2764     		str	r7, [r4, #64]
 1228 0284 0546     		mov	r5, r0
 1229 0286 94F84430 		ldrb	r3, [r4, #68]	@ zero_extendqisi2
 1230 028a CCE6     		b	.L81
 1231              	.L52:
 1232              		.loc 1 133 0
ARM GAS  /tmp/ccc4m1rg.s 			page 23


 1233 028c 6268     		ldr	r2, [r4, #4]
 1234              		.loc 1 135 0
 1235 028e 94F84900 		ldrb	r0, [r4, #73]	@ zero_extendqisi2
 1236              		.loc 1 133 0
 1237 0292 94F84830 		ldrb	r3, [r4, #72]	@ zero_extendqisi2
 1238 0296 5568     		ldr	r5, [r2, #4]
 1239 0298 94F84710 		ldrb	r1, [r4, #71]	@ zero_extendqisi2
 1240 029c 94F84620 		ldrb	r2, [r4, #70]	@ zero_extendqisi2
 1241 02a0 43EA0023 		orr	r3, r3, r0, lsl #8
 1242 02a4 2046     		mov	r0, r4
 1243 02a6 A847     		blx	r5
 1244              	.LVL107:
 1245              		.loc 1 136 0
 1246 02a8 0028     		cmp	r0, #0
 1247 02aa 3FF4E9AE 		beq	.L39
 1248              		.loc 1 138 0
 1249 02ae 4368     		ldr	r3, [r0, #4]
 1250 02b0 0568     		ldr	r5, [r0]
 1251 02b2 E563     		str	r5, [r4, #60]
 1252 02b4 A363     		str	r3, [r4, #56]
 1253 02b6 2764     		str	r7, [r4, #64]
 1254 02b8 94F84430 		ldrb	r3, [r4, #68]	@ zero_extendqisi2
 1255 02bc B3E6     		b	.L81
 1256              	.LVL108:
 1257              	.L44:
 1258              		.loc 1 112 0
 1259 02be 94F84620 		ldrb	r2, [r4, #70]	@ zero_extendqisi2
 1260 02c2 012A     		cmp	r2, #1
 1261 02c4 7FF4DCAE 		bne	.L39
 1262              		.loc 1 113 0
 1263 02c8 B4F84C20 		ldrh	r2, [r4, #76]
 1264              		.loc 1 114 0
 1265 02cc A763     		str	r7, [r4, #56]
 1266              		.loc 1 113 0
 1267 02ce 42F00202 		orr	r2, r2, #2
 1268              		.loc 1 114 0
 1269 02d2 E763     		str	r7, [r4, #60]
 1270 02d4 2764     		str	r7, [r4, #64]
 1271 02d6 3D46     		mov	r5, r7
 1272              		.loc 1 113 0
 1273 02d8 A4F84C20 		strh	r2, [r4, #76]	@ movhi
 1274 02dc A3E6     		b	.L81
 1275              	.L114:
 1276              		.loc 1 93 0
 1277 02de 012E     		cmp	r6, #1
 1278 02e0 7FF4CEAE 		bne	.L39
 1279              	.L49:
 1280              		.loc 1 158 0
 1281 02e4 194A     		ldr	r2, .L116+4
 1282 02e6 A263     		str	r2, [r4, #56]
 1283 02e8 0225     		movs	r5, #2
 1284 02ea 0022     		movs	r2, #0
 1285 02ec E563     		str	r5, [r4, #60]
 1286 02ee 2264     		str	r2, [r4, #64]
 1287 02f0 99E6     		b	.L81
 1288              	.L63:
 1289              		.loc 1 150 0
ARM GAS  /tmp/ccc4m1rg.s 			page 24


 1290 02f2 0422     		movs	r2, #4
 1291 02f4 2270     		strb	r2, [r4]
 1292 02f6 7CE7     		b	.L64
 1293              	.LVL109:
 1294              	.L115:
 1295              		.loc 1 163 0
 1296 02f8 FFF7FEFF 		bl	usb_lld_get_status_in
 1297              	.LVL110:
 1298 02fc 0128     		cmp	r0, #1
 1299 02fe BAD1     		bne	.L104
 1300              	.L69:
 1301              		.loc 1 177 0
 1302 0300 134B     		ldr	r3, .L116+8
 1303 0302 A363     		str	r3, [r4, #56]
 1304 0304 E663     		str	r6, [r4, #60]
 1305 0306 2764     		str	r7, [r4, #64]
 1306 0308 3546     		mov	r5, r6
 1307 030a 94F84430 		ldrb	r3, [r4, #68]	@ zero_extendqisi2
 1308 030e 8AE6     		b	.L81
 1309              	.L112:
 1310              	.LVL111:
 1311              	.LBB69:
 1312              	.LBB70:
 1313              		.loc 1 71 0
 1314 0310 94F84630 		ldrb	r3, [r4, #70]	@ zero_extendqisi2
 1315 0314 84F84E30 		strb	r3, [r4, #78]
 1316              		.loc 1 72 0
 1317 0318 2046     		mov	r0, r4
 1318 031a FFF7FEFF 		bl	usb_lld_set_address
 1319              	.LVL112:
 1320              		.loc 1 73 0
 1321 031e 6368     		ldr	r3, [r4, #4]
 1322 0320 1B68     		ldr	r3, [r3]
 1323 0322 13B1     		cbz	r3, .L62
 1324 0324 2046     		mov	r0, r4
 1325 0326 0121     		movs	r1, #1
 1326 0328 9847     		blx	r3
 1327              	.LVL113:
 1328              	.L62:
 1329              		.loc 1 74 0
 1330 032a 0322     		movs	r2, #3
 1331 032c 94F84430 		ldrb	r3, [r4, #68]	@ zero_extendqisi2
 1332 0330 2270     		strb	r2, [r4]
 1333 0332 50E7     		b	.L73
 1334              	.LVL114:
 1335              	.L111:
 1336              	.LBE70:
 1337              	.LBE69:
 1338              		.loc 1 193 0
 1339 0334 FFF7FEFF 		bl	usb_lld_clear_in
 1340              	.LVL115:
 1341 0338 94F84430 		ldrb	r3, [r4, #68]	@ zero_extendqisi2
 1342 033c 4BE7     		b	.L73
 1343              	.LVL116:
 1344              	.L113:
 1345              		.loc 1 206 0
 1346 033e FFF7FEFF 		bl	usb_lld_stall_in
ARM GAS  /tmp/ccc4m1rg.s 			page 25


 1347              	.LVL117:
 1348 0342 94F84430 		ldrb	r3, [r4, #68]	@ zero_extendqisi2
 1349 0346 46E7     		b	.L73
 1350              	.L117:
 1351              		.align	2
 1352              	.L116:
 1353 0348 00000000 		.word	.LANCHOR2
 1354 034c 00000000 		.word	.LANCHOR0
 1355 0350 00000000 		.word	.LANCHOR1
 1356              	.LBE71:
 1357              	.LBE91:
 1358              		.cfi_endproc
 1359              	.LFE135:
 1360              		.size	_usb_ep0setup, .-_usb_ep0setup
 1361 0354 AFF30080 		.section	.text._usb_ep0in,"ax",%progbits
 1361      AFF30080 
 1361      AFF30080 
 1362              		.align	2
 1363              		.p2align 4,,15
 1364              		.global	_usb_ep0in
 1365              		.thumb
 1366              		.thumb_func
 1367              		.type	_usb_ep0in, %function
 1368              	_usb_ep0in:
 1369              	.LFB136:
 1370              		.loc 1 710 0
 1371              		.cfi_startproc
 1372              		@ args = 0, pretend = 0, frame = 0
 1373              		@ frame_needed = 0, uses_anonymous_args = 0
 1374              	.LVL118:
 1375 0000 38B5     		push	{r3, r4, r5, lr}
 1376              		.cfi_def_cfa_offset 16
 1377              		.cfi_offset 3, -16
 1378              		.cfi_offset 4, -12
 1379              		.cfi_offset 5, -8
 1380              		.cfi_offset 14, -4
 1381              		.loc 1 714 0
 1382 0002 90F83430 		ldrb	r3, [r0, #52]	@ zero_extendqisi2
 1383 0006 022B     		cmp	r3, #2
 1384              		.loc 1 710 0
 1385 0008 0446     		mov	r4, r0
 1386              		.loc 1 714 0
 1387 000a 43D0     		beq	.L120
 1388 000c 052B     		cmp	r3, #5
 1389 000e 3AD0     		beq	.L121
 1390 0010 012B     		cmp	r3, #1
 1391 0012 10D0     		beq	.L135
 1392              		.loc 1 753 0
 1393 0014 0021     		movs	r1, #0
 1394              	.LVL119:
 1395 0016 FFF7FEFF 		bl	usb_lld_stall_in
 1396              	.LVL120:
 1397              		.loc 1 754 0
 1398 001a 2046     		mov	r0, r4
 1399 001c 0021     		movs	r1, #0
 1400 001e FFF7FEFF 		bl	usb_lld_stall_out
 1401              	.LVL121:
ARM GAS  /tmp/ccc4m1rg.s 			page 26


 1402              		.loc 1 755 0
 1403 0022 6368     		ldr	r3, [r4, #4]
 1404 0024 1B68     		ldr	r3, [r3]
 1405 0026 13B1     		cbz	r3, .L127
 1406              		.loc 1 755 0 is_stmt 0 discriminator 1
 1407 0028 2046     		mov	r0, r4
 1408 002a 0521     		movs	r1, #5
 1409 002c 9847     		blx	r3
 1410              	.LVL122:
 1411              	.L127:
 1412              		.loc 1 756 0 is_stmt 1
 1413 002e 0623     		movs	r3, #6
 1414 0030 84F83430 		strb	r3, [r4, #52]
 1415 0034 38BD     		pop	{r3, r4, r5, pc}
 1416              	.LVL123:
 1417              	.L135:
 1418              		.loc 1 716 0
 1419 0036 90F84B20 		ldrb	r2, [r0, #75]	@ zero_extendqisi2
 1420 003a 90F84A30 		ldrb	r3, [r0, #74]	@ zero_extendqisi2
 1421              		.loc 1 720 0
 1422 003e C56B     		ldr	r5, [r0, #60]
 1423              		.loc 1 716 0
 1424 0040 43EA0223 		orr	r3, r3, r2, lsl #8
 1425              		.loc 1 720 0
 1426 0044 AB42     		cmp	r3, r5
 1427 0046 C268     		ldr	r2, [r0, #12]
 1428 0048 05D9     		bls	.L124
 1429              		.loc 1 720 0 is_stmt 0 discriminator 1
 1430 004a 138A     		ldrh	r3, [r2, #16]
 1431 004c B5FBF3F1 		udiv	r1, r5, r3
 1432              	.LVL124:
 1433 0050 03FB1155 		mls	r5, r3, r1, r5
 1434 0054 05B3     		cbz	r5, .L136
 1435              	.LVL125:
 1436              	.L124:
 1437              	.LBB92:
 1438              	.LBB93:
 1439              		.loc 1 380 0 is_stmt 1
 1440 0056 9369     		ldr	r3, [r2, #24]
 1441              		.loc 1 382 0
 1442 0058 0025     		movs	r5, #0
 1443              	.LBE93:
 1444              	.LBE92:
 1445              		.loc 1 731 0
 1446 005a 0322     		movs	r2, #3
 1447 005c 84F83420 		strb	r2, [r4, #52]
 1448              	.LVL126:
 1449              	.LBB95:
 1450              	.LBB94:
 1451              		.loc 1 387 0
 1452 0060 2946     		mov	r1, r5
 1453              		.loc 1 382 0
 1454 0062 1D70     		strb	r5, [r3]
 1455              		.loc 1 383 0
 1456 0064 DD60     		str	r5, [r3, #12]
 1457              		.loc 1 384 0
 1458 0066 5D60     		str	r5, [r3, #4]
ARM GAS  /tmp/ccc4m1rg.s 			page 27


 1459              		.loc 1 385 0
 1460 0068 9D60     		str	r5, [r3, #8]
 1461              		.loc 1 387 0
 1462 006a 2046     		mov	r0, r4
 1463              	.LVL127:
 1464 006c FFF7FEFF 		bl	usb_lld_prepare_receive
 1465              	.LVL128:
 1466              	.LBE94:
 1467              	.LBE95:
 1468              	.LBB96:
 1469              		.loc 1 734 0
 1470 0070 2023     		movs	r3, #32
 1471              	@ 734 "/home/marco/SoftwareProjects/st-usb/f9xx/firmware/ext/ChibiOS-RT/os/hal/src/usb.c" 1
 1472 0072 83F31188 		msr     BASEPRI, r3
 1473              	@ 0 "" 2
 1474              		.thumb
 1475              	.LBE96:
 1476              		.loc 1 735 0
 1477 0076 2046     		mov	r0, r4
 1478 0078 2946     		mov	r1, r5
 1479 007a FFF7FEFF 		bl	usbStartReceiveI
 1480              	.LVL129:
 1481              	.LBB97:
 1482              		.loc 1 736 0
 1483 007e 2B46     		mov	r3, r5
 1484              	@ 736 "/home/marco/SoftwareProjects/st-usb/f9xx/firmware/ext/ChibiOS-RT/os/hal/src/usb.c" 1
 1485 0080 83F31188 		msr     BASEPRI, r3
 1486              	@ 0 "" 2
 1487              		.thumb
 1488              	.LBE97:
 1489              		.loc 1 740 0
 1490 0084 38BD     		pop	{r3, r4, r5, pc}
 1491              	.LVL130:
 1492              	.L121:
 1493              		.loc 1 743 0
 1494 0086 036C     		ldr	r3, [r0, #64]
 1495 0088 03B1     		cbz	r3, .L126
 1496              		.loc 1 744 0
 1497 008a 9847     		blx	r3
 1498              	.LVL131:
 1499              	.L126:
 1500              		.loc 1 745 0
 1501 008c 0023     		movs	r3, #0
 1502 008e 84F83430 		strb	r3, [r4, #52]
 1503              		.loc 1 746 0
 1504 0092 38BD     		pop	{r3, r4, r5, pc}
 1505              	.LVL132:
 1506              	.L120:
 1507 0094 C268     		ldr	r2, [r0, #12]
 1508 0096 DEE7     		b	.L124
 1509              	.LVL133:
 1510              	.L136:
 1511              	.LBB98:
 1512              	.LBB99:
 1513              		.loc 1 406 0
 1514 0098 5369     		ldr	r3, [r2, #20]
 1515              	.LVL134:
ARM GAS  /tmp/ccc4m1rg.s 			page 28


 1516              		.loc 1 413 0
 1517 009a 2946     		mov	r1, r5
 1518              		.loc 1 408 0
 1519 009c 1D70     		strb	r5, [r3]
 1520              	.LVL135:
 1521              		.loc 1 409 0
 1522 009e DD60     		str	r5, [r3, #12]
 1523              		.loc 1 410 0
 1524 00a0 5D60     		str	r5, [r3, #4]
 1525              		.loc 1 411 0
 1526 00a2 9D60     		str	r5, [r3, #8]
 1527              		.loc 1 413 0
 1528 00a4 FFF7FEFF 		bl	usb_lld_prepare_transmit
 1529              	.LVL136:
 1530              	.LBE99:
 1531              	.LBE98:
 1532              	.LBB100:
 1533              		.loc 1 722 0
 1534 00a8 2023     		movs	r3, #32
 1535              	@ 722 "/home/marco/SoftwareProjects/st-usb/f9xx/firmware/ext/ChibiOS-RT/os/hal/src/usb.c" 1
 1536 00aa 83F31188 		msr     BASEPRI, r3
 1537              	@ 0 "" 2
 1538              		.thumb
 1539              	.LBE100:
 1540              		.loc 1 723 0
 1541 00ae 2046     		mov	r0, r4
 1542 00b0 2946     		mov	r1, r5
 1543 00b2 FFF7FEFF 		bl	usbStartTransmitI
 1544              	.LVL137:
 1545              	.LBB101:
 1546              		.loc 1 724 0
 1547 00b6 2B46     		mov	r3, r5
 1548              	@ 724 "/home/marco/SoftwareProjects/st-usb/f9xx/firmware/ext/ChibiOS-RT/os/hal/src/usb.c" 1
 1549 00b8 83F31188 		msr     BASEPRI, r3
 1550              	@ 0 "" 2
 1551              		.thumb
 1552              	.LBE101:
 1553              		.loc 1 725 0
 1554 00bc 0223     		movs	r3, #2
 1555 00be 84F83430 		strb	r3, [r4, #52]
 1556              		.loc 1 726 0
 1557 00c2 38BD     		pop	{r3, r4, r5, pc}
 1558              		.cfi_endproc
 1559              	.LFE136:
 1560              		.size	_usb_ep0in, .-_usb_ep0in
 1561 00c4 AFF30080 		.section	.text._usb_ep0out,"ax",%progbits
 1561      AFF30080 
 1561      AFF30080 
 1562              		.align	2
 1563              		.p2align 4,,15
 1564              		.global	_usb_ep0out
 1565              		.thumb
 1566              		.thumb_func
 1567              		.type	_usb_ep0out, %function
 1568              	_usb_ep0out:
 1569              	.LFB137:
 1570              		.loc 1 769 0
ARM GAS  /tmp/ccc4m1rg.s 			page 29


 1571              		.cfi_startproc
 1572              		@ args = 0, pretend = 0, frame = 0
 1573              		@ frame_needed = 0, uses_anonymous_args = 0
 1574              	.LVL138:
 1575 0000 38B5     		push	{r3, r4, r5, lr}
 1576              		.cfi_def_cfa_offset 16
 1577              		.cfi_offset 3, -16
 1578              		.cfi_offset 4, -12
 1579              		.cfi_offset 5, -8
 1580              		.cfi_offset 14, -4
 1581              		.loc 1 772 0
 1582 0002 90F83430 		ldrb	r3, [r0, #52]	@ zero_extendqisi2
 1583 0006 032B     		cmp	r3, #3
 1584              		.loc 1 769 0
 1585 0008 0446     		mov	r4, r0
 1586              		.loc 1 772 0
 1587 000a 2BD0     		beq	.L139
 1588 000c 042B     		cmp	r3, #4
 1589 000e 11D0     		beq	.L150
 1590              	.L138:
 1591              		.loc 1 802 0
 1592 0010 2046     		mov	r0, r4
 1593              	.LVL139:
 1594 0012 0021     		movs	r1, #0
 1595              	.LVL140:
 1596 0014 FFF7FEFF 		bl	usb_lld_stall_in
 1597              	.LVL141:
 1598              		.loc 1 803 0
 1599 0018 2046     		mov	r0, r4
 1600 001a 0021     		movs	r1, #0
 1601 001c FFF7FEFF 		bl	usb_lld_stall_out
 1602              	.LVL142:
 1603              		.loc 1 804 0
 1604 0020 6368     		ldr	r3, [r4, #4]
 1605 0022 1B68     		ldr	r3, [r3]
 1606 0024 13B1     		cbz	r3, .L143
 1607              		.loc 1 804 0 is_stmt 0 discriminator 1
 1608 0026 2046     		mov	r0, r4
 1609 0028 0521     		movs	r1, #5
 1610 002a 9847     		blx	r3
 1611              	.LVL143:
 1612              	.L143:
 1613              		.loc 1 805 0 is_stmt 1
 1614 002c 0623     		movs	r3, #6
 1615 002e 84F83430 		strb	r3, [r4, #52]
 1616 0032 38BD     		pop	{r3, r4, r5, pc}
 1617              	.LVL144:
 1618              	.L150:
 1619              	.LBB102:
 1620              	.LBB103:
 1621              		.loc 1 406 0
 1622 0034 C368     		ldr	r3, [r0, #12]
 1623 0036 5B69     		ldr	r3, [r3, #20]
 1624              		.loc 1 408 0
 1625 0038 0025     		movs	r5, #0
 1626              	.LBE103:
 1627              	.LBE102:
ARM GAS  /tmp/ccc4m1rg.s 			page 30


 1628              		.loc 1 775 0
 1629 003a 0522     		movs	r2, #5
 1630 003c 80F83420 		strb	r2, [r0, #52]
 1631              	.LVL145:
 1632              	.LBB105:
 1633              	.LBB104:
 1634              		.loc 1 413 0
 1635 0040 2946     		mov	r1, r5
 1636              	.LVL146:
 1637              		.loc 1 408 0
 1638 0042 1D70     		strb	r5, [r3]
 1639              		.loc 1 409 0
 1640 0044 DD60     		str	r5, [r3, #12]
 1641              		.loc 1 410 0
 1642 0046 5D60     		str	r5, [r3, #4]
 1643              		.loc 1 411 0
 1644 0048 9D60     		str	r5, [r3, #8]
 1645              		.loc 1 413 0
 1646 004a FFF7FEFF 		bl	usb_lld_prepare_transmit
 1647              	.LVL147:
 1648              	.LBE104:
 1649              	.LBE105:
 1650              	.LBB106:
 1651              		.loc 1 778 0
 1652 004e 2023     		movs	r3, #32
 1653              	@ 778 "/home/marco/SoftwareProjects/st-usb/f9xx/firmware/ext/ChibiOS-RT/os/hal/src/usb.c" 1
 1654 0050 83F31188 		msr     BASEPRI, r3
 1655              	@ 0 "" 2
 1656              		.thumb
 1657              	.LBE106:
 1658              		.loc 1 779 0
 1659 0054 2046     		mov	r0, r4
 1660 0056 2946     		mov	r1, r5
 1661 0058 FFF7FEFF 		bl	usbStartTransmitI
 1662              	.LVL148:
 1663              	.LBB107:
 1664              		.loc 1 780 0
 1665 005c 2B46     		mov	r3, r5
 1666              	@ 780 "/home/marco/SoftwareProjects/st-usb/f9xx/firmware/ext/ChibiOS-RT/os/hal/src/usb.c" 1
 1667 005e 83F31188 		msr     BASEPRI, r3
 1668              	@ 0 "" 2
 1669              		.thumb
 1670              	.LBE107:
 1671              		.loc 1 784 0
 1672 0062 38BD     		pop	{r3, r4, r5, pc}
 1673              	.LVL149:
 1674              	.L139:
 1675              		.loc 1 789 0
 1676 0064 C368     		ldr	r3, [r0, #12]
 1677 0066 9B69     		ldr	r3, [r3, #24]
 1678 0068 9B68     		ldr	r3, [r3, #8]
 1679 006a 002B     		cmp	r3, #0
 1680 006c D0D1     		bne	.L138
 1681              		.loc 1 792 0
 1682 006e 036C     		ldr	r3, [r0, #64]
 1683 0070 03B1     		cbz	r3, .L142
 1684              		.loc 1 793 0
ARM GAS  /tmp/ccc4m1rg.s 			page 31


 1685 0072 9847     		blx	r3
 1686              	.LVL150:
 1687              	.L142:
 1688              		.loc 1 794 0
 1689 0074 0023     		movs	r3, #0
 1690 0076 84F83430 		strb	r3, [r4, #52]
 1691              		.loc 1 795 0
 1692 007a 38BD     		pop	{r3, r4, r5, pc}
 1693              		.cfi_endproc
 1694              	.LFE137:
 1695              		.size	_usb_ep0out, .-_usb_ep0out
 1696 007c AFF30080 		.section	.rodata.zero_status,"a",%progbits
 1697              		.align	2
 1698              		.set	.LANCHOR0,. + 0
 1699              		.type	zero_status, %object
 1700              		.size	zero_status, 2
 1701              	zero_status:
 1702 0000 0000     		.space	2
 1703 0002 0000     		.section	.rodata.active_status,"a",%progbits
 1704              		.align	2
 1705              		.set	.LANCHOR2,. + 0
 1706              		.type	active_status, %object
 1707              		.size	active_status, 2
 1708              	active_status:
 1709 0000 0000     		.space	2
 1710 0002 0000     		.section	.rodata.halted_status,"a",%progbits
 1711              		.align	2
 1712              		.set	.LANCHOR1,. + 0
 1713              		.type	halted_status, %object
 1714              		.size	halted_status, 2
 1715              	halted_status:
 1716 0000 01       		.byte	1
 1717 0001 00       		.byte	0
 1718 0002 0000     		.text
 1719              	.Letext0:
 1720              		.file 2 "/home/marco/SoftwareProjects/st-usb/tools/gcc-arm-none-eabi-4_8-2014q2/lib/gcc/arm-none-e
 1721              		.file 3 "/home/marco/SoftwareProjects/st-usb/tools/gcc-arm-none-eabi-4_8-2014q2/arm-none-eabi/incl
 1722              		.file 4 "/home/marco/SoftwareProjects/st-usb/tools/gcc-arm-none-eabi-4_8-2014q2/arm-none-eabi/incl
 1723              		.file 5 "/home/marco/SoftwareProjects/st-usb/f9xx/firmware/ext/ChibiOS-RT/os/ports/GCC/ARMCMx/chty
 1724              		.file 6 "/home/marco/SoftwareProjects/st-usb/f9xx/firmware/ext/ChibiOS-RT/os/kernel/include/chlist
 1725              		.file 7 "/home/marco/SoftwareProjects/st-usb/f9xx/firmware/ext/ChibiOS-RT/os/kernel/include/chthre
 1726              		.file 8 "/home/marco/SoftwareProjects/st-usb/f9xx/firmware/ext/ChibiOS-RT/os/ports/GCC/ARMCMx/chco
 1727              		.file 9 "/home/marco/SoftwareProjects/st-usb/f9xx/firmware/ext/ChibiOS-RT/os/kernel/include/chmtx.
 1728              		.file 10 "/home/marco/SoftwareProjects/st-usb/f9xx/firmware/ext/ChibiOS-RT/os/kernel/include/chque
 1729              		.file 11 "/home/marco/SoftwareProjects/st-usb/f9xx/firmware/ext/ChibiOS-RT/os/hal/include/usb.h"
 1730              		.file 12 "/home/marco/SoftwareProjects/st-usb/f9xx/firmware/ext/ChibiOS-RT/os/hal/platforms/STM32/
 1731              		.file 13 "/home/marco/SoftwareProjects/st-usb/f9xx/firmware/ext/ChibiOS-RT/os/hal/platforms/STM32/
 1732              		.file 14 "/home/marco/SoftwareProjects/st-usb/f9xx/firmware/ext/ChibiOS-RT/os/ports/common/ARMCMx/