ARM GAS  /tmp/cc9BApKM.s 			page 1


   1              		.syntax unified
   2              		.cpu cortex-m4
   3              		.fpu softvfp
   4              		.eabi_attribute 20, 1
   5              		.eabi_attribute 21, 1
   6              		.eabi_attribute 23, 3
   7              		.eabi_attribute 24, 1
   8              		.eabi_attribute 25, 1
   9              		.eabi_attribute 26, 1
  10              		.eabi_attribute 30, 2
  11              		.eabi_attribute 34, 1
  12              		.eabi_attribute 18, 4
  13              		.thumb
  14              		.file	"usbcfg.c"
  15              		.text
  16              	.Ltext0:
  17              		.cfi_sections	.debug_frame
  18              		.section	.text.ep1in_cb,"ax",%progbits
  19              		.align	2
  20              		.p2align 4,,15
  21              		.thumb
  22              		.thumb_func
  23              		.type	ep1in_cb, %function
  24              	ep1in_cb:
  25              	.LFB120:
  26              		.file 1 "app/usbcfg.c"
  27              		.loc 1 274 0
  28              		.cfi_startproc
  29              		@ args = 0, pretend = 0, frame = 0
  30              		@ frame_needed = 0, uses_anonymous_args = 0
  31              		@ link register save eliminated.
  32              	.LVL0:
  33 0000 7047     		bx	lr
  34              		.cfi_endproc
  35              	.LFE120:
  36              		.size	ep1in_cb, .-ep1in_cb
  37 0002 00BFAFF3 		.section	.text.usb_get_descriptor_cb,"ax",%progbits
  37      0080AFF3 
  37      0080AFF3 
  37      0080
  38              		.align	2
  39              		.p2align 4,,15
  40              		.thumb
  41              		.thumb_func
  42              		.type	usb_get_descriptor_cb, %function
  43              	usb_get_descriptor_cb:
  44              	.LFB123:
  45              		.loc 1 368 0
  46              		.cfi_startproc
  47              		@ args = 0, pretend = 0, frame = 0
  48              		@ frame_needed = 0, uses_anonymous_args = 0
  49              		@ link register save eliminated.
  50              	.LVL1:
  51              		.loc 1 372 0
  52 0000 0139     		subs	r1, r1, #1
  53              	.LVL2:
  54 0002 2129     		cmp	r1, #33
ARM GAS  /tmp/cc9BApKM.s 			page 2


  55 0004 20D8     		bhi	.L11
  56 0006 DFE801F0 		tbb	[pc, r1]
  57              	.LVL3:
  58              	.L5:
  59 000a 1D       		.byte	(.L4-.L5)/2
  60 000b 11       		.byte	(.L10-.L5)/2
  61 000c 13       		.byte	(.L7-.L5)/2
  62 000d 1F       		.byte	(.L11-.L5)/2
  63 000e 1F       		.byte	(.L11-.L5)/2
  64 000f 1F       		.byte	(.L11-.L5)/2
  65 0010 1F       		.byte	(.L11-.L5)/2
  66 0011 1F       		.byte	(.L11-.L5)/2
  67 0012 1F       		.byte	(.L11-.L5)/2
  68 0013 1F       		.byte	(.L11-.L5)/2
  69 0014 1F       		.byte	(.L11-.L5)/2
  70 0015 1F       		.byte	(.L11-.L5)/2
  71 0016 1F       		.byte	(.L11-.L5)/2
  72 0017 1F       		.byte	(.L11-.L5)/2
  73 0018 1F       		.byte	(.L11-.L5)/2
  74 0019 1F       		.byte	(.L11-.L5)/2
  75 001a 1F       		.byte	(.L11-.L5)/2
  76 001b 1F       		.byte	(.L11-.L5)/2
  77 001c 1F       		.byte	(.L11-.L5)/2
  78 001d 1F       		.byte	(.L11-.L5)/2
  79 001e 1F       		.byte	(.L11-.L5)/2
  80 001f 1F       		.byte	(.L11-.L5)/2
  81 0020 1F       		.byte	(.L11-.L5)/2
  82 0021 1F       		.byte	(.L11-.L5)/2
  83 0022 1F       		.byte	(.L11-.L5)/2
  84 0023 1F       		.byte	(.L11-.L5)/2
  85 0024 1F       		.byte	(.L11-.L5)/2
  86 0025 1F       		.byte	(.L11-.L5)/2
  87 0026 1F       		.byte	(.L11-.L5)/2
  88 0027 1F       		.byte	(.L11-.L5)/2
  89 0028 1F       		.byte	(.L11-.L5)/2
  90 0029 1F       		.byte	(.L11-.L5)/2
  91 002a 19       		.byte	(.L8-.L5)/2
  92 002b 1B       		.byte	(.L9-.L5)/2
  93              		.p2align 1
  94              	.L10:
  95              		.loc 1 378 0
  96 002c 0748     		ldr	r0, .L13
  97              	.LVL4:
  98 002e 7047     		bx	lr
  99              	.LVL5:
 100              	.L7:
 101              		.loc 1 380 0
 102 0030 042A     		cmp	r2, #4
 103 0032 09D8     		bhi	.L11
 104              		.loc 1 381 0
 105 0034 0648     		ldr	r0, .L13+4
 106              	.LVL6:
 107 0036 00EBC200 		add	r0, r0, r2, lsl #3
 108 003a 7047     		bx	lr
 109              	.LVL7:
 110              	.L8:
 111              		.loc 1 386 0
ARM GAS  /tmp/cc9BApKM.s 			page 3


 112 003c 0548     		ldr	r0, .L13+8
 113              	.LVL8:
 114 003e 7047     		bx	lr
 115              	.LVL9:
 116              	.L9:
 117              		.loc 1 388 0
 118 0040 0548     		ldr	r0, .L13+12
 119              	.LVL10:
 120 0042 7047     		bx	lr
 121              	.LVL11:
 122              	.L4:
 123              		.loc 1 376 0
 124 0044 0548     		ldr	r0, .L13+16
 125              	.LVL12:
 126 0046 7047     		bx	lr
 127              	.LVL13:
 128              	.L11:
 129              		.loc 1 391 0
 130 0048 0020     		movs	r0, #0
 131              	.LVL14:
 132              		.loc 1 392 0
 133 004a 7047     		bx	lr
 134              	.L14:
 135              		.align	2
 136              	.L13:
 137 004c 00000000 		.word	.LANCHOR1
 138 0050 00000000 		.word	.LANCHOR4
 139 0054 00000000 		.word	.LANCHOR2
 140 0058 00000000 		.word	.LANCHOR3
 141 005c 00000000 		.word	.LANCHOR0
 142              		.cfi_endproc
 143              	.LFE123:
 144              		.size	usb_get_descriptor_cb, .-usb_get_descriptor_cb
 145              		.section	.text.ep1out_cb,"ax",%progbits
 146              		.align	2
 147              		.p2align 4,,15
 148              		.thumb
 149              		.thumb_func
 150              		.type	ep1out_cb, %function
 151              	ep1out_cb:
 152              	.LFB121:
 153              		.loc 1 287 0
 154              		.cfi_startproc
 155              		@ args = 0, pretend = 0, frame = 0
 156              		@ frame_needed = 0, uses_anonymous_args = 0
 157              	.LVL15:
 158 0000 08B5     		push	{r3, lr}
 159              		.cfi_def_cfa_offset 8
 160              		.cfi_offset 3, -8
 161              		.cfi_offset 14, -4
 162              	.LBB6:
 163              		.loc 1 291 0
 164 0002 2023     		movs	r3, #32
 165              	@ 291 "app/usbcfg.c" 1
 166 0004 83F31188 		msr     BASEPRI, r3
 167              	@ 0 "" 2
 168              		.thumb
ARM GAS  /tmp/cc9BApKM.s 			page 4


 169              	.LBE6:
 170              		.loc 1 294 0
 171 0008 0F4A     		ldr	r2, .L17
 172 000a 1069     		ldr	r0, [r2, #16]
 173              	.LVL16:
 174 000c D168     		ldr	r1, [r2, #12]
 175              	.LVL17:
 176 000e 9368     		ldr	r3, [r2, #8]
 177 0010 411A     		subs	r1, r0, r1
 178 0012 CB1A     		subs	r3, r1, r3
 179 0014 3F2B     		cmp	r3, #63
 180 0016 0ED9     		bls	.L16
 181              	.LBB7:
 182              		.loc 1 296 0
 183 0018 0023     		movs	r3, #0
 184              	@ 296 "app/usbcfg.c" 1
 185 001a 83F31188 		msr     BASEPRI, r3
 186              	@ 0 "" 2
 187              		.thumb
 188              	.LBE7:
 189              		.loc 1 298 0
 190 001e 0B48     		ldr	r0, .L17+4
 191 0020 0121     		movs	r1, #1
 192 0022 4023     		movs	r3, #64
 193 0024 FFF7FEFF 		bl	usbPrepareQueuedReceive
 194              	.LVL18:
 195              	.LBB8:
 196              		.loc 1 299 0
 197 0028 2023     		movs	r3, #32
 198              	@ 299 "app/usbcfg.c" 1
 199 002a 83F31188 		msr     BASEPRI, r3
 200              	@ 0 "" 2
 201              		.thumb
 202              	.LBE8:
 203              		.loc 1 300 0
 204 002e 0748     		ldr	r0, .L17+4
 205 0030 0121     		movs	r1, #1
 206 0032 FFF7FEFF 		bl	usbStartReceiveI
 207              	.LVL19:
 208              	.L16:
 209              	.LBB9:
 210              		.loc 1 303 0
 211 0036 0023     		movs	r3, #0
 212              	@ 303 "app/usbcfg.c" 1
 213 0038 83F31188 		msr     BASEPRI, r3
 214              	@ 0 "" 2
 215              		.thumb
 216              	.LBE9:
 217              		.loc 1 305 0
 218 003c 044B     		ldr	r3, .L17+8
 219 003e 5A69     		ldr	r2, [r3, #20]
 220 0040 82F48052 		eor	r2, r2, #4096
 221 0044 5A61     		str	r2, [r3, #20]
 222 0046 08BD     		pop	{r3, pc}
 223              	.L18:
 224              		.align	2
 225              	.L17:
ARM GAS  /tmp/cc9BApKM.s 			page 5


 226 0048 00000000 		.word	.LANCHOR5
 227 004c 00000000 		.word	USBD1
 228 0050 000C0240 		.word	1073875968
 229              		.cfi_endproc
 230              	.LFE121:
 231              		.size	ep1out_cb, .-ep1out_cb
 232 0054 AFF30080 		.section	.text.usb_request_hook_cb,"ax",%progbits
 232      AFF30080 
 232      AFF30080 
 233              		.align	2
 234              		.p2align 4,,15
 235              		.thumb
 236              		.thumb_func
 237              		.type	usb_request_hook_cb, %function
 238              	usb_request_hook_cb:
 239              	.LFB124:
 240              		.loc 1 395 0
 241              		.cfi_startproc
 242              		@ args = 0, pretend = 0, frame = 0
 243              		@ frame_needed = 0, uses_anonymous_args = 0
 244              	.LVL20:
 245 0000 70B5     		push	{r4, r5, r6, lr}
 246              		.cfi_def_cfa_offset 16
 247              		.cfi_offset 4, -16
 248              		.cfi_offset 5, -12
 249              		.cfi_offset 6, -8
 250              		.cfi_offset 14, -4
 251              		.loc 1 426 0
 252 0002 B0F84420 		ldrh	r2, [r0, #68]
 253 0006 40F28163 		movw	r3, #1665
 254 000a 9A42     		cmp	r2, r3
 255              		.loc 1 395 0
 256 000c 0446     		mov	r4, r0
 257              		.loc 1 426 0
 258 000e 01D0     		beq	.L24
 259              		.loc 1 437 0
 260 0010 0020     		movs	r0, #0
 261              	.LVL21:
 262              	.L20:
 263              		.loc 1 438 0
 264 0012 70BD     		pop	{r4, r5, r6, pc}
 265              	.LVL22:
 266              	.L24:
 267              	.LBB12:
 268              	.LBB13:
 269              		.loc 1 428 0
 270 0014 4268     		ldr	r2, [r0, #4]
 271 0016 90F84960 		ldrb	r6, [r0, #73]	@ zero_extendqisi2
 272 001a 90F84830 		ldrb	r3, [r0, #72]	@ zero_extendqisi2
 273 001e 5568     		ldr	r5, [r2, #4]
 274 0020 90F84710 		ldrb	r1, [r0, #71]	@ zero_extendqisi2
 275 0024 90F84620 		ldrb	r2, [r0, #70]	@ zero_extendqisi2
 276 0028 43EA0623 		orr	r3, r3, r6, lsl #8
 277 002c A847     		blx	r5
 278              	.LVL23:
 279              		.loc 1 430 0
 280 002e 0028     		cmp	r0, #0
ARM GAS  /tmp/cc9BApKM.s 			page 6


 281 0030 EFD0     		beq	.L20
 282              		.loc 1 433 0
 283 0032 4268     		ldr	r2, [r0, #4]
 284 0034 0368     		ldr	r3, [r0]
 285 0036 A263     		str	r2, [r4, #56]
 286 0038 0022     		movs	r2, #0
 287 003a E363     		str	r3, [r4, #60]
 288 003c 2264     		str	r2, [r4, #64]
 289              		.loc 1 434 0
 290 003e 0120     		movs	r0, #1
 291              	.LVL24:
 292 0040 70BD     		pop	{r4, r5, r6, pc}
 293              	.LBE13:
 294              	.LBE12:
 295              		.cfi_endproc
 296              	.LFE124:
 297              		.size	usb_request_hook_cb, .-usb_request_hook_cb
 298 0042 00BFAFF3 		.section	.text.usb_event_cb,"ax",%progbits
 298      0080AFF3 
 298      0080AFF3 
 298      0080
 299              		.align	2
 300              		.p2align 4,,15
 301              		.thumb
 302              		.thumb_func
 303              		.type	usb_event_cb, %function
 304              	usb_event_cb:
 305              	.LFB122:
 306              		.loc 1 328 0
 307              		.cfi_startproc
 308              		@ args = 0, pretend = 0, frame = 0
 309              		@ frame_needed = 0, uses_anonymous_args = 0
 310              	.LVL25:
 311              		.loc 1 329 0
 312 0000 0229     		cmp	r1, #2
 313              		.loc 1 328 0
 314 0002 08B5     		push	{r3, lr}
 315              		.cfi_def_cfa_offset 8
 316              		.cfi_offset 3, -8
 317              		.cfi_offset 14, -4
 318              		.loc 1 329 0
 319 0004 19D1     		bne	.L25
 320              	.LVL26:
 321              	.LBB18:
 322              	.LBB19:
 323              	.LBB20:
 324              		.loc 1 336 0
 325 0006 2023     		movs	r3, #32
 326              	@ 336 "app/usbcfg.c" 1
 327 0008 83F31188 		msr     BASEPRI, r3
 328              	@ 0 "" 2
 329              		.thumb
 330              	.LBE20:
 331              		.loc 1 337 0
 332 000c 90F84F30 		ldrb	r3, [r0, #79]	@ zero_extendqisi2
 333 0010 A3B1     		cbz	r3, .L30
 334              		.loc 1 342 0
ARM GAS  /tmp/cc9BApKM.s 			page 7


 335 0012 0121     		movs	r1, #1
 336              	.LVL27:
 337 0014 0B4A     		ldr	r2, .L31
 338 0016 FFF7FEFF 		bl	usbInitEndpointI
 339              	.LVL28:
 340              		.loc 1 345 0
 341 001a 0B48     		ldr	r0, .L31+4
 342 001c FFF7FEFF 		bl	chIQResetI
 343              	.LVL29:
 344              		.loc 1 347 0
 345 0020 0A48     		ldr	r0, .L31+8
 346 0022 094A     		ldr	r2, .L31+4
 347 0024 0121     		movs	r1, #1
 348 0026 4023     		movs	r3, #64
 349 0028 FFF7FEFF 		bl	usbPrepareQueuedReceive
 350              	.LVL30:
 351              		.loc 1 348 0
 352 002c 0748     		ldr	r0, .L31+8
 353 002e 0121     		movs	r1, #1
 354 0030 FFF7FEFF 		bl	usbStartReceiveI
 355              	.LVL31:
 356              	.L29:
 357              	.LBB21:
 358              		.loc 1 350 0
 359 0034 0023     		movs	r3, #0
 360              	@ 350 "app/usbcfg.c" 1
 361 0036 83F31188 		msr     BASEPRI, r3
 362              	@ 0 "" 2
 363              	.LVL32:
 364              		.thumb
 365              	.L25:
 366 003a 08BD     		pop	{r3, pc}
 367              	.LVL33:
 368              	.L30:
 369              	.LBE21:
 370              		.loc 1 338 0
 371 003c FFF7FEFF 		bl	usbDisableEndpointsI
 372              	.LVL34:
 373 0040 F8E7     		b	.L29
 374              	.L32:
 375 0042 00BF     		.align	2
 376              	.L31:
 377 0044 00000000 		.word	.LANCHOR6
 378 0048 00000000 		.word	.LANCHOR5
 379 004c 00000000 		.word	USBD1
 380              	.LBE19:
 381              	.LBE18:
 382              		.cfi_endproc
 383              	.LFE122:
 384              		.size	usb_event_cb, .-usb_event_cb
 385              		.section	.text.usb_input_queue_inotify,"ax",%progbits
 386              		.align	2
 387              		.p2align 4,,15
 388              		.thumb
 389              		.thumb_func
 390              		.type	usb_input_queue_inotify, %function
 391              	usb_input_queue_inotify:
ARM GAS  /tmp/cc9BApKM.s 			page 8


 392              	.LFB125:
 393              		.loc 1 455 0
 394              		.cfi_startproc
 395              		@ args = 0, pretend = 0, frame = 0
 396              		@ frame_needed = 0, uses_anonymous_args = 0
 397              	.LVL35:
 398 0000 10B5     		push	{r4, lr}
 399              		.cfi_def_cfa_offset 8
 400              		.cfi_offset 4, -8
 401              		.cfi_offset 14, -4
 402              		.loc 1 458 0
 403 0002 0F4C     		ldr	r4, .L36
 404 0004 2378     		ldrb	r3, [r4]	@ zero_extendqisi2
 405 0006 042B     		cmp	r3, #4
 406 0008 00D0     		beq	.L35
 407              	.LVL36:
 408              	.L33:
 409 000a 10BD     		pop	{r4, pc}
 410              	.LVL37:
 411              	.L35:
 412              		.loc 1 461 0
 413 000c 0D4A     		ldr	r2, .L36+4
 414 000e 1069     		ldr	r0, [r2, #16]
 415              	.LVL38:
 416 0010 D168     		ldr	r1, [r2, #12]
 417 0012 9368     		ldr	r3, [r2, #8]
 418 0014 411A     		subs	r1, r0, r1
 419 0016 CB1A     		subs	r3, r1, r3
 420 0018 3F2B     		cmp	r3, #63
 421 001a F6D9     		bls	.L33
 422              	.LVL39:
 423              	.LBB26:
 424              	.LBB27:
 425              	.LBB28:
 426              		.loc 1 462 0
 427 001c 0023     		movs	r3, #0
 428              	@ 462 "app/usbcfg.c" 1
 429 001e 83F31188 		msr     BASEPRI, r3
 430              	@ 0 "" 2
 431              		.thumb
 432              	.LBE28:
 433              		.loc 1 463 0
 434 0022 0121     		movs	r1, #1
 435 0024 2046     		mov	r0, r4
 436 0026 4023     		movs	r3, #64
 437 0028 FFF7FEFF 		bl	usbPrepareQueuedReceive
 438              	.LVL40:
 439              	.LBB29:
 440              		.loc 1 465 0
 441 002c 2023     		movs	r3, #32
 442              	@ 465 "app/usbcfg.c" 1
 443 002e 83F31188 		msr     BASEPRI, r3
 444              	@ 0 "" 2
 445              		.thumb
 446              	.LBE29:
 447              		.loc 1 466 0
 448 0032 0121     		movs	r1, #1
ARM GAS  /tmp/cc9BApKM.s 			page 9


 449 0034 2046     		mov	r0, r4
 450              	.LBE27:
 451              	.LBE26:
 452              		.loc 1 468 0
 453 0036 BDE81040 		pop	{r4, lr}
 454              	.LBB31:
 455              	.LBB30:
 456              		.loc 1 466 0
 457 003a FFF7FEBF 		b	usbStartReceiveI
 458              	.LVL41:
 459              	.L37:
 460 003e 00BF     		.align	2
 461              	.L36:
 462 0040 00000000 		.word	USBD1
 463 0044 00000000 		.word	.LANCHOR5
 464              	.LBE30:
 465              	.LBE31:
 466              		.cfi_endproc
 467              	.LFE125:
 468              		.size	usb_input_queue_inotify, .-usb_input_queue_inotify
 469 0048 AFF30080 		.section	.text.usb_read_data,"ax",%progbits
 469      AFF30080 
 470              		.align	2
 471              		.p2align 4,,15
 472              		.global	usb_read_data
 473              		.thumb
 474              		.thumb_func
 475              		.type	usb_read_data, %function
 476              	usb_read_data:
 477              	.LFB118:
 478              		.loc 1 241 0
 479              		.cfi_startproc
 480              		@ args = 0, pretend = 0, frame = 0
 481              		@ frame_needed = 0, uses_anonymous_args = 0
 482              		@ link register save eliminated.
 483              	.LVL42:
 484 0000 10B4     		push	{r4}
 485              		.cfi_def_cfa_offset 4
 486              		.cfi_offset 4, -4
 487              		.loc 1 241 0
 488 0002 0C46     		mov	r4, r1
 489 0004 1346     		mov	r3, r2
 490              		.loc 1 242 0
 491 0006 0146     		mov	r1, r0
 492              	.LVL43:
 493 0008 2246     		mov	r2, r4
 494              	.LVL44:
 495 000a 0248     		ldr	r0, .L39
 496              	.LVL45:
 497              		.loc 1 243 0
 498 000c 5DF8044B 		ldr	r4, [sp], #4
 499              		.loc 1 242 0
 500 0010 FFF7FEBF 		b	chIQReadTimeout
 501              	.LVL46:
 502              	.L40:
 503              		.align	2
 504              	.L39:
ARM GAS  /tmp/cc9BApKM.s 			page 10


 505 0014 00000000 		.word	.LANCHOR5
 506              		.cfi_endproc
 507              	.LFE118:
 508              		.size	usb_read_data, .-usb_read_data
 509 0018 AFF30080 		.section	.text.usb_send_data,"ax",%progbits
 509      AFF30080 
 510              		.align	2
 511              		.p2align 4,,15
 512              		.global	usb_send_data
 513              		.thumb
 514              		.thumb_func
 515              		.type	usb_send_data, %function
 516              	usb_send_data:
 517              	.LFB119:
 518              		.loc 1 247 0
 519              		.cfi_startproc
 520              		@ args = 0, pretend = 0, frame = 0
 521              		@ frame_needed = 0, uses_anonymous_args = 0
 522              	.LVL47:
 523 0000 38B5     		push	{r3, r4, r5, lr}
 524              		.cfi_def_cfa_offset 16
 525              		.cfi_offset 3, -16
 526              		.cfi_offset 4, -12
 527              		.cfi_offset 5, -8
 528              		.cfi_offset 14, -4
 529              	.LBB32:
 530              		.loc 1 248 0
 531 0002 2023     		movs	r3, #32
 532              	@ 248 "app/usbcfg.c" 1
 533 0004 83F31188 		msr     BASEPRI, r3
 534              	@ 0 "" 2
 535              		.thumb
 536              	.LBE32:
 537              		.loc 1 249 0
 538 0008 0B4C     		ldr	r4, .L44
 539 000a 2578     		ldrb	r5, [r4]	@ zero_extendqisi2
 540 000c 042D     		cmp	r5, #4
 541 000e 04D0     		beq	.L42
 542              	.LBB33:
 543              		.loc 1 251 0
 544 0010 0023     		movs	r3, #0
 545              	@ 251 "app/usbcfg.c" 1
 546 0012 83F31188 		msr     BASEPRI, r3
 547              	@ 0 "" 2
 548              		.thumb
 549              	.LBE33:
 550              		.loc 1 252 0
 551 0016 1846     		mov	r0, r3
 552              	.LVL48:
 553 0018 38BD     		pop	{r3, r4, r5, pc}
 554              	.LVL49:
 555              	.L42:
 556              		.loc 1 255 0
 557 001a 0246     		mov	r2, r0
 558 001c 0B46     		mov	r3, r1
 559 001e 2046     		mov	r0, r4
 560              	.LVL50:
ARM GAS  /tmp/cc9BApKM.s 			page 11


 561 0020 0121     		movs	r1, #1
 562              	.LVL51:
 563 0022 FFF7FEFF 		bl	usbPrepareTransmit
 564              	.LVL52:
 565              		.loc 1 256 0
 566 0026 2046     		mov	r0, r4
 567 0028 0121     		movs	r1, #1
 568 002a FFF7FEFF 		bl	usbStartTransmitI
 569              	.LVL53:
 570              	.LBB34:
 571              		.loc 1 257 0
 572 002e 0023     		movs	r3, #0
 573              	@ 257 "app/usbcfg.c" 1
 574 0030 83F31188 		msr     BASEPRI, r3
 575              	@ 0 "" 2
 576              		.thumb
 577              	.LBE34:
 578              		.loc 1 259 0
 579 0034 4042     		negs	r0, r0
 580              	.LVL54:
 581              		.loc 1 263 0
 582 0036 38BD     		pop	{r3, r4, r5, pc}
 583              	.L45:
 584              		.align	2
 585              	.L44:
 586 0038 00000000 		.word	USBD1
 587              		.cfi_endproc
 588              	.LFE119:
 589              		.size	usb_send_data, .-usb_send_data
 590 003c AFF30080 		.section	.text.init_usb_driver,"ax",%progbits
 591              		.align	2
 592              		.p2align 4,,15
 593              		.global	init_usb_driver
 594              		.thumb
 595              		.thumb_func
 596              		.type	init_usb_driver, %function
 597              	init_usb_driver:
 598              	.LFB126:
 599              		.loc 1 473 0
 600              		.cfi_startproc
 601              		@ args = 0, pretend = 0, frame = 0
 602              		@ frame_needed = 0, uses_anonymous_args = 0
 603 0000 10B5     		push	{r4, lr}
 604              		.cfi_def_cfa_offset 8
 605              		.cfi_offset 4, -8
 606              		.cfi_offset 14, -4
 607 0002 82B0     		sub	sp, sp, #8
 608              		.cfi_def_cfa_offset 16
 609              		.loc 1 482 0
 610 0004 0E4C     		ldr	r4, .L47
 611              		.loc 1 475 0
 612 0006 0F49     		ldr	r1, .L47+4
 613 0008 0F48     		ldr	r0, .L47+8
 614 000a 0023     		movs	r3, #0
 615 000c 0093     		str	r3, [sp]
 616 000e 8022     		movs	r2, #128
 617 0010 0E4B     		ldr	r3, .L47+12
ARM GAS  /tmp/cc9BApKM.s 			page 12


 618 0012 FFF7FEFF 		bl	chIQInit
 619              	.LVL55:
 620              		.loc 1 482 0
 621 0016 236D     		ldr	r3, [r4, #80]
 622 0018 9A6B     		ldr	r2, [r3, #56]
 623 001a 22F40022 		bic	r2, r2, #524288
 624 001e 9A63     		str	r2, [r3, #56]
 625              		.loc 1 483 0
 626 0020 4FF47A70 		mov	r0, #1000
 627 0024 FFF7FEFF 		bl	chThdSleep
 628              	.LVL56:
 629              		.loc 1 484 0
 630 0028 2046     		mov	r0, r4
 631 002a 0949     		ldr	r1, .L47+16
 632 002c FFF7FEFF 		bl	usbStart
 633              	.LVL57:
 634              		.loc 1 485 0
 635 0030 236D     		ldr	r3, [r4, #80]
 636 0032 9A6B     		ldr	r2, [r3, #56]
 637 0034 42F40022 		orr	r2, r2, #524288
 638 0038 9A63     		str	r2, [r3, #56]
 639              		.loc 1 486 0
 640 003a 02B0     		add	sp, sp, #8
 641              		@ sp needed
 642 003c 10BD     		pop	{r4, pc}
 643              	.L48:
 644 003e 00BF     		.align	2
 645              	.L47:
 646 0040 00000000 		.word	USBD1
 647 0044 00000000 		.word	.LANCHOR7
 648 0048 00000000 		.word	.LANCHOR5
 649 004c 00000000 		.word	usb_input_queue_inotify
 650 0050 00000000 		.word	.LANCHOR8
 651              		.cfi_endproc
 652              	.LFE126:
 653              		.size	init_usb_driver, .-init_usb_driver
 654 0054 AFF30080 		.section	.rodata.ep1config,"a",%progbits
 654      AFF30080 
 654      AFF30080 
 655              		.align	2
 656              		.set	.LANCHOR6,. + 0
 657              		.type	ep1config, %object
 658              		.size	ep1config, 36
 659              	ep1config:
 660 0000 02000000 		.word	2
 661 0004 00000000 		.word	0
 662 0008 00000000 		.word	ep1in_cb
 663 000c 00000000 		.word	ep1out_cb
 664 0010 4000     		.short	64
 665 0012 4000     		.short	64
 666 0014 00000000 		.word	ep1instate
 667 0018 00000000 		.word	ep1outstate
 668 001c 0200     		.short	2
 669 001e 0000     		.space	2
 670 0020 00000000 		.word	0
 671              		.section	.rodata.usb_device_descriptor,"a",%progbits
 672              		.align	2
ARM GAS  /tmp/cc9BApKM.s 			page 13


 673              		.set	.LANCHOR0,. + 0
 674              		.type	usb_device_descriptor, %object
 675              		.size	usb_device_descriptor, 8
 676              	usb_device_descriptor:
 677 0000 12000000 		.word	18
 678 0004 00000000 		.word	usb_device_descriptor_data
 679              		.section	.rodata.usb_string_langid,"a",%progbits
 680              		.align	2
 681              		.type	usb_string_langid, %object
 682              		.size	usb_string_langid, 4
 683              	usb_string_langid:
 684 0000 04       		.byte	4
 685 0001 03       		.byte	3
 686 0002 09       		.byte	9
 687 0003 04       		.byte	4
 688              		.section	.rodata.hid_report_descriptor_data,"a",%progbits
 689              		.align	2
 690              		.type	hid_report_descriptor_data, %object
 691              		.size	hid_report_descriptor_data, 34
 692              	hid_report_descriptor_data:
 693 0000 06       		.byte	6
 694 0001 00       		.byte	0
 695 0002 FF       		.byte	-1
 696 0003 00       		.byte	0
 697 0004 01       		.byte	1
 698 0005 A1       		.byte	-95
 699 0006 01       		.byte	1
 700 0007 09       		.byte	9
 701 0008 01       		.byte	1
 702 0009 15       		.byte	21
 703 000a 00       		.byte	0
 704 000b 26       		.byte	38
 705 000c FF       		.byte	-1
 706 000d 00       		.byte	0
 707 000e 75       		.byte	117
 708 000f 08       		.byte	8
 709 0010 95       		.byte	-107
 710 0011 40       		.byte	64
 711 0012 81       		.byte	-127
 712 0013 02       		.byte	2
 713 0014 09       		.byte	9
 714 0015 01       		.byte	1
 715 0016 15       		.byte	21
 716 0017 00       		.byte	0
 717 0018 26       		.byte	38
 718 0019 FF       		.byte	-1
 719 001a 00       		.byte	0
 720 001b 75       		.byte	117
 721 001c 08       		.byte	8
 722 001d 95       		.byte	-107
 723 001e 40       		.byte	64
 724 001f 91       		.byte	-111
 725 0020 02       		.byte	2
 726 0021 C0       		.byte	-64
 727 0022 0000     		.section	.bss.ep1instate,"aw",%nobits
 728              		.align	2
 729              		.type	ep1instate, %object
ARM GAS  /tmp/cc9BApKM.s 			page 14


 730              		.size	ep1instate, 20
 731              	ep1instate:
 732 0000 00000000 		.space	20
 732      00000000 
 732      00000000 
 732      00000000 
 732      00000000 
 733              		.section	.rodata.hid_report_descriptor,"a",%progbits
 734              		.align	2
 735              		.set	.LANCHOR3,. + 0
 736              		.type	hid_report_descriptor, %object
 737              		.size	hid_report_descriptor, 8
 738              	hid_report_descriptor:
 739 0000 22000000 		.word	34
 740 0004 00000000 		.word	hid_report_descriptor_data
 741              		.section	.rodata.hid_configuration_descriptor,"a",%progbits
 742              		.align	2
 743              		.set	.LANCHOR1,. + 0
 744              		.type	hid_configuration_descriptor, %object
 745              		.size	hid_configuration_descriptor, 8
 746              	hid_configuration_descriptor:
 747 0000 20000000 		.word	32
 748 0004 00000000 		.word	hid_configuration_descriptor_data
 749              		.section	.rodata.usb_string_vendor,"a",%progbits
 750              		.align	2
 751              		.type	usb_string_vendor, %object
 752              		.size	usb_string_vendor, 22
 753              	usb_string_vendor:
 754 0000 16       		.byte	22
 755 0001 03       		.byte	3
 756 0002 41       		.byte	65
 757 0003 00       		.byte	0
 758 0004 62       		.byte	98
 759 0005 00       		.byte	0
 760 0006 73       		.byte	115
 761 0007 00       		.byte	0
 762 0008 65       		.byte	101
 763 0009 00       		.byte	0
 764 000a 6E       		.byte	110
 765 000b 00       		.byte	0
 766 000c 63       		.byte	99
 767 000d 00       		.byte	0
 768 000e 65       		.byte	101
 769 000f 00       		.byte	0
 770 0010 2E       		.byte	46
 771 0011 00       		.byte	0
 772 0012 69       		.byte	105
 773 0013 00       		.byte	0
 774 0014 74       		.byte	116
 775 0015 00       		.byte	0
 776 0016 0000     		.section	.rodata.usb_strings,"a",%progbits
 777              		.align	2
 778              		.set	.LANCHOR4,. + 0
 779              		.type	usb_strings, %object
 780              		.size	usb_strings, 40
 781              	usb_strings:
 782 0000 04000000 		.word	4
ARM GAS  /tmp/cc9BApKM.s 			page 15


 783 0004 00000000 		.word	usb_string_langid
 784 0008 16000000 		.word	22
 785 000c 00000000 		.word	usb_string_vendor
 786 0010 0C000000 		.word	12
 787 0014 00000000 		.word	usb_string_description
 788 0018 08000000 		.word	8
 789 001c 00000000 		.word	usb_string_serial
 790 0020 10000000 		.word	16
 791 0024 00000000 		.word	usb_interface_1_string
 792              		.section	.rodata.usbcfg,"a",%progbits
 793              		.align	2
 794              		.set	.LANCHOR8,. + 0
 795              		.type	usbcfg, %object
 796              		.size	usbcfg, 16
 797              	usbcfg:
 798 0000 00000000 		.word	usb_event_cb
 799 0004 00000000 		.word	usb_get_descriptor_cb
 800 0008 00000000 		.word	usb_request_hook_cb
 801 000c 00000000 		.word	0
 802              		.section	.data.usb_string_serial,"aw",%progbits
 803              		.align	2
 804              		.type	usb_string_serial, %object
 805              		.size	usb_string_serial, 8
 806              	usb_string_serial:
 807 0000 08       		.byte	8
 808 0001 03       		.byte	3
 809 0002 33       		.byte	51
 810 0003 00       		.byte	0
 811 0004 36       		.byte	54
 812 0005 00       		.byte	0
 813 0006 36       		.byte	54
 814 0007 00       		.byte	0
 815              		.section	.rodata.usb_device_descriptor_data,"a",%progbits
 816              		.align	2
 817              		.type	usb_device_descriptor_data, %object
 818              		.size	usb_device_descriptor_data, 18
 819              	usb_device_descriptor_data:
 820 0000 12       		.byte	18
 821 0001 01       		.byte	1
 822 0002 10       		.byte	16
 823 0003 01       		.byte	1
 824 0004 00       		.byte	0
 825 0005 00       		.byte	0
 826 0006 00       		.byte	0
 827 0007 40       		.byte	64
 828 0008 83       		.byte	-125
 829 0009 04       		.byte	4
 830 000a 40       		.byte	64
 831 000b 57       		.byte	87
 832 000c 00       		.byte	0
 833 000d 00       		.byte	0
 834 000e 01       		.byte	1
 835 000f 02       		.byte	2
 836 0010 03       		.byte	3
 837 0011 01       		.byte	1
 838 0012 0000     		.section	.rodata.hid_descriptor,"a",%progbits
 839              		.align	2
ARM GAS  /tmp/cc9BApKM.s 			page 16


 840              		.set	.LANCHOR2,. + 0
 841              		.type	hid_descriptor, %object
 842              		.size	hid_descriptor, 8
 843              	hid_descriptor:
 844 0000 09000000 		.word	9
 845 0004 12000000 		.word	hid_configuration_descriptor_data+18
 846              		.section	.rodata.hid_configuration_descriptor_data,"a",%progbits
 847              		.align	2
 848              		.type	hid_configuration_descriptor_data, %object
 849              		.size	hid_configuration_descriptor_data, 32
 850              	hid_configuration_descriptor_data:
 851 0000 09       		.byte	9
 852 0001 02       		.byte	2
 853 0002 20       		.byte	32
 854 0003 00       		.byte	0
 855 0004 01       		.byte	1
 856 0005 01       		.byte	1
 857 0006 00       		.byte	0
 858 0007 C0       		.byte	-64
 859 0008 32       		.byte	50
 860 0009 09       		.byte	9
 861 000a 04       		.byte	4
 862 000b 00       		.byte	0
 863 000c 00       		.byte	0
 864 000d 02       		.byte	2
 865 000e FF       		.byte	-1
 866 000f 00       		.byte	0
 867 0010 00       		.byte	0
 868 0011 04       		.byte	4
 869 0012 07       		.byte	7
 870 0013 05       		.byte	5
 871 0014 81       		.byte	-127
 872 0015 02       		.byte	2
 873 0016 40       		.byte	64
 874 0017 00       		.byte	0
 875 0018 0A       		.byte	10
 876 0019 07       		.byte	7
 877 001a 05       		.byte	5
 878 001b 01       		.byte	1
 879 001c 02       		.byte	2
 880 001d 40       		.byte	64
 881 001e 00       		.byte	0
 882 001f 0A       		.byte	10
 883              		.section	.rodata.usb_interface_1_string,"a",%progbits
 884              		.align	2
 885              		.type	usb_interface_1_string, %object
 886              		.size	usb_interface_1_string, 16
 887              	usb_interface_1_string:
 888 0000 0C       		.byte	12
 889 0001 03       		.byte	3
 890 0002 53       		.byte	83
 891 0003 00       		.byte	0
 892 0004 74       		.byte	116
 893 0005 00       		.byte	0
 894 0006 6F       		.byte	111
 895 0007 00       		.byte	0
 896 0008 72       		.byte	114
ARM GAS  /tmp/cc9BApKM.s 			page 17


 897 0009 00       		.byte	0
 898 000a 61       		.byte	97
 899 000b 00       		.byte	0
 900 000c 67       		.byte	103
 901 000d 00       		.byte	0
 902 000e 65       		.byte	101
 903 000f 00       		.byte	0
 904              		.section	.bss.ep1outstate,"aw",%nobits
 905              		.align	2
 906              		.type	ep1outstate, %object
 907              		.size	ep1outstate, 20
 908              	ep1outstate:
 909 0000 00000000 		.space	20
 909      00000000 
 909      00000000 
 909      00000000 
 909      00000000 
 910              		.section	.bss.input_queue_buffer,"aw",%nobits
 911              		.align	2
 912              		.set	.LANCHOR7,. + 0
 913              		.type	input_queue_buffer, %object
 914              		.size	input_queue_buffer, 128
 915              	input_queue_buffer:
 916 0000 00000000 		.space	128
 916      00000000 
 916      00000000 
 916      00000000 
 916      00000000 
 917              		.section	.bss.usb_input_queue,"aw",%nobits
 918              		.align	2
 919              		.set	.LANCHOR5,. + 0
 920              		.type	usb_input_queue, %object
 921              		.size	usb_input_queue, 36
 922              	usb_input_queue:
 923 0000 00000000 		.space	36
 923      00000000 
 923      00000000 
 923      00000000 
 923      00000000 
 924              		.section	.rodata.usb_string_description,"a",%progbits
 925              		.align	2
 926              		.type	usb_string_description, %object
 927              		.size	usb_string_description, 12
 928              	usb_string_description:
 929 0000 0C       		.byte	12
 930 0001 03       		.byte	3
 931 0002 4D       		.byte	77
 932 0003 00       		.byte	0
 933 0004 6F       		.byte	111
 934 0005 00       		.byte	0
 935 0006 6F       		.byte	111
 936 0007 00       		.byte	0
 937 0008 6F       		.byte	111
 938 0009 00       		.byte	0
 939 000a 44       		.byte	68
 940 000b 00       		.byte	0
 941              		.text
ARM GAS  /tmp/cc9BApKM.s 			page 18


 942              	.Letext0:
 943              		.file 2 "/home/marco/SoftwareProjects/st-usb/tools/gcc-arm-none-eabi-4_8-2014q2/lib/gcc/arm-none-e
 944              		.file 3 "/home/marco/SoftwareProjects/st-usb/tools/gcc-arm-none-eabi-4_8-2014q2/arm-none-eabi/incl
 945              		.file 4 "/home/marco/SoftwareProjects/st-usb/tools/gcc-arm-none-eabi-4_8-2014q2/arm-none-eabi/incl
 946              		.file 5 "/home/marco/SoftwareProjects/st-usb/f9xx/firmware/ext/ChibiOS-RT/os/ports/GCC/ARMCMx/chty
 947              		.file 6 "/home/marco/SoftwareProjects/st-usb/f9xx/firmware/ext/ChibiOS-RT/os/kernel/include/chlist
 948              		.file 7 "/home/marco/SoftwareProjects/st-usb/f9xx/firmware/ext/ChibiOS-RT/os/kernel/include/chthre
 949              		.file 8 "/home/marco/SoftwareProjects/st-usb/f9xx/firmware/ext/ChibiOS-RT/os/ports/GCC/ARMCMx/chco
 950              		.file 9 "/home/marco/SoftwareProjects/st-usb/f9xx/firmware/ext/ChibiOS-RT/os/kernel/include/chmtx.
 951              		.file 10 "/home/marco/SoftwareProjects/st-usb/f9xx/firmware/ext/ChibiOS-RT/os/kernel/include/chque
 952              		.file 11 "/home/marco/SoftwareProjects/st-usb/f9xx/firmware/ext/ChibiOS-RT/os/hal/platforms/STM32/
 953              		.file 12 "/home/marco/SoftwareProjects/st-usb/f9xx/firmware/ext/ChibiOS-RT/os/hal/include/usb.h"
 954              		.file 13 "/home/marco/SoftwareProjects/st-usb/f9xx/firmware/ext/ChibiOS-RT/os/hal/platforms/STM32/
 955              		.file 14 "/home/marco/SoftwareProjects/st-usb/f9xx/firmware/ext/ChibiOS-RT/os/hal/platforms/STM32/
 956              		.file 15 "/home/marco/SoftwareProjects/st-usb/f9xx/firmware/ext/ChibiOS-RT/os/ports/common/ARMCMx/